
rtos_test.elf:     file format elf32-littleriscv


Disassembly of section .text:

80000000 <Task2_Handler>:
80000000:	fe010113          	addi	sp,sp,-32
80000004:	00a00513          	li	a0,10
80000008:	00112e23          	sw	ra,28(sp)
8000000c:	00812c23          	sw	s0,24(sp)
80000010:	00912a23          	sw	s1,20(sp)
80000014:	01212823          	sw	s2,16(sp)
80000018:	01312623          	sw	s3,12(sp)
8000001c:	751030ef          	jal	ra,80003f6c <vTaskDelay>
80000020:	47d040ef          	jal	ra,80004c9c <vTaskEnterCritical>
80000024:	810005b7          	lui	a1,0x81000
80000028:	81000537          	lui	a0,0x81000
8000002c:	11858593          	addi	a1,a1,280 # 81000118 <__heap_start+0xfbfff268>
80000030:	13450513          	addi	a0,a0,308 # 81000134 <__heap_start+0xfbfff284>
80000034:	09d000ef          	jal	ra,800008d0 <printf>
80000038:	0007a4b7          	lui	s1,0x7a
8000003c:	479040ef          	jal	ra,80004cb4 <vTaskExitCritical>
80000040:	00000913          	li	s2,0
80000044:	81000437          	lui	s0,0x81000
80000048:	11f48493          	addi	s1,s1,287 # 7a11f <__stack_size+0x7991f>
8000004c:	810019b7          	lui	s3,0x81001
80000050:	64442783          	lw	a5,1604(s0) # 81000644 <__heap_start+0xfbfff794>
80000054:	02f4d663          	ble	a5,s1,80000080 <Task2_Handler+0x80>
80000058:	01812403          	lw	s0,24(sp)
8000005c:	810007b7          	lui	a5,0x81000
80000060:	6527a023          	sw	s2,1600(a5) # 81000640 <__heap_start+0xfbfff790>
80000064:	01c12083          	lw	ra,28(sp)
80000068:	01412483          	lw	s1,20(sp)
8000006c:	01012903          	lw	s2,16(sp)
80000070:	00c12983          	lw	s3,12(sp)
80000074:	00000513          	li	a0,0
80000078:	02010113          	addi	sp,sp,32
8000007c:	7190206f          	j	80002f94 <vTaskDelete>
80000080:	ebc9a503          	lw	a0,-324(s3) # 81000ebc <__heap_start+0xfc00000c>
80000084:	fff00593          	li	a1,-1
80000088:	00190913          	addi	s2,s2,1
8000008c:	73d010ef          	jal	ra,80001fc8 <xQueueSemaphoreTake>
80000090:	64442783          	lw	a5,1604(s0)
80000094:	ebc9a503          	lw	a0,-324(s3)
80000098:	00000693          	li	a3,0
8000009c:	00178793          	addi	a5,a5,1
800000a0:	00000613          	li	a2,0
800000a4:	00000593          	li	a1,0
800000a8:	64f42223          	sw	a5,1604(s0)
800000ac:	08d010ef          	jal	ra,80001938 <xQueueGenericSend>
800000b0:	fa1ff06f          	j	80000050 <Task2_Handler+0x50>

800000b4 <pi.part.0>:
800000b4:	810017b7          	lui	a5,0x81001
800000b8:	ec07a683          	lw	a3,-320(a5) # 81000ec0 <__heap_start+0xfc000010>
800000bc:	81000737          	lui	a4,0x81000
800000c0:	00151613          	slli	a2,a0,0x1
800000c4:	00268693          	addi	a3,a3,2
800000c8:	60472803          	lw	a6,1540(a4) # 81000604 <__heap_start+0xfbfff754>
800000cc:	810018b7          	lui	a7,0x81001
800000d0:	ec078713          	addi	a4,a5,-320
800000d4:	00160613          	addi	a2,a2,1
800000d8:	ecd7a023          	sw	a3,-320(a5)
800000dc:	810017b7          	lui	a5,0x81001
800000e0:	eac7a823          	sw	a2,-336(a5) # 81000eb0 <__heap_start+0xfc000000>
800000e4:	4008a223          	sw	zero,1028(a7) # 81001404 <__heap_start+0xfc000554>
800000e8:	54470593          	addi	a1,a4,1348
800000ec:	00000793          	li	a5,0
800000f0:	0080006f          	j	800000f8 <pi.part.0+0x44>
800000f4:	00072683          	lw	a3,0(a4)
800000f8:	02c7e7b3          	rem	a5,a5,a2
800000fc:	00470713          	addi	a4,a4,4
80000100:	02d506b3          	mul	a3,a0,a3
80000104:	030787b3          	mul	a5,a5,a6
80000108:	00d787b3          	add	a5,a5,a3
8000010c:	02c7c6b3          	div	a3,a5,a2
80000110:	fed72e23          	sw	a3,-4(a4)
80000114:	feb710e3          	bne	a4,a1,800000f4 <pi.part.0+0x40>
80000118:	40f8a223          	sw	a5,1028(a7)
8000011c:	15100713          	li	a4,337
80000120:	810017b7          	lui	a5,0x81001
80000124:	eae7aa23          	sw	a4,-332(a5) # 81000eb4 <__heap_start+0xfc000004>
80000128:	00008067          	ret

8000012c <Task1_Handler>:
8000012c:	fe010113          	addi	sp,sp,-32
80000130:	00112e23          	sw	ra,28(sp)
80000134:	00812c23          	sw	s0,24(sp)
80000138:	00912a23          	sw	s1,20(sp)
8000013c:	01212823          	sw	s2,16(sp)
80000140:	01312623          	sw	s3,12(sp)
80000144:	01412423          	sw	s4,8(sp)
80000148:	01512223          	sw	s5,4(sp)
8000014c:	351040ef          	jal	ra,80004c9c <vTaskEnterCritical>
80000150:	81000a37          	lui	s4,0x81000
80000154:	810005b7          	lui	a1,0x81000
80000158:	13858593          	addi	a1,a1,312 # 81000138 <__heap_start+0xfbfff288>
8000015c:	134a0513          	addi	a0,s4,308 # 81000134 <__heap_start+0xfbfff284>
80000160:	770000ef          	jal	ra,800008d0 <printf>
80000164:	351040ef          	jal	ra,80004cb4 <vTaskExitCritical>
80000168:	000017b7          	lui	a5,0x1
8000016c:	810019b7          	lui	s3,0x81001
80000170:	fa078793          	addi	a5,a5,-96 # fa0 <__stack_size+0x7a0>
80000174:	0007a4b7          	lui	s1,0x7a
80000178:	eaf9ac23          	sw	a5,-328(s3) # 81000eb8 <__heap_start+0xfc000008>
8000017c:	00000913          	li	s2,0
80000180:	81000437          	lui	s0,0x81000
80000184:	11f48493          	addi	s1,s1,287 # 7a11f <__stack_size+0x7991f>
80000188:	81001ab7          	lui	s5,0x81001
8000018c:	64442783          	lw	a5,1604(s0) # 81000644 <__heap_start+0xfbfff794>
80000190:	10f4d463          	ble	a5,s1,80000298 <Task1_Handler+0x16c>
80000194:	810004b7          	lui	s1,0x81000
80000198:	6404a783          	lw	a5,1600(s1) # 81000640 <__heap_start+0xfbfff790>
8000019c:	00079a63          	bnez	a5,800001b0 <Task1_Handler+0x84>
800001a0:	00100513          	li	a0,1
800001a4:	5c9030ef          	jal	ra,80003f6c <vTaskDelay>
800001a8:	6404a783          	lw	a5,1600(s1)
800001ac:	fe078ae3          	beqz	a5,800001a0 <Task1_Handler+0x74>
800001b0:	2ed040ef          	jal	ra,80004c9c <vTaskEnterCritical>
800001b4:	810005b7          	lui	a1,0x81000
800001b8:	15458593          	addi	a1,a1,340 # 81000154 <__heap_start+0xfbfff2a4>
800001bc:	134a0513          	addi	a0,s4,308
800001c0:	710000ef          	jal	ra,800008d0 <printf>
800001c4:	2f1040ef          	jal	ra,80004cb4 <vTaskExitCritical>
800001c8:	64442a83          	lw	s5,1604(s0)
800001cc:	810009b7          	lui	s3,0x81000
800001d0:	2cd040ef          	jal	ra,80004c9c <vTaskEnterCritical>
800001d4:	000a8593          	mv	a1,s5
800001d8:	17898513          	addi	a0,s3,376 # 81000178 <__heap_start+0xfbfff2c8>
800001dc:	6f4000ef          	jal	ra,800008d0 <printf>
800001e0:	2d5040ef          	jal	ra,80004cb4 <vTaskExitCritical>
800001e4:	2b9040ef          	jal	ra,80004c9c <vTaskEnterCritical>
800001e8:	810005b7          	lui	a1,0x81000
800001ec:	17c58593          	addi	a1,a1,380 # 8100017c <__heap_start+0xfbfff2cc>
800001f0:	134a0513          	addi	a0,s4,308
800001f4:	6dc000ef          	jal	ra,800008d0 <printf>
800001f8:	2bd040ef          	jal	ra,80004cb4 <vTaskExitCritical>
800001fc:	2a1040ef          	jal	ra,80004c9c <vTaskEnterCritical>
80000200:	00090593          	mv	a1,s2
80000204:	17898513          	addi	a0,s3,376
80000208:	6c8000ef          	jal	ra,800008d0 <printf>
8000020c:	2a9040ef          	jal	ra,80004cb4 <vTaskExitCritical>
80000210:	28d040ef          	jal	ra,80004c9c <vTaskEnterCritical>
80000214:	810005b7          	lui	a1,0x81000
80000218:	19458593          	addi	a1,a1,404 # 81000194 <__heap_start+0xfbfff2e4>
8000021c:	134a0513          	addi	a0,s4,308
80000220:	6b0000ef          	jal	ra,800008d0 <printf>
80000224:	291040ef          	jal	ra,80004cb4 <vTaskExitCritical>
80000228:	6404aa83          	lw	s5,1600(s1)
8000022c:	271040ef          	jal	ra,80004c9c <vTaskEnterCritical>
80000230:	17898513          	addi	a0,s3,376
80000234:	000a8593          	mv	a1,s5
80000238:	698000ef          	jal	ra,800008d0 <printf>
8000023c:	279040ef          	jal	ra,80004cb4 <vTaskExitCritical>
80000240:	6404a783          	lw	a5,1600(s1)
80000244:	64442703          	lw	a4,1604(s0)
80000248:	012786b3          	add	a3,a5,s2
8000024c:	08e69c63          	bne	a3,a4,800002e4 <Task1_Handler+0x1b8>
80000250:	00090463          	beqz	s2,80000258 <Task1_Handler+0x12c>
80000254:	0a079663          	bnez	a5,80000300 <Task1_Handler+0x1d4>
80000258:	245040ef          	jal	ra,80004c9c <vTaskEnterCritical>
8000025c:	810005b7          	lui	a1,0x81000
80000260:	1fc58593          	addi	a1,a1,508 # 810001fc <__heap_start+0xfbfff34c>
80000264:	134a0513          	addi	a0,s4,308
80000268:	668000ef          	jal	ra,800008d0 <printf>
8000026c:	249040ef          	jal	ra,80004cb4 <vTaskExitCritical>
80000270:	01812403          	lw	s0,24(sp)
80000274:	01c12083          	lw	ra,28(sp)
80000278:	01412483          	lw	s1,20(sp)
8000027c:	01012903          	lw	s2,16(sp)
80000280:	00c12983          	lw	s3,12(sp)
80000284:	00812a03          	lw	s4,8(sp)
80000288:	00412a83          	lw	s5,4(sp)
8000028c:	00000513          	li	a0,0
80000290:	02010113          	addi	sp,sp,32
80000294:	5010206f          	j	80002f94 <vTaskDelete>
80000298:	ebcaa503          	lw	a0,-324(s5) # 81000ebc <__heap_start+0xfc00000c>
8000029c:	fff00593          	li	a1,-1
800002a0:	00190913          	addi	s2,s2,1
800002a4:	525010ef          	jal	ra,80001fc8 <xQueueSemaphoreTake>
800002a8:	64442783          	lw	a5,1604(s0)
800002ac:	ebcaa503          	lw	a0,-324(s5)
800002b0:	00000693          	li	a3,0
800002b4:	00178793          	addi	a5,a5,1
800002b8:	00000613          	li	a2,0
800002bc:	00000593          	li	a1,0
800002c0:	64f42223          	sw	a5,1604(s0)
800002c4:	674010ef          	jal	ra,80001938 <xQueueGenericSend>
800002c8:	eb89a783          	lw	a5,-328(s3)
800002cc:	fff78713          	addi	a4,a5,-1
800002d0:	eae9ac23          	sw	a4,-328(s3)
800002d4:	00078513          	mv	a0,a5
800002d8:	ea07cae3          	bltz	a5,8000018c <Task1_Handler+0x60>
800002dc:	dd9ff0ef          	jal	ra,800000b4 <pi.part.0>
800002e0:	eadff06f          	j	8000018c <Task1_Handler+0x60>
800002e4:	1b9040ef          	jal	ra,80004c9c <vTaskEnterCritical>
800002e8:	810005b7          	lui	a1,0x81000
800002ec:	1ac58593          	addi	a1,a1,428 # 810001ac <__heap_start+0xfbfff2fc>
800002f0:	134a0513          	addi	a0,s4,308
800002f4:	5dc000ef          	jal	ra,800008d0 <printf>
800002f8:	1bd040ef          	jal	ra,80004cb4 <vTaskExitCritical>
800002fc:	f75ff06f          	j	80000270 <Task1_Handler+0x144>
80000300:	19d040ef          	jal	ra,80004c9c <vTaskEnterCritical>
80000304:	810005b7          	lui	a1,0x81000
80000308:	24058593          	addi	a1,a1,576 # 81000240 <__heap_start+0xfbfff390>
8000030c:	134a0513          	addi	a0,s4,308
80000310:	5c0000ef          	jal	ra,800008d0 <printf>
80000314:	1a1040ef          	jal	ra,80004cb4 <vTaskExitCritical>
80000318:	f59ff06f          	j	80000270 <Task1_Handler+0x144>

8000031c <vPrintString>:
8000031c:	ff010113          	addi	sp,sp,-16
80000320:	00112623          	sw	ra,12(sp)
80000324:	00812423          	sw	s0,8(sp)
80000328:	00050413          	mv	s0,a0
8000032c:	171040ef          	jal	ra,80004c9c <vTaskEnterCritical>
80000330:	81000537          	lui	a0,0x81000
80000334:	00040593          	mv	a1,s0
80000338:	13450513          	addi	a0,a0,308 # 81000134 <__heap_start+0xfbfff284>
8000033c:	594000ef          	jal	ra,800008d0 <printf>
80000340:	00812403          	lw	s0,8(sp)
80000344:	00c12083          	lw	ra,12(sp)
80000348:	01010113          	addi	sp,sp,16
8000034c:	1690406f          	j	80004cb4 <vTaskExitCritical>

80000350 <vPrintNumber>:
80000350:	ff010113          	addi	sp,sp,-16
80000354:	00112623          	sw	ra,12(sp)
80000358:	00812423          	sw	s0,8(sp)
8000035c:	00050413          	mv	s0,a0
80000360:	13d040ef          	jal	ra,80004c9c <vTaskEnterCritical>
80000364:	81000537          	lui	a0,0x81000
80000368:	00040593          	mv	a1,s0
8000036c:	17850513          	addi	a0,a0,376 # 81000178 <__heap_start+0xfbfff2c8>
80000370:	560000ef          	jal	ra,800008d0 <printf>
80000374:	00812403          	lw	s0,8(sp)
80000378:	00c12083          	lw	ra,12(sp)
8000037c:	01010113          	addi	sp,sp,16
80000380:	1350406f          	j	80004cb4 <vTaskExitCritical>

80000384 <pi>:
80000384:	00054463          	bltz	a0,8000038c <pi+0x8>
80000388:	d2dff06f          	j	800000b4 <pi.part.0>
8000038c:	00008067          	ret

80000390 <vApplicationMallocFailedHook>:
80000390:	30047073          	csrci	mstatus,8
80000394:	0000006f          	j	80000394 <vApplicationMallocFailedHook+0x4>

80000398 <vApplicationIdleHook>:
80000398:	00008067          	ret

8000039c <vApplicationStackOverflowHook>:
8000039c:	ff010113          	addi	sp,sp,-16
800003a0:	00112623          	sw	ra,12(sp)
800003a4:	30047073          	csrci	mstatus,8
800003a8:	81000537          	lui	a0,0x81000
800003ac:	27850513          	addi	a0,a0,632 # 81000278 <__heap_start+0xfbfff3c8>
800003b0:	520000ef          	jal	ra,800008d0 <printf>
800003b4:	0000006f          	j	800003b4 <vApplicationStackOverflowHook+0x18>

800003b8 <vApplicationTickHook>:
800003b8:	00008067          	ret

800003bc <vAssertCalled>:
800003bc:	30047073          	csrci	mstatus,8
800003c0:	00000013          	nop
800003c4:	00000013          	nop
800003c8:	ff9ff06f          	j	800003c0 <vAssertCalled+0x4>

800003cc <vExternalISR>:
800003cc:	00008067          	ret

800003d0 <crt0>:
800003d0:	ff010113          	addi	sp,sp,-16
800003d4:	00112623          	sw	ra,12(sp)
800003d8:	810012b7          	lui	t0,0x81001
800003dc:	4022a423          	sw	sp,1032(t0) # 81001408 <__heap_start+0xfc000558>
800003e0:	810002b7          	lui	t0,0x81000
800003e4:	6082a103          	lw	sp,1544(t0) # 81000608 <__heap_start+0xfbfff758>
800003e8:	041070ef          	jal	ra,80007c28 <main>
800003ec:	810012b7          	lui	t0,0x81001
800003f0:	4082a103          	lw	sp,1032(t0) # 81001408 <__heap_start+0xfc000558>
800003f4:	00c12083          	lw	ra,12(sp)
800003f8:	01010113          	addi	sp,sp,16
800003fc:	00008067          	ret

80000400 <getchar>:
80000400:	ff010113          	addi	sp,sp,-16
80000404:	00112623          	sw	ra,12(sp)
80000408:	709000ef          	jal	ra,80001310 <inbyte>
8000040c:	00c12083          	lw	ra,12(sp)
80000410:	01010113          	addi	sp,sp,16
80000414:	00008067          	ret

80000418 <putchar>:
80000418:	ff010113          	addi	sp,sp,-16
8000041c:	00812423          	sw	s0,8(sp)
80000420:	00050413          	mv	s0,a0
80000424:	0ff57513          	andi	a0,a0,255
80000428:	00112623          	sw	ra,12(sp)
8000042c:	701000ef          	jal	ra,8000132c <outbyte>
80000430:	00040513          	mv	a0,s0
80000434:	00c12083          	lw	ra,12(sp)
80000438:	00812403          	lw	s0,8(sp)
8000043c:	01010113          	addi	sp,sp,16
80000440:	00008067          	ret

80000444 <fputs>:
80000444:	810007b7          	lui	a5,0x81000
80000448:	6107a783          	lw	a5,1552(a5) # 81000610 <__heap_start+0xfbfff760>
8000044c:	ff010113          	addi	sp,sp,-16
80000450:	00112623          	sw	ra,12(sp)
80000454:	00812423          	sw	s0,8(sp)
80000458:	02b78a63          	beq	a5,a1,8000048c <fputs+0x48>
8000045c:	810007b7          	lui	a5,0x81000
80000460:	6147a583          	lw	a1,1556(a5) # 81000614 <__heap_start+0xfbfff764>
80000464:	81000537          	lui	a0,0x81000
80000468:	31450513          	addi	a0,a0,788 # 81000314 <__heap_start+0xfbfff464>
8000046c:	fd9ff0ef          	jal	ra,80000444 <fputs>
80000470:	00a00513          	li	a0,10
80000474:	6b9000ef          	jal	ra,8000132c <outbyte>
80000478:	00c12083          	lw	ra,12(sp)
8000047c:	00812403          	lw	s0,8(sp)
80000480:	00a00513          	li	a0,10
80000484:	01010113          	addi	sp,sp,16
80000488:	00008067          	ret
8000048c:	00050413          	mv	s0,a0
80000490:	00054503          	lbu	a0,0(a0)
80000494:	fc050ee3          	beqz	a0,80000470 <fputs+0x2c>
80000498:	00140413          	addi	s0,s0,1
8000049c:	691000ef          	jal	ra,8000132c <outbyte>
800004a0:	00044503          	lbu	a0,0(s0)
800004a4:	fe051ae3          	bnez	a0,80000498 <fputs+0x54>
800004a8:	00a00513          	li	a0,10
800004ac:	681000ef          	jal	ra,8000132c <outbyte>
800004b0:	00c12083          	lw	ra,12(sp)
800004b4:	00812403          	lw	s0,8(sp)
800004b8:	00a00513          	li	a0,10
800004bc:	01010113          	addi	sp,sp,16
800004c0:	00008067          	ret

800004c4 <fgets>:
800004c4:	810007b7          	lui	a5,0x81000
800004c8:	6147a783          	lw	a5,1556(a5) # 81000614 <__heap_start+0xfbfff764>
800004cc:	fe010113          	addi	sp,sp,-32
800004d0:	00112e23          	sw	ra,28(sp)
800004d4:	00812c23          	sw	s0,24(sp)
800004d8:	00912a23          	sw	s1,20(sp)
800004dc:	01212823          	sw	s2,16(sp)
800004e0:	01312623          	sw	s3,12(sp)
800004e4:	01412423          	sw	s4,8(sp)
800004e8:	06c79663          	bne	a5,a2,80000554 <fgets+0x90>
800004ec:	00050a13          	mv	s4,a0
800004f0:	00050413          	mv	s0,a0
800004f4:	00a00493          	li	s1,10
800004f8:	00d00913          	li	s2,13
800004fc:	00b509b3          	add	s3,a0,a1
80000500:	00059c63          	bnez	a1,80000518 <fgets+0x54>
80000504:	0200006f          	j	80000524 <fgets+0x60>
80000508:	01250e63          	beq	a0,s2,80000524 <fgets+0x60>
8000050c:	00140413          	addi	s0,s0,1
80000510:	61d000ef          	jal	ra,8000132c <outbyte>
80000514:	01340863          	beq	s0,s3,80000524 <fgets+0x60>
80000518:	5f9000ef          	jal	ra,80001310 <inbyte>
8000051c:	00a40023          	sb	a0,0(s0)
80000520:	fe9514e3          	bne	a0,s1,80000508 <fgets+0x44>
80000524:	00a00513          	li	a0,10
80000528:	605000ef          	jal	ra,8000132c <outbyte>
8000052c:	00040023          	sb	zero,0(s0)
80000530:	01c12083          	lw	ra,28(sp)
80000534:	01812403          	lw	s0,24(sp)
80000538:	000a0513          	mv	a0,s4
8000053c:	01412483          	lw	s1,20(sp)
80000540:	01012903          	lw	s2,16(sp)
80000544:	00c12983          	lw	s3,12(sp)
80000548:	00812a03          	lw	s4,8(sp)
8000054c:	02010113          	addi	sp,sp,32
80000550:	00008067          	ret
80000554:	81000537          	lui	a0,0x81000
80000558:	00078593          	mv	a1,a5
8000055c:	34050513          	addi	a0,a0,832 # 81000340 <__heap_start+0xfbfff490>
80000560:	ee5ff0ef          	jal	ra,80000444 <fputs>
80000564:	01c12083          	lw	ra,28(sp)
80000568:	01812403          	lw	s0,24(sp)
8000056c:	01412483          	lw	s1,20(sp)
80000570:	01012903          	lw	s2,16(sp)
80000574:	00c12983          	lw	s3,12(sp)
80000578:	00812a03          	lw	s4,8(sp)
8000057c:	00000513          	li	a0,0
80000580:	02010113          	addi	sp,sp,32
80000584:	00008067          	ret

80000588 <putd>:
80000588:	0c050063          	beqz	a0,80000648 <putd+0xc0>
8000058c:	fe010113          	addi	sp,sp,-32
80000590:	00912a23          	sw	s1,20(sp)
80000594:	01512223          	sw	s5,4(sp)
80000598:	00112e23          	sw	ra,28(sp)
8000059c:	00812c23          	sw	s0,24(sp)
800005a0:	01212823          	sw	s2,16(sp)
800005a4:	01312623          	sw	s3,12(sp)
800005a8:	01412423          	sw	s4,8(sp)
800005ac:	00050493          	mv	s1,a0
800005b0:	00058a93          	mv	s5,a1
800005b4:	08060063          	beqz	a2,80000634 <putd+0xac>
800005b8:	3b9ad7b7          	lui	a5,0x3b9ad
800005bc:	00a00413          	li	s0,10
800005c0:	00100a13          	li	s4,1
800005c4:	a0078793          	addi	a5,a5,-1536 # 3b9aca00 <__heap_size+0x379aca00>
800005c8:	00a00993          	li	s3,10
800005cc:	0240006f          	j	800005f0 <putd+0x68>
800005d0:	02f4f4b3          	remu	s1,s1,a5
800005d4:	00000a13          	li	s4,0
800005d8:	03050513          	addi	a0,a0,48
800005dc:	0ff57513          	andi	a0,a0,255
800005e0:	54d000ef          	jal	ra,8000132c <outbyte>
800005e4:	fff40413          	addi	s0,s0,-1
800005e8:	00090793          	mv	a5,s2
800005ec:	02040263          	beqz	s0,80000610 <putd+0x88>
800005f0:	02f4d533          	divu	a0,s1,a5
800005f4:	0337d933          	divu	s2,a5,s3
800005f8:	fc051ce3          	bnez	a0,800005d0 <putd+0x48>
800005fc:	fc0a0ee3          	beqz	s4,800005d8 <putd+0x50>
80000600:	fc0a9ce3          	bnez	s5,800005d8 <putd+0x50>
80000604:	fff40413          	addi	s0,s0,-1
80000608:	00090793          	mv	a5,s2
8000060c:	fe0412e3          	bnez	s0,800005f0 <putd+0x68>
80000610:	01c12083          	lw	ra,28(sp)
80000614:	01812403          	lw	s0,24(sp)
80000618:	01412483          	lw	s1,20(sp)
8000061c:	01012903          	lw	s2,16(sp)
80000620:	00c12983          	lw	s3,12(sp)
80000624:	00812a03          	lw	s4,8(sp)
80000628:	00412a83          	lw	s5,4(sp)
8000062c:	02010113          	addi	sp,sp,32
80000630:	00008067          	ret
80000634:	f80552e3          	bgez	a0,800005b8 <putd+0x30>
80000638:	02d00513          	li	a0,45
8000063c:	409004b3          	neg	s1,s1
80000640:	4ed000ef          	jal	ra,8000132c <outbyte>
80000644:	f75ff06f          	j	800005b8 <putd+0x30>
80000648:	03000513          	li	a0,48
8000064c:	4e10006f          	j	8000132c <outbyte>

80000650 <putx>:
80000650:	fd010113          	addi	sp,sp,-48
80000654:	01f5d793          	srli	a5,a1,0x1f
80000658:	03212023          	sw	s2,32(sp)
8000065c:	00f58933          	add	s2,a1,a5
80000660:	00197913          	andi	s2,s2,1
80000664:	40f90933          	sub	s2,s2,a5
80000668:	810007b7          	lui	a5,0x81000
8000066c:	36c78793          	addi	a5,a5,876 # 8100036c <__heap_start+0xfbfff4bc>
80000670:	00f12423          	sw	a5,8(sp)
80000674:	810007b7          	lui	a5,0x81000
80000678:	38078793          	addi	a5,a5,896 # 81000380 <__heap_start+0xfbfff4d0>
8000067c:	00291913          	slli	s2,s2,0x2
80000680:	00f12623          	sw	a5,12(sp)
80000684:	01010793          	addi	a5,sp,16
80000688:	02812423          	sw	s0,40(sp)
8000068c:	02912223          	sw	s1,36(sp)
80000690:	01312e23          	sw	s3,28(sp)
80000694:	01412c23          	sw	s4,24(sp)
80000698:	01512a23          	sw	s5,20(sp)
8000069c:	01612823          	sw	s6,16(sp)
800006a0:	02112623          	sw	ra,44(sp)
800006a4:	00050493          	mv	s1,a0
800006a8:	00060a93          	mv	s5,a2
800006ac:	01c00413          	li	s0,28
800006b0:	00100a13          	li	s4,1
800006b4:	01278933          	add	s2,a5,s2
800006b8:	02000b13          	li	s6,32
800006bc:	ffc00993          	li	s3,-4
800006c0:	0240006f          	j	800006e4 <putx+0x94>
800006c4:	00f6d4b3          	srl	s1,a3,a5
800006c8:	00000a13          	li	s4,0
800006cc:	ff892783          	lw	a5,-8(s2)
800006d0:	ffc40413          	addi	s0,s0,-4
800006d4:	00e787b3          	add	a5,a5,a4
800006d8:	0007c503          	lbu	a0,0(a5)
800006dc:	451000ef          	jal	ra,8000132c <outbyte>
800006e0:	03340263          	beq	s0,s3,80000704 <putx+0xb4>
800006e4:	408b07b3          	sub	a5,s6,s0
800006e8:	0084d733          	srl	a4,s1,s0
800006ec:	00f496b3          	sll	a3,s1,a5
800006f0:	fc071ae3          	bnez	a4,800006c4 <putx+0x74>
800006f4:	fc0a0ce3          	beqz	s4,800006cc <putx+0x7c>
800006f8:	fc0a9ae3          	bnez	s5,800006cc <putx+0x7c>
800006fc:	ffc40413          	addi	s0,s0,-4
80000700:	ff3412e3          	bne	s0,s3,800006e4 <putx+0x94>
80000704:	02c12083          	lw	ra,44(sp)
80000708:	02812403          	lw	s0,40(sp)
8000070c:	02412483          	lw	s1,36(sp)
80000710:	02012903          	lw	s2,32(sp)
80000714:	01c12983          	lw	s3,28(sp)
80000718:	01812a03          	lw	s4,24(sp)
8000071c:	01412a83          	lw	s5,20(sp)
80000720:	01012b03          	lw	s6,16(sp)
80000724:	03010113          	addi	sp,sp,48
80000728:	00008067          	ret

8000072c <putf>:
8000072c:	fe010113          	addi	sp,sp,-32
80000730:	00812c23          	sw	s0,24(sp)
80000734:	00912a23          	sw	s1,20(sp)
80000738:	00058413          	mv	s0,a1
8000073c:	00050493          	mv	s1,a0
80000740:	01312623          	sw	s3,12(sp)
80000744:	00048513          	mv	a0,s1
80000748:	00060993          	mv	s3,a2
8000074c:	00040593          	mv	a1,s0
80000750:	00000613          	li	a2,0
80000754:	00000693          	li	a3,0
80000758:	00112e23          	sw	ra,28(sp)
8000075c:	01212823          	sw	s2,16(sp)
80000760:	01412423          	sw	s4,8(sp)
80000764:	01612223          	sw	s6,4(sp)
80000768:	01712023          	sw	s7,0(sp)
8000076c:	524060ef          	jal	ra,80006c90 <__ledf2>
80000770:	10054e63          	bltz	a0,8000088c <putf+0x160>
80000774:	00040593          	mv	a1,s0
80000778:	00048513          	mv	a0,s1
8000077c:	380070ef          	jal	ra,80007afc <__fixdfsi>
80000780:	00050a13          	mv	s4,a0
80000784:	3f8070ef          	jal	ra,80007b7c <__floatsidf>
80000788:	00050613          	mv	a2,a0
8000078c:	00058693          	mv	a3,a1
80000790:	00048513          	mv	a0,s1
80000794:	00040593          	mv	a1,s0
80000798:	3a1060ef          	jal	ra,80007338 <__subdf3>
8000079c:	00050b13          	mv	s6,a0
800007a0:	00058b93          	mv	s7,a1
800007a4:	0f305e63          	blez	s3,800008a0 <putf+0x174>
800007a8:	00100413          	li	s0,1
800007ac:	00000913          	li	s2,0
800007b0:	0080006f          	j	800007b8 <putf+0x8c>
800007b4:	00048913          	mv	s2,s1
800007b8:	00241793          	slli	a5,s0,0x2
800007bc:	00878433          	add	s0,a5,s0
800007c0:	00190493          	addi	s1,s2,1
800007c4:	00141413          	slli	s0,s0,0x1
800007c8:	fe9996e3          	bne	s3,s1,800007b4 <putf+0x88>
800007cc:	00040513          	mv	a0,s0
800007d0:	3ac070ef          	jal	ra,80007b7c <__floatsidf>
800007d4:	000b0613          	mv	a2,s6
800007d8:	000b8693          	mv	a3,s7
800007dc:	59c060ef          	jal	ra,80006d78 <__muldf3>
800007e0:	800087b7          	lui	a5,0x80008
800007e4:	ca07a603          	lw	a2,-864(a5) # 80007ca0 <__heap_start+0xfb006df0>
800007e8:	ca47a683          	lw	a3,-860(a5)
800007ec:	4e5050ef          	jal	ra,800064d0 <__adddf3>
800007f0:	30c070ef          	jal	ra,80007afc <__fixdfsi>
800007f4:	028547b3          	div	a5,a0,s0
800007f8:	00050993          	mv	s3,a0
800007fc:	0c079463          	bnez	a5,800008c4 <putf+0x198>
80000800:	00048793          	mv	a5,s1
80000804:	00a00693          	li	a3,10
80000808:	00c0006f          	j	80000814 <putf+0xe8>
8000080c:	0289c733          	div	a4,s3,s0
80000810:	06071663          	bnez	a4,8000087c <putf+0x150>
80000814:	fff78793          	addi	a5,a5,-1
80000818:	02d44433          	div	s0,s0,a3
8000081c:	fe0798e3          	bnez	a5,8000080c <putf+0xe0>
80000820:	040a1463          	bnez	s4,80000868 <putf+0x13c>
80000824:	03000513          	li	a0,48
80000828:	305000ef          	jal	ra,8000132c <outbyte>
8000082c:	02e00513          	li	a0,46
80000830:	2fd000ef          	jal	ra,8000132c <outbyte>
80000834:	01812403          	lw	s0,24(sp)
80000838:	01c12083          	lw	ra,28(sp)
8000083c:	01412483          	lw	s1,20(sp)
80000840:	00812a03          	lw	s4,8(sp)
80000844:	00412b03          	lw	s6,4(sp)
80000848:	00012b83          	lw	s7,0(sp)
8000084c:	00090593          	mv	a1,s2
80000850:	00098513          	mv	a0,s3
80000854:	01012903          	lw	s2,16(sp)
80000858:	00c12983          	lw	s3,12(sp)
8000085c:	00100613          	li	a2,1
80000860:	02010113          	addi	sp,sp,32
80000864:	d25ff06f          	j	80000588 <putd>
80000868:	00100613          	li	a2,1
8000086c:	00000593          	li	a1,0
80000870:	000a0513          	mv	a0,s4
80000874:	d15ff0ef          	jal	ra,80000588 <putd>
80000878:	fb5ff06f          	j	8000082c <putf+0x100>
8000087c:	40f487b3          	sub	a5,s1,a5
80000880:	fff78913          	addi	s2,a5,-1
80000884:	fa0a00e3          	beqz	s4,80000824 <putf+0xf8>
80000888:	fe1ff06f          	j	80000868 <putf+0x13c>
8000088c:	800007b7          	lui	a5,0x80000
80000890:	02d00513          	li	a0,45
80000894:	0087c433          	xor	s0,a5,s0
80000898:	295000ef          	jal	ra,8000132c <outbyte>
8000089c:	ed9ff06f          	j	80000774 <putf+0x48>
800008a0:	800087b7          	lui	a5,0x80008
800008a4:	ca07a603          	lw	a2,-864(a5) # 80007ca0 <__heap_start+0xfb006df0>
800008a8:	ca47a683          	lw	a3,-860(a5)
800008ac:	fff00913          	li	s2,-1
800008b0:	421050ef          	jal	ra,800064d0 <__adddf3>
800008b4:	248070ef          	jal	ra,80007afc <__fixdfsi>
800008b8:	00050993          	mv	s3,a0
800008bc:	f60a04e3          	beqz	s4,80000824 <putf+0xf8>
800008c0:	fa9ff06f          	j	80000868 <putf+0x13c>
800008c4:	fff00913          	li	s2,-1
800008c8:	f40a0ee3          	beqz	s4,80000824 <putf+0xf8>
800008cc:	f9dff06f          	j	80000868 <putf+0x13c>

800008d0 <printf>:
800008d0:	f8010113          	addi	sp,sp,-128
800008d4:	03b12623          	sw	s11,44(sp)
800008d8:	06f12a23          	sw	a5,116(sp)
800008dc:	04112e23          	sw	ra,92(sp)
800008e0:	04812c23          	sw	s0,88(sp)
800008e4:	04912a23          	sw	s1,84(sp)
800008e8:	05212823          	sw	s2,80(sp)
800008ec:	05312623          	sw	s3,76(sp)
800008f0:	05412423          	sw	s4,72(sp)
800008f4:	05512223          	sw	s5,68(sp)
800008f8:	05612023          	sw	s6,64(sp)
800008fc:	03712e23          	sw	s7,60(sp)
80000900:	03812c23          	sw	s8,56(sp)
80000904:	03912a23          	sw	s9,52(sp)
80000908:	03a12823          	sw	s10,48(sp)
8000090c:	06b12223          	sw	a1,100(sp)
80000910:	06c12423          	sw	a2,104(sp)
80000914:	06d12623          	sw	a3,108(sp)
80000918:	06e12823          	sw	a4,112(sp)
8000091c:	07012c23          	sw	a6,120(sp)
80000920:	07112e23          	sw	a7,124(sp)
80000924:	06410793          	addi	a5,sp,100
80000928:	00050d93          	mv	s11,a0
8000092c:	00054503          	lbu	a0,0(a0)
80000930:	00f12e23          	sw	a5,28(sp)
80000934:	00600793          	li	a5,6
80000938:	00f12623          	sw	a5,12(sp)
8000093c:	12050063          	beqz	a0,80000a5c <printf+0x18c>
80000940:	81000937          	lui	s2,0x81000
80000944:	00000c93          	li	s9,0
80000948:	00000d13          	li	s10,0
8000094c:	02500493          	li	s1,37
80000950:	03000b93          	li	s7,48
80000954:	07500b13          	li	s6,117
80000958:	06c00a93          	li	s5,108
8000095c:	02e00a13          	li	s4,46
80000960:	02000993          	li	s3,32
80000964:	29090913          	addi	s2,s2,656 # 81000290 <__heap_start+0xfbfff3e0>
80000968:	01c0006f          	j	80000984 <printf+0xb4>
8000096c:	1c1000ef          	jal	ra,8000132c <outbyte>
80000970:	00040793          	mv	a5,s0
80000974:	000d8413          	mv	s0,s11
80000978:	00078d93          	mv	s11,a5
8000097c:	00144503          	lbu	a0,1(s0)
80000980:	0c050e63          	beqz	a0,80000a5c <printf+0x18c>
80000984:	001d8413          	addi	s0,s11,1
80000988:	fe9512e3          	bne	a0,s1,8000096c <printf+0x9c>
8000098c:	001dc703          	lbu	a4,1(s11)
80000990:	11770663          	beq	a4,s7,80000a9c <printf+0x1cc>
80000994:	fd070793          	addi	a5,a4,-48
80000998:	0ff7f793          	andi	a5,a5,255
8000099c:	00900693          	li	a3,9
800009a0:	00f6ee63          	bltu	a3,a5,800009bc <printf+0xec>
800009a4:	00900693          	li	a3,9
800009a8:	00140413          	addi	s0,s0,1
800009ac:	00044703          	lbu	a4,0(s0)
800009b0:	fd070793          	addi	a5,a4,-48
800009b4:	0ff7f793          	andi	a5,a5,255
800009b8:	fef6f8e3          	bleu	a5,a3,800009a8 <printf+0xd8>
800009bc:	01671663          	bne	a4,s6,800009c8 <printf+0xf8>
800009c0:	00140413          	addi	s0,s0,1
800009c4:	00100d13          	li	s10,1
800009c8:	00044503          	lbu	a0,0(s0)
800009cc:	03550463          	beq	a0,s5,800009f4 <printf+0x124>
800009d0:	03450863          	beq	a0,s4,80000a00 <printf+0x130>
800009d4:	fa850793          	addi	a5,a0,-88
800009d8:	0ff7f793          	andi	a5,a5,255
800009dc:	00140d93          	addi	s11,s0,1
800009e0:	06f9e863          	bltu	s3,a5,80000a50 <printf+0x180>
800009e4:	00279793          	slli	a5,a5,0x2
800009e8:	012787b3          	add	a5,a5,s2
800009ec:	0007a783          	lw	a5,0(a5)
800009f0:	00078067          	jr	a5
800009f4:	00144503          	lbu	a0,1(s0)
800009f8:	00140413          	addi	s0,s0,1
800009fc:	fd451ce3          	bne	a0,s4,800009d4 <printf+0x104>
80000a00:	00144c03          	lbu	s8,1(s0)
80000a04:	00a00693          	li	a3,10
80000a08:	00244503          	lbu	a0,2(s0)
80000a0c:	fd0c0c13          	addi	s8,s8,-48
80000a10:	02dc66b3          	rem	a3,s8,a3
80000a14:	fd050793          	addi	a5,a0,-48
80000a18:	0ff7f793          	andi	a5,a5,255
80000a1c:	00900713          	li	a4,9
80000a20:	00240413          	addi	s0,s0,2
80000a24:	00d12623          	sw	a3,12(sp)
80000a28:	faf766e3          	bltu	a4,a5,800009d4 <printf+0x104>
80000a2c:	00140413          	addi	s0,s0,1
80000a30:	00044503          	lbu	a0,0(s0)
80000a34:	fd050793          	addi	a5,a0,-48
80000a38:	0ff7f793          	andi	a5,a5,255
80000a3c:	fef778e3          	bleu	a5,a4,80000a2c <printf+0x15c>
80000a40:	fa850793          	addi	a5,a0,-88
80000a44:	0ff7f793          	andi	a5,a5,255
80000a48:	00140d93          	addi	s11,s0,1
80000a4c:	f8f9fce3          	bleu	a5,s3,800009e4 <printf+0x114>
80000a50:	0dd000ef          	jal	ra,8000132c <outbyte>
80000a54:	00144503          	lbu	a0,1(s0)
80000a58:	f20516e3          	bnez	a0,80000984 <printf+0xb4>
80000a5c:	05c12083          	lw	ra,92(sp)
80000a60:	05812403          	lw	s0,88(sp)
80000a64:	05412483          	lw	s1,84(sp)
80000a68:	05012903          	lw	s2,80(sp)
80000a6c:	04c12983          	lw	s3,76(sp)
80000a70:	04812a03          	lw	s4,72(sp)
80000a74:	04412a83          	lw	s5,68(sp)
80000a78:	04012b03          	lw	s6,64(sp)
80000a7c:	03c12b83          	lw	s7,60(sp)
80000a80:	03812c03          	lw	s8,56(sp)
80000a84:	03412c83          	lw	s9,52(sp)
80000a88:	03012d03          	lw	s10,48(sp)
80000a8c:	02c12d83          	lw	s11,44(sp)
80000a90:	00000513          	li	a0,0
80000a94:	08010113          	addi	sp,sp,128
80000a98:	00008067          	ret
80000a9c:	00100c93          	li	s9,1
80000aa0:	f05ff06f          	j	800009a4 <printf+0xd4>
80000aa4:	01c12783          	lw	a5,28(sp)
80000aa8:	000c8613          	mv	a2,s9
80000aac:	00000593          	li	a1,0
80000ab0:	0007a503          	lw	a0,0(a5)
80000ab4:	00478793          	addi	a5,a5,4
80000ab8:	00f12e23          	sw	a5,28(sp)
80000abc:	b95ff0ef          	jal	ra,80000650 <putx>
80000ac0:	ebdff06f          	j	8000097c <printf+0xac>
80000ac4:	01c12703          	lw	a4,28(sp)
80000ac8:	00072c03          	lw	s8,0(a4)
80000acc:	00470713          	addi	a4,a4,4
80000ad0:	00e12e23          	sw	a4,28(sp)
80000ad4:	000c4503          	lbu	a0,0(s8)
80000ad8:	ea0502e3          	beqz	a0,8000097c <printf+0xac>
80000adc:	001c0c13          	addi	s8,s8,1
80000ae0:	04d000ef          	jal	ra,8000132c <outbyte>
80000ae4:	000c4503          	lbu	a0,0(s8)
80000ae8:	fe051ae3          	bnez	a0,80000adc <printf+0x20c>
80000aec:	e91ff06f          	j	8000097c <printf+0xac>
80000af0:	01c12783          	lw	a5,28(sp)
80000af4:	00c12603          	lw	a2,12(sp)
80000af8:	00778793          	addi	a5,a5,7
80000afc:	ff87f793          	andi	a5,a5,-8
80000b00:	0007a503          	lw	a0,0(a5)
80000b04:	0047a583          	lw	a1,4(a5)
80000b08:	00878793          	addi	a5,a5,8
80000b0c:	00f12e23          	sw	a5,28(sp)
80000b10:	c1dff0ef          	jal	ra,8000072c <putf>
80000b14:	e69ff06f          	j	8000097c <printf+0xac>
80000b18:	01c12783          	lw	a5,28(sp)
80000b1c:	000d0613          	mv	a2,s10
80000b20:	00000593          	li	a1,0
80000b24:	0007a503          	lw	a0,0(a5)
80000b28:	00478793          	addi	a5,a5,4
80000b2c:	00f12e23          	sw	a5,28(sp)
80000b30:	a59ff0ef          	jal	ra,80000588 <putd>
80000b34:	e49ff06f          	j	8000097c <printf+0xac>
80000b38:	01c12783          	lw	a5,28(sp)
80000b3c:	000c8613          	mv	a2,s9
80000b40:	00100593          	li	a1,1
80000b44:	0007a503          	lw	a0,0(a5)
80000b48:	00478793          	addi	a5,a5,4
80000b4c:	00f12e23          	sw	a5,28(sp)
80000b50:	b01ff0ef          	jal	ra,80000650 <putx>
80000b54:	e29ff06f          	j	8000097c <printf+0xac>

80000b58 <exit>:
80000b58:	fe010113          	addi	sp,sp,-32
80000b5c:	00112e23          	sw	ra,28(sp)
80000b60:	00812c23          	sw	s0,24(sp)
80000b64:	02010413          	addi	s0,sp,32
80000b68:	fea42623          	sw	a0,-20(s0)
80000b6c:	fec42583          	lw	a1,-20(s0)
80000b70:	810007b7          	lui	a5,0x81000
80000b74:	39478513          	addi	a0,a5,916 # 81000394 <__heap_start+0xfbfff4e4>
80000b78:	d59ff0ef          	jal	ra,800008d0 <printf>
80000b7c:	810007b7          	lui	a5,0x81000
80000b80:	3bc78513          	addi	a0,a5,956 # 810003bc <__heap_start+0xfbfff50c>
80000b84:	d4dff0ef          	jal	ra,800008d0 <printf>
80000b88:	810007b7          	lui	a5,0x81000
80000b8c:	3fc78513          	addi	a0,a5,1020 # 810003fc <__heap_start+0xfbfff54c>
80000b90:	d41ff0ef          	jal	ra,800008d0 <printf>
80000b94:	810007b7          	lui	a5,0x81000
80000b98:	42878513          	addi	a0,a5,1064 # 81000428 <__heap_start+0xfbfff578>
80000b9c:	d35ff0ef          	jal	ra,800008d0 <printf>
80000ba0:	00300513          	li	a0,3
80000ba4:	875ff0ef          	jal	ra,80000418 <putchar>
80000ba8:	0000006f          	j	80000ba8 <exit+0x50>

80000bac <srand>:
80000bac:	810007b7          	lui	a5,0x81000
80000bb0:	62a7a423          	sw	a0,1576(a5) # 81000628 <__heap_start+0xfbfff778>
80000bb4:	00008067          	ret

80000bb8 <rand>:
80000bb8:	810006b7          	lui	a3,0x81000
80000bbc:	6286a783          	lw	a5,1576(a3) # 81000628 <__heap_start+0xfbfff778>
80000bc0:	00034737          	lui	a4,0x34
80000bc4:	3fd70713          	addi	a4,a4,1021 # 343fd <__stack_size+0x33bfd>
80000bc8:	02e787b3          	mul	a5,a5,a4
80000bcc:	0026a737          	lui	a4,0x26a
80000bd0:	ec370713          	addi	a4,a4,-317 # 269ec3 <__stack_size+0x2696c3>
80000bd4:	00e787b3          	add	a5,a5,a4
80000bd8:	00179513          	slli	a0,a5,0x1
80000bdc:	62f6a423          	sw	a5,1576(a3)
80000be0:	01155513          	srli	a0,a0,0x11
80000be4:	00008067          	ret

80000be8 <malloc>:
80000be8:	810008b7          	lui	a7,0x81000
80000bec:	81000737          	lui	a4,0x81000
80000bf0:	6308a783          	lw	a5,1584(a7) # 81000630 <__heap_start+0xfbfff780>
80000bf4:	62c72583          	lw	a1,1580(a4) # 8100062c <__heap_start+0xfbfff77c>
80000bf8:	0ab78063          	beq	a5,a1,80000c98 <malloc+0xb0>
80000bfc:	00078813          	mv	a6,a5
80000c00:	02b7f063          	bleu	a1,a5,80000c20 <malloc+0x38>
80000c04:	0007a703          	lw	a4,0(a5)
80000c08:	00177693          	andi	a3,a4,1
80000c0c:	40f70633          	sub	a2,a4,a5
80000c10:	00069463          	bnez	a3,80000c18 <malloc+0x30>
80000c14:	04c56063          	bltu	a0,a2,80000c54 <malloc+0x6c>
80000c18:	ffe77793          	andi	a5,a4,-2
80000c1c:	feb7e4e3          	bltu	a5,a1,80000c04 <malloc+0x1c>
80000c20:	800087b7          	lui	a5,0x80008
80000c24:	cac7a783          	lw	a5,-852(a5) # 80007cac <__heap_start+0xfb006dfc>
80000c28:	0307f063          	bleu	a6,a5,80000c48 <malloc+0x60>
80000c2c:	0007a703          	lw	a4,0(a5)
80000c30:	00177613          	andi	a2,a4,1
80000c34:	40f706b3          	sub	a3,a4,a5
80000c38:	00061463          	bnez	a2,80000c40 <malloc+0x58>
80000c3c:	08d56c63          	bltu	a0,a3,80000cd4 <malloc+0xec>
80000c40:	ffe77793          	andi	a5,a4,-2
80000c44:	ff07e4e3          	bltu	a5,a6,80000c2c <malloc+0x44>
80000c48:	00000593          	li	a1,0
80000c4c:	00058513          	mv	a0,a1
80000c50:	00008067          	ret
80000c54:	ffe7f613          	andi	a2,a5,-2
80000c58:	00357813          	andi	a6,a0,3
80000c5c:	00460593          	addi	a1,a2,4
80000c60:	06081463          	bnez	a6,80000cc8 <malloc+0xe0>
80000c64:	00450813          	addi	a6,a0,4
80000c68:	00d80833          	add	a6,a6,a3
80000c6c:	ffc87813          	andi	a6,a6,-4
80000c70:	01078833          	add	a6,a5,a6
80000c74:	6308a823          	sw	a6,1584(a7)
80000c78:	00e80463          	beq	a6,a4,80000c80 <malloc+0x98>
80000c7c:	00e82023          	sw	a4,0(a6)
80000c80:	00186713          	ori	a4,a6,1
80000c84:	00e7a023          	sw	a4,0(a5)
80000c88:	ffc00793          	li	a5,-4
80000c8c:	f8f60ae3          	beq	a2,a5,80000c20 <malloc+0x38>
80000c90:	00058513          	mv	a0,a1
80000c94:	00008067          	ret
80000c98:	800087b7          	lui	a5,0x80008
80000c9c:	800086b7          	lui	a3,0x80008
80000ca0:	cac7a783          	lw	a5,-852(a5) # 80007cac <__heap_start+0xfb006dfc>
80000ca4:	ca86a583          	lw	a1,-856(a3) # 80007ca8 <__heap_start+0xfb006df8>
80000ca8:	62f8a823          	sw	a5,1584(a7)
80000cac:	00b785b3          	add	a1,a5,a1
80000cb0:	ff05f593          	andi	a1,a1,-16
80000cb4:	62b72623          	sw	a1,1580(a4)
80000cb8:	00b7a023          	sw	a1,0(a5)
80000cbc:	00078813          	mv	a6,a5
80000cc0:	f4b7e2e3          	bltu	a5,a1,80000c04 <malloc+0x1c>
80000cc4:	f85ff06f          	j	80000c48 <malloc+0x60>
80000cc8:	00400693          	li	a3,4
80000ccc:	410686b3          	sub	a3,a3,a6
80000cd0:	f95ff06f          	j	80000c64 <malloc+0x7c>
80000cd4:	ffe7f593          	andi	a1,a5,-2
80000cd8:	00357813          	andi	a6,a0,3
80000cdc:	00458593          	addi	a1,a1,4
80000ce0:	00080663          	beqz	a6,80000cec <malloc+0x104>
80000ce4:	00400693          	li	a3,4
80000ce8:	41068633          	sub	a2,a3,a6
80000cec:	00450693          	addi	a3,a0,4
80000cf0:	00c686b3          	add	a3,a3,a2
80000cf4:	ffc6f693          	andi	a3,a3,-4
80000cf8:	00d786b3          	add	a3,a5,a3
80000cfc:	62d8a823          	sw	a3,1584(a7)
80000d00:	00e68463          	beq	a3,a4,80000d08 <malloc+0x120>
80000d04:	00e6a023          	sw	a4,0(a3)
80000d08:	0016e693          	ori	a3,a3,1
80000d0c:	00d7a023          	sw	a3,0(a5)
80000d10:	00058513          	mv	a0,a1
80000d14:	00008067          	ret

80000d18 <free>:
80000d18:	ffc52783          	lw	a5,-4(a0)
80000d1c:	ffe7f793          	andi	a5,a5,-2
80000d20:	fef52e23          	sw	a5,-4(a0)
80000d24:	0007a783          	lw	a5,0(a5)
80000d28:	0017f713          	andi	a4,a5,1
80000d2c:	00071a63          	bnez	a4,80000d40 <free+0x28>
80000d30:	ffc50713          	addi	a4,a0,-4
80000d34:	fef52e23          	sw	a5,-4(a0)
80000d38:	810007b7          	lui	a5,0x81000
80000d3c:	62e7a823          	sw	a4,1584(a5) # 81000630 <__heap_start+0xfbfff780>
80000d40:	00008067          	ret

80000d44 <calloc>:
80000d44:	ff010113          	addi	sp,sp,-16
80000d48:	00912423          	sw	s1,8(sp)
80000d4c:	02b504b3          	mul	s1,a0,a1
80000d50:	00112623          	sw	ra,12(sp)
80000d54:	01212223          	sw	s2,4(sp)
80000d58:	00048513          	mv	a0,s1
80000d5c:	e8dff0ef          	jal	ra,80000be8 <malloc>
80000d60:	00048613          	mv	a2,s1
80000d64:	00000593          	li	a1,0
80000d68:	00050913          	mv	s2,a0
80000d6c:	4bc000ef          	jal	ra,80001228 <memset>
80000d70:	00c12083          	lw	ra,12(sp)
80000d74:	00090513          	mv	a0,s2
80000d78:	00812483          	lw	s1,8(sp)
80000d7c:	00412903          	lw	s2,4(sp)
80000d80:	01010113          	addi	sp,sp,16
80000d84:	00008067          	ret

80000d88 <atoi>:
80000d88:	00050793          	mv	a5,a0
80000d8c:	02000693          	li	a3,32
80000d90:	00900613          	li	a2,9
80000d94:	0007c703          	lbu	a4,0(a5)
80000d98:	00d70463          	beq	a4,a3,80000da0 <atoi+0x18>
80000d9c:	00c71663          	bne	a4,a2,80000da8 <atoi+0x20>
80000da0:	00178793          	addi	a5,a5,1
80000da4:	ff1ff06f          	j	80000d94 <atoi+0xc>
80000da8:	02d00693          	li	a3,45
80000dac:	00100893          	li	a7,1
80000db0:	00d71863          	bne	a4,a3,80000dc0 <atoi+0x38>
80000db4:	0017c703          	lbu	a4,1(a5)
80000db8:	fff00893          	li	a7,-1
80000dbc:	00178793          	addi	a5,a5,1
80000dc0:	fd070713          	addi	a4,a4,-48
80000dc4:	0ff77613          	andi	a2,a4,255
80000dc8:	00900693          	li	a3,9
80000dcc:	00000513          	li	a0,0
80000dd0:	04c6ec63          	bltu	a3,a2,80000e28 <atoi+0xa0>
80000dd4:	0017c603          	lbu	a2,1(a5)
80000dd8:	00178793          	addi	a5,a5,1
80000ddc:	04060063          	beqz	a2,80000e1c <atoi+0x94>
80000de0:	fd060593          	addi	a1,a2,-48
80000de4:	0ff5f613          	andi	a2,a1,255
80000de8:	00900813          	li	a6,9
80000dec:	00c6f663          	bleu	a2,a3,80000df8 <atoi+0x70>
80000df0:	03c0006f          	j	80000e2c <atoi+0xa4>
80000df4:	02d86863          	bltu	a6,a3,80000e24 <atoi+0x9c>
80000df8:	00178793          	addi	a5,a5,1
80000dfc:	00271693          	slli	a3,a4,0x2
80000e00:	0007c603          	lbu	a2,0(a5)
80000e04:	00e68733          	add	a4,a3,a4
80000e08:	00171713          	slli	a4,a4,0x1
80000e0c:	00e58733          	add	a4,a1,a4
80000e10:	fd060593          	addi	a1,a2,-48
80000e14:	0ff5f693          	andi	a3,a1,255
80000e18:	fc061ee3          	bnez	a2,80000df4 <atoi+0x6c>
80000e1c:	02e88533          	mul	a0,a7,a4
80000e20:	00008067          	ret
80000e24:	00000513          	li	a0,0
80000e28:	00008067          	ret
80000e2c:	00008067          	ret

80000e30 <abs>:
80000e30:	41f55793          	srai	a5,a0,0x1f
80000e34:	00a7c533          	xor	a0,a5,a0
80000e38:	40f50533          	sub	a0,a0,a5
80000e3c:	00008067          	ret

80000e40 <strcpy>:
80000e40:	00a5e733          	or	a4,a1,a0
80000e44:	00377713          	andi	a4,a4,3
80000e48:	00050793          	mv	a5,a0
80000e4c:	04071a63          	bnez	a4,80000ea0 <strcpy+0x60>
80000e50:	0005a683          	lw	a3,0(a1)
80000e54:	feff08b7          	lui	a7,0xfeff0
80000e58:	eff88893          	addi	a7,a7,-257 # fefefeff <__heap_start+0x79fef04f>
80000e5c:	011687b3          	add	a5,a3,a7
80000e60:	fff6c713          	not	a4,a3
80000e64:	80808837          	lui	a6,0x80808
80000e68:	00e7f7b3          	and	a5,a5,a4
80000e6c:	08080813          	addi	a6,a6,128 # 80808080 <__heap_start+0xfb8071d0>
80000e70:	0107f7b3          	and	a5,a5,a6
80000e74:	04079263          	bnez	a5,80000eb8 <strcpy+0x78>
80000e78:	00050793          	mv	a5,a0
80000e7c:	00478793          	addi	a5,a5,4
80000e80:	00458593          	addi	a1,a1,4
80000e84:	fed7ae23          	sw	a3,-4(a5)
80000e88:	0005a683          	lw	a3,0(a1)
80000e8c:	01168733          	add	a4,a3,a7
80000e90:	fff6c613          	not	a2,a3
80000e94:	00c77733          	and	a4,a4,a2
80000e98:	01077733          	and	a4,a4,a6
80000e9c:	fe0700e3          	beqz	a4,80000e7c <strcpy+0x3c>
80000ea0:	00158593          	addi	a1,a1,1
80000ea4:	fff5c703          	lbu	a4,-1(a1)
80000ea8:	00178793          	addi	a5,a5,1
80000eac:	fee78fa3          	sb	a4,-1(a5)
80000eb0:	fe0718e3          	bnez	a4,80000ea0 <strcpy+0x60>
80000eb4:	00008067          	ret
80000eb8:	00050793          	mv	a5,a0
80000ebc:	fe5ff06f          	j	80000ea0 <strcpy+0x60>

80000ec0 <strcmp>:
80000ec0:	00b567b3          	or	a5,a0,a1
80000ec4:	0037f793          	andi	a5,a5,3
80000ec8:	06079063          	bnez	a5,80000f28 <strcmp+0x68>
80000ecc:	00052703          	lw	a4,0(a0)
80000ed0:	0005a783          	lw	a5,0(a1)
80000ed4:	04e79a63          	bne	a5,a4,80000f28 <strcmp+0x68>
80000ed8:	feff08b7          	lui	a7,0xfeff0
80000edc:	eff88893          	addi	a7,a7,-257 # fefefeff <__heap_start+0x79fef04f>
80000ee0:	01178733          	add	a4,a5,a7
80000ee4:	80808837          	lui	a6,0x80808
80000ee8:	fff7c793          	not	a5,a5
80000eec:	00f777b3          	and	a5,a4,a5
80000ef0:	08080813          	addi	a6,a6,128 # 80808080 <__heap_start+0xfb8071d0>
80000ef4:	0107f7b3          	and	a5,a5,a6
80000ef8:	00078663          	beqz	a5,80000f04 <strcmp+0x44>
80000efc:	05c0006f          	j	80000f58 <strcmp+0x98>
80000f00:	04079c63          	bnez	a5,80000f58 <strcmp+0x98>
80000f04:	00450513          	addi	a0,a0,4
80000f08:	00052703          	lw	a4,0(a0)
80000f0c:	00458593          	addi	a1,a1,4
80000f10:	0005a683          	lw	a3,0(a1)
80000f14:	011707b3          	add	a5,a4,a7
80000f18:	fff74613          	not	a2,a4
80000f1c:	00c7f7b3          	and	a5,a5,a2
80000f20:	0107f7b3          	and	a5,a5,a6
80000f24:	fcd70ee3          	beq	a4,a3,80000f00 <strcmp+0x40>
80000f28:	00054783          	lbu	a5,0(a0)
80000f2c:	0005c703          	lbu	a4,0(a1)
80000f30:	00078e63          	beqz	a5,80000f4c <strcmp+0x8c>
80000f34:	00e79e63          	bne	a5,a4,80000f50 <strcmp+0x90>
80000f38:	00150513          	addi	a0,a0,1
80000f3c:	00054783          	lbu	a5,0(a0)
80000f40:	00158593          	addi	a1,a1,1
80000f44:	0005c703          	lbu	a4,0(a1)
80000f48:	fe0796e3          	bnez	a5,80000f34 <strcmp+0x74>
80000f4c:	00000793          	li	a5,0
80000f50:	40e78533          	sub	a0,a5,a4
80000f54:	00008067          	ret
80000f58:	00000513          	li	a0,0
80000f5c:	00008067          	ret

80000f60 <strncpy>:
80000f60:	00a5e733          	or	a4,a1,a0
80000f64:	00377713          	andi	a4,a4,3
80000f68:	00050793          	mv	a5,a0
80000f6c:	06071663          	bnez	a4,80000fd8 <strncpy+0x78>
80000f70:	0005a683          	lw	a3,0(a1)
80000f74:	feff0337          	lui	t1,0xfeff0
80000f78:	eff30313          	addi	t1,t1,-257 # fefefeff <__heap_start+0x79fef04f>
80000f7c:	fff6c793          	not	a5,a3
80000f80:	00668733          	add	a4,a3,t1
80000f84:	808088b7          	lui	a7,0x80808
80000f88:	00e7f7b3          	and	a5,a5,a4
80000f8c:	08088893          	addi	a7,a7,128 # 80808080 <__heap_start+0xfb8071d0>
80000f90:	0117f7b3          	and	a5,a5,a7
80000f94:	08079263          	bnez	a5,80001018 <strncpy+0xb8>
80000f98:	00400793          	li	a5,4
80000f9c:	06c7fe63          	bleu	a2,a5,80001018 <strncpy+0xb8>
80000fa0:	00050793          	mv	a5,a0
80000fa4:	00400e13          	li	t3,4
80000fa8:	0080006f          	j	80000fb0 <strncpy+0x50>
80000fac:	02ce7663          	bleu	a2,t3,80000fd8 <strncpy+0x78>
80000fb0:	00478793          	addi	a5,a5,4
80000fb4:	fed7ae23          	sw	a3,-4(a5)
80000fb8:	00458593          	addi	a1,a1,4
80000fbc:	0005a683          	lw	a3,0(a1)
80000fc0:	ffc60613          	addi	a2,a2,-4
80000fc4:	00668733          	add	a4,a3,t1
80000fc8:	fff6c813          	not	a6,a3
80000fcc:	01077733          	and	a4,a4,a6
80000fd0:	01177733          	and	a4,a4,a7
80000fd4:	fc070ce3          	beqz	a4,80000fac <strncpy+0x4c>
80000fd8:	00160693          	addi	a3,a2,1
80000fdc:	00b686b3          	add	a3,a3,a1
80000fe0:	00b60633          	add	a2,a2,a1
80000fe4:	0080006f          	j	80000fec <strncpy+0x8c>
80000fe8:	02d58463          	beq	a1,a3,80001010 <strncpy+0xb0>
80000fec:	40b60833          	sub	a6,a2,a1
80000ff0:	00158593          	addi	a1,a1,1
80000ff4:	fff5c703          	lbu	a4,-1(a1)
80000ff8:	00178793          	addi	a5,a5,1
80000ffc:	fee78fa3          	sb	a4,-1(a5)
80001000:	fe0714e3          	bnez	a4,80000fe8 <strncpy+0x88>
80001004:	fff00713          	li	a4,-1
80001008:	00e80463          	beq	a6,a4,80001010 <strncpy+0xb0>
8000100c:	00008067          	ret
80001010:	00078023          	sb	zero,0(a5)
80001014:	00008067          	ret
80001018:	00050793          	mv	a5,a0
8000101c:	fbdff06f          	j	80000fd8 <strncpy+0x78>

80001020 <strncmp>:
80001020:	00b567b3          	or	a5,a0,a1
80001024:	0037f793          	andi	a5,a5,3
80001028:	06079a63          	bnez	a5,8000109c <strncmp+0x7c>
8000102c:	00052703          	lw	a4,0(a0)
80001030:	0005a783          	lw	a5,0(a1)
80001034:	06e79463          	bne	a5,a4,8000109c <strncmp+0x7c>
80001038:	00400713          	li	a4,4
8000103c:	06c77063          	bleu	a2,a4,8000109c <strncmp+0x7c>
80001040:	feff0337          	lui	t1,0xfeff0
80001044:	eff30313          	addi	t1,t1,-257 # fefefeff <__heap_start+0x79fef04f>
80001048:	00678733          	add	a4,a5,t1
8000104c:	808088b7          	lui	a7,0x80808
80001050:	fff7c793          	not	a5,a5
80001054:	00f777b3          	and	a5,a4,a5
80001058:	08088893          	addi	a7,a7,128 # 80808080 <__heap_start+0xfb8071d0>
8000105c:	0117f7b3          	and	a5,a5,a7
80001060:	08079663          	bnez	a5,800010ec <strncmp+0xcc>
80001064:	00400e13          	li	t3,4
80001068:	00c0006f          	j	80001074 <strncmp+0x54>
8000106c:	02ce7863          	bleu	a2,t3,8000109c <strncmp+0x7c>
80001070:	06079e63          	bnez	a5,800010ec <strncmp+0xcc>
80001074:	00450513          	addi	a0,a0,4
80001078:	00052703          	lw	a4,0(a0)
8000107c:	00458593          	addi	a1,a1,4
80001080:	0005a683          	lw	a3,0(a1)
80001084:	006707b3          	add	a5,a4,t1
80001088:	fff74813          	not	a6,a4
8000108c:	0107f7b3          	and	a5,a5,a6
80001090:	ffc60613          	addi	a2,a2,-4
80001094:	0117f7b3          	and	a5,a5,a7
80001098:	fcd70ae3          	beq	a4,a3,8000106c <strncmp+0x4c>
8000109c:	fff60613          	addi	a2,a2,-1
800010a0:	00054703          	lbu	a4,0(a0)
800010a4:	0005c803          	lbu	a6,0(a1)
800010a8:	02060e63          	beqz	a2,800010e4 <strncmp+0xc4>
800010ac:	02070c63          	beqz	a4,800010e4 <strncmp+0xc4>
800010b0:	00150793          	addi	a5,a0,1
800010b4:	00c50633          	add	a2,a0,a2
800010b8:	01070e63          	beq	a4,a6,800010d4 <strncmp+0xb4>
800010bc:	0280006f          	j	800010e4 <strncmp+0xc4>
800010c0:	02070063          	beqz	a4,800010e0 <strncmp+0xc0>
800010c4:	0006c803          	lbu	a6,0(a3)
800010c8:	00178793          	addi	a5,a5,1
800010cc:	00068593          	mv	a1,a3
800010d0:	00e81a63          	bne	a6,a4,800010e4 <strncmp+0xc4>
800010d4:	0007c703          	lbu	a4,0(a5)
800010d8:	00158693          	addi	a3,a1,1
800010dc:	fef612e3          	bne	a2,a5,800010c0 <strncmp+0xa0>
800010e0:	0015c803          	lbu	a6,1(a1)
800010e4:	41070533          	sub	a0,a4,a6
800010e8:	00008067          	ret
800010ec:	00000513          	li	a0,0
800010f0:	00008067          	ret

800010f4 <memcpy>:
800010f4:	00a5e733          	or	a4,a1,a0
800010f8:	00377713          	andi	a4,a4,3
800010fc:	00050793          	mv	a5,a0
80001100:	06071663          	bnez	a4,8000116c <memcpy+0x78>
80001104:	0005a683          	lw	a3,0(a1)
80001108:	feff0337          	lui	t1,0xfeff0
8000110c:	eff30313          	addi	t1,t1,-257 # fefefeff <__heap_start+0x79fef04f>
80001110:	fff6c793          	not	a5,a3
80001114:	00668733          	add	a4,a3,t1
80001118:	808088b7          	lui	a7,0x80808
8000111c:	00e7f7b3          	and	a5,a5,a4
80001120:	08088893          	addi	a7,a7,128 # 80808080 <__heap_start+0xfb8071d0>
80001124:	0117f7b3          	and	a5,a5,a7
80001128:	08079263          	bnez	a5,800011ac <memcpy+0xb8>
8000112c:	00400793          	li	a5,4
80001130:	06c7fe63          	bleu	a2,a5,800011ac <memcpy+0xb8>
80001134:	00050793          	mv	a5,a0
80001138:	00400e13          	li	t3,4
8000113c:	0080006f          	j	80001144 <memcpy+0x50>
80001140:	02ce7663          	bleu	a2,t3,8000116c <memcpy+0x78>
80001144:	00478793          	addi	a5,a5,4
80001148:	fed7ae23          	sw	a3,-4(a5)
8000114c:	00458593          	addi	a1,a1,4
80001150:	0005a683          	lw	a3,0(a1)
80001154:	ffc60613          	addi	a2,a2,-4
80001158:	00668733          	add	a4,a3,t1
8000115c:	fff6c813          	not	a6,a3
80001160:	01077733          	and	a4,a4,a6
80001164:	01177733          	and	a4,a4,a7
80001168:	fc070ce3          	beqz	a4,80001140 <memcpy+0x4c>
8000116c:	00160693          	addi	a3,a2,1
80001170:	00b686b3          	add	a3,a3,a1
80001174:	00b60633          	add	a2,a2,a1
80001178:	0080006f          	j	80001180 <memcpy+0x8c>
8000117c:	02d58463          	beq	a1,a3,800011a4 <memcpy+0xb0>
80001180:	40b60833          	sub	a6,a2,a1
80001184:	00158593          	addi	a1,a1,1
80001188:	fff5c703          	lbu	a4,-1(a1)
8000118c:	00178793          	addi	a5,a5,1
80001190:	fee78fa3          	sb	a4,-1(a5)
80001194:	fe0714e3          	bnez	a4,8000117c <memcpy+0x88>
80001198:	fff00713          	li	a4,-1
8000119c:	00e80463          	beq	a6,a4,800011a4 <memcpy+0xb0>
800011a0:	00008067          	ret
800011a4:	00078023          	sb	zero,0(a5)
800011a8:	00008067          	ret
800011ac:	00050793          	mv	a5,a0
800011b0:	fbdff06f          	j	8000116c <memcpy+0x78>

800011b4 <memmove>:
800011b4:	ff010113          	addi	sp,sp,-16
800011b8:	00812423          	sw	s0,8(sp)
800011bc:	00112623          	sw	ra,12(sp)
800011c0:	00050413          	mv	s0,a0
800011c4:	04b56463          	bltu	a0,a1,8000120c <memmove+0x58>
800011c8:	00c587b3          	add	a5,a1,a2
800011cc:	04a7e063          	bltu	a5,a0,8000120c <memmove+0x58>
800011d0:	04060263          	beqz	a2,80001214 <memmove+0x60>
800011d4:	fff60613          	addi	a2,a2,-1
800011d8:	00c507b3          	add	a5,a0,a2
800011dc:	00c585b3          	add	a1,a1,a2
800011e0:	fff50693          	addi	a3,a0,-1
800011e4:	fff58593          	addi	a1,a1,-1
800011e8:	0015c703          	lbu	a4,1(a1)
800011ec:	fff78793          	addi	a5,a5,-1
800011f0:	00e780a3          	sb	a4,1(a5)
800011f4:	fed798e3          	bne	a5,a3,800011e4 <memmove+0x30>
800011f8:	00040513          	mv	a0,s0
800011fc:	00c12083          	lw	ra,12(sp)
80001200:	00812403          	lw	s0,8(sp)
80001204:	01010113          	addi	sp,sp,16
80001208:	00008067          	ret
8000120c:	00040513          	mv	a0,s0
80001210:	ee5ff0ef          	jal	ra,800010f4 <memcpy>
80001214:	00040513          	mv	a0,s0
80001218:	00c12083          	lw	ra,12(sp)
8000121c:	00812403          	lw	s0,8(sp)
80001220:	01010113          	addi	sp,sp,16
80001224:	00008067          	ret

80001228 <memset>:
80001228:	0ff5f593          	andi	a1,a1,255
8000122c:	00c50733          	add	a4,a0,a2
80001230:	00050793          	mv	a5,a0
80001234:	00060863          	beqz	a2,80001244 <memset+0x1c>
80001238:	00178793          	addi	a5,a5,1
8000123c:	feb78fa3          	sb	a1,-1(a5)
80001240:	fee79ce3          	bne	a5,a4,80001238 <memset+0x10>
80001244:	00008067          	ret

80001248 <strlen>:
80001248:	00054783          	lbu	a5,0(a0)
8000124c:	02078063          	beqz	a5,8000126c <strlen+0x24>
80001250:	00000793          	li	a5,0
80001254:	00178793          	addi	a5,a5,1
80001258:	00f50733          	add	a4,a0,a5
8000125c:	00074703          	lbu	a4,0(a4)
80001260:	fe071ae3          	bnez	a4,80001254 <strlen+0xc>
80001264:	00078513          	mv	a0,a5
80001268:	00008067          	ret
8000126c:	00000793          	li	a5,0
80001270:	00078513          	mv	a0,a5
80001274:	00008067          	ret

80001278 <strcat>:
80001278:	00054783          	lbu	a5,0(a0)
8000127c:	02078c63          	beqz	a5,800012b4 <strcat+0x3c>
80001280:	00050793          	mv	a5,a0
80001284:	00178793          	addi	a5,a5,1
80001288:	0007c703          	lbu	a4,0(a5)
8000128c:	fe071ce3          	bnez	a4,80001284 <strcat+0xc>
80001290:	0005c703          	lbu	a4,0(a1)
80001294:	00070c63          	beqz	a4,800012ac <strcat+0x34>
80001298:	00178793          	addi	a5,a5,1
8000129c:	00158593          	addi	a1,a1,1
800012a0:	fee78fa3          	sb	a4,-1(a5)
800012a4:	0005c703          	lbu	a4,0(a1)
800012a8:	fe0718e3          	bnez	a4,80001298 <strcat+0x20>
800012ac:	00078023          	sb	zero,0(a5)
800012b0:	00008067          	ret
800012b4:	00050793          	mv	a5,a0
800012b8:	fedff06f          	j	800012a4 <strcat+0x2c>

800012bc <strncat>:
800012bc:	00054783          	lbu	a5,0(a0)
800012c0:	04078463          	beqz	a5,80001308 <strncat+0x4c>
800012c4:	00050793          	mv	a5,a0
800012c8:	00178793          	addi	a5,a5,1
800012cc:	0007c703          	lbu	a4,0(a5)
800012d0:	fe071ce3          	bnez	a4,800012c8 <strncat+0xc>
800012d4:	0005c703          	lbu	a4,0(a1)
800012d8:	02070463          	beqz	a4,80001300 <strncat+0x44>
800012dc:	02060263          	beqz	a2,80001300 <strncat+0x44>
800012e0:	00c58633          	add	a2,a1,a2
800012e4:	0080006f          	j	800012ec <strncat+0x30>
800012e8:	00b60c63          	beq	a2,a1,80001300 <strncat+0x44>
800012ec:	00178793          	addi	a5,a5,1
800012f0:	00158593          	addi	a1,a1,1
800012f4:	fee78fa3          	sb	a4,-1(a5)
800012f8:	0005c703          	lbu	a4,0(a1)
800012fc:	fe0716e3          	bnez	a4,800012e8 <strncat+0x2c>
80001300:	00078023          	sb	zero,0(a5)
80001304:	00008067          	ret
80001308:	00050793          	mv	a5,a0
8000130c:	fc9ff06f          	j	800012d4 <strncat+0x18>

80001310 <inbyte>:
80001310:	c0000737          	lui	a4,0xc0000
80001314:	00872783          	lw	a5,8(a4) # c0000008 <__heap_start+0x3afff158>
80001318:	0017f793          	andi	a5,a5,1
8000131c:	fe078ce3          	beqz	a5,80001314 <inbyte+0x4>
80001320:	00072503          	lw	a0,0(a4)
80001324:	0ff57513          	andi	a0,a0,255
80001328:	00008067          	ret

8000132c <outbyte>:
8000132c:	00a00793          	li	a5,10
80001330:	00f50e63          	beq	a0,a5,8000134c <outbyte+0x20>
80001334:	c0000737          	lui	a4,0xc0000
80001338:	00872783          	lw	a5,8(a4) # c0000008 <__heap_start+0x3afff158>
8000133c:	0087f793          	andi	a5,a5,8
80001340:	fe079ce3          	bnez	a5,80001338 <outbyte+0xc>
80001344:	00a72223          	sw	a0,4(a4)
80001348:	00008067          	ret
8000134c:	c0000737          	lui	a4,0xc0000
80001350:	00872783          	lw	a5,8(a4) # c0000008 <__heap_start+0x3afff158>
80001354:	0087f793          	andi	a5,a5,8
80001358:	fe079ce3          	bnez	a5,80001350 <outbyte+0x24>
8000135c:	00d00793          	li	a5,13
80001360:	00f72223          	sw	a5,4(a4)
80001364:	fd1ff06f          	j	80001334 <outbyte+0x8>

80001368 <vListInitialise>:
80001368:	00850793          	addi	a5,a0,8
8000136c:	fff00713          	li	a4,-1
80001370:	00f52223          	sw	a5,4(a0)
80001374:	00e52423          	sw	a4,8(a0)
80001378:	00f52623          	sw	a5,12(a0)
8000137c:	00f52823          	sw	a5,16(a0)
80001380:	00052023          	sw	zero,0(a0)
80001384:	00008067          	ret

80001388 <vListInitialiseItem>:
80001388:	00052823          	sw	zero,16(a0)
8000138c:	00008067          	ret

80001390 <vListInsertEnd>:
80001390:	00452783          	lw	a5,4(a0)
80001394:	00052703          	lw	a4,0(a0)
80001398:	0087a683          	lw	a3,8(a5)
8000139c:	00f5a223          	sw	a5,4(a1)
800013a0:	00170713          	addi	a4,a4,1
800013a4:	00d5a423          	sw	a3,8(a1)
800013a8:	0087a683          	lw	a3,8(a5)
800013ac:	00b6a223          	sw	a1,4(a3)
800013b0:	00b7a423          	sw	a1,8(a5)
800013b4:	00a5a823          	sw	a0,16(a1)
800013b8:	00e52023          	sw	a4,0(a0)
800013bc:	00008067          	ret

800013c0 <vListInsert>:
800013c0:	0005a603          	lw	a2,0(a1)
800013c4:	fff00793          	li	a5,-1
800013c8:	00850713          	addi	a4,a0,8
800013cc:	00f61663          	bne	a2,a5,800013d8 <vListInsert+0x18>
800013d0:	0380006f          	j	80001408 <vListInsert+0x48>
800013d4:	00078713          	mv	a4,a5
800013d8:	00472783          	lw	a5,4(a4)
800013dc:	0007a683          	lw	a3,0(a5)
800013e0:	fed67ae3          	bleu	a3,a2,800013d4 <vListInsert+0x14>
800013e4:	00f5a223          	sw	a5,4(a1)
800013e8:	00b7a423          	sw	a1,8(a5)
800013ec:	00052783          	lw	a5,0(a0)
800013f0:	00e5a423          	sw	a4,8(a1)
800013f4:	00b72223          	sw	a1,4(a4)
800013f8:	00a5a823          	sw	a0,16(a1)
800013fc:	00178793          	addi	a5,a5,1
80001400:	00f52023          	sw	a5,0(a0)
80001404:	00008067          	ret
80001408:	01052703          	lw	a4,16(a0)
8000140c:	00472783          	lw	a5,4(a4)
80001410:	fd5ff06f          	j	800013e4 <vListInsert+0x24>

80001414 <uxListRemove>:
80001414:	01052783          	lw	a5,16(a0)
80001418:	00452683          	lw	a3,4(a0)
8000141c:	00852703          	lw	a4,8(a0)
80001420:	0047a603          	lw	a2,4(a5)
80001424:	00e6a423          	sw	a4,8(a3)
80001428:	00d72223          	sw	a3,4(a4)
8000142c:	00a60e63          	beq	a2,a0,80001448 <uxListRemove+0x34>
80001430:	0007a703          	lw	a4,0(a5)
80001434:	00052823          	sw	zero,16(a0)
80001438:	fff70713          	addi	a4,a4,-1
8000143c:	00e7a023          	sw	a4,0(a5)
80001440:	0007a503          	lw	a0,0(a5)
80001444:	00008067          	ret
80001448:	00e7a223          	sw	a4,4(a5)
8000144c:	0007a703          	lw	a4,0(a5)
80001450:	00052823          	sw	zero,16(a0)
80001454:	fff70713          	addi	a4,a4,-1
80001458:	00e7a023          	sw	a4,0(a5)
8000145c:	0007a503          	lw	a0,0(a5)
80001460:	00008067          	ret

80001464 <prvCopyDataToQueue>:
80001464:	ff010113          	addi	sp,sp,-16
80001468:	04052783          	lw	a5,64(a0)
8000146c:	00912223          	sw	s1,4(sp)
80001470:	03852483          	lw	s1,56(a0)
80001474:	00812423          	sw	s0,8(sp)
80001478:	00112623          	sw	ra,12(sp)
8000147c:	01212023          	sw	s2,0(sp)
80001480:	00050413          	mv	s0,a0
80001484:	02079863          	bnez	a5,800014b4 <prvCopyDataToQueue+0x50>
80001488:	00052783          	lw	a5,0(a0)
8000148c:	00148493          	addi	s1,s1,1
80001490:	00000513          	li	a0,0
80001494:	0c078c63          	beqz	a5,8000156c <prvCopyDataToQueue+0x108>
80001498:	02942c23          	sw	s1,56(s0)
8000149c:	00c12083          	lw	ra,12(sp)
800014a0:	00812403          	lw	s0,8(sp)
800014a4:	00412483          	lw	s1,4(sp)
800014a8:	00012903          	lw	s2,0(sp)
800014ac:	01010113          	addi	sp,sp,16
800014b0:	00008067          	ret
800014b4:	00060913          	mv	s2,a2
800014b8:	04061a63          	bnez	a2,8000150c <prvCopyDataToQueue+0xa8>
800014bc:	00452503          	lw	a0,4(a0)
800014c0:	00078613          	mv	a2,a5
800014c4:	00148493          	addi	s1,s1,1
800014c8:	c2dff0ef          	jal	ra,800010f4 <memcpy>
800014cc:	00442783          	lw	a5,4(s0)
800014d0:	04042683          	lw	a3,64(s0)
800014d4:	00842703          	lw	a4,8(s0)
800014d8:	00000513          	li	a0,0
800014dc:	00d787b3          	add	a5,a5,a3
800014e0:	00f42223          	sw	a5,4(s0)
800014e4:	fae7eae3          	bltu	a5,a4,80001498 <prvCopyDataToQueue+0x34>
800014e8:	00042783          	lw	a5,0(s0)
800014ec:	02942c23          	sw	s1,56(s0)
800014f0:	00c12083          	lw	ra,12(sp)
800014f4:	00f42223          	sw	a5,4(s0)
800014f8:	00812403          	lw	s0,8(sp)
800014fc:	00412483          	lw	s1,4(sp)
80001500:	00012903          	lw	s2,0(sp)
80001504:	01010113          	addi	sp,sp,16
80001508:	00008067          	ret
8000150c:	00c52503          	lw	a0,12(a0)
80001510:	00078613          	mv	a2,a5
80001514:	be1ff0ef          	jal	ra,800010f4 <memcpy>
80001518:	04042703          	lw	a4,64(s0)
8000151c:	00c42783          	lw	a5,12(s0)
80001520:	00042683          	lw	a3,0(s0)
80001524:	40e00733          	neg	a4,a4
80001528:	00e787b3          	add	a5,a5,a4
8000152c:	00f42623          	sw	a5,12(s0)
80001530:	00d7f863          	bleu	a3,a5,80001540 <prvCopyDataToQueue+0xdc>
80001534:	00842783          	lw	a5,8(s0)
80001538:	00e78733          	add	a4,a5,a4
8000153c:	00e42623          	sw	a4,12(s0)
80001540:	00200793          	li	a5,2
80001544:	02f90c63          	beq	s2,a5,8000157c <prvCopyDataToQueue+0x118>
80001548:	00148493          	addi	s1,s1,1
8000154c:	02942c23          	sw	s1,56(s0)
80001550:	00c12083          	lw	ra,12(sp)
80001554:	00812403          	lw	s0,8(sp)
80001558:	00412483          	lw	s1,4(sp)
8000155c:	00012903          	lw	s2,0(sp)
80001560:	00000513          	li	a0,0
80001564:	01010113          	addi	sp,sp,16
80001568:	00008067          	ret
8000156c:	00842503          	lw	a0,8(s0)
80001570:	4b0030ef          	jal	ra,80004a20 <xTaskPriorityDisinherit>
80001574:	00042423          	sw	zero,8(s0)
80001578:	f21ff06f          	j	80001498 <prvCopyDataToQueue+0x34>
8000157c:	00000513          	li	a0,0
80001580:	f0049ce3          	bnez	s1,80001498 <prvCopyDataToQueue+0x34>
80001584:	00100493          	li	s1,1
80001588:	f11ff06f          	j	80001498 <prvCopyDataToQueue+0x34>

8000158c <prvCopyDataFromQueue>:
8000158c:	04052603          	lw	a2,64(a0)
80001590:	00058793          	mv	a5,a1
80001594:	02060463          	beqz	a2,800015bc <prvCopyDataFromQueue+0x30>
80001598:	00c52583          	lw	a1,12(a0)
8000159c:	00852703          	lw	a4,8(a0)
800015a0:	00c585b3          	add	a1,a1,a2
800015a4:	00b52623          	sw	a1,12(a0)
800015a8:	00e5e663          	bltu	a1,a4,800015b4 <prvCopyDataFromQueue+0x28>
800015ac:	00052583          	lw	a1,0(a0)
800015b0:	00b52623          	sw	a1,12(a0)
800015b4:	00078513          	mv	a0,a5
800015b8:	b3dff06f          	j	800010f4 <memcpy>
800015bc:	00008067          	ret

800015c0 <prvUnlockQueue>:
800015c0:	ff010113          	addi	sp,sp,-16
800015c4:	00912223          	sw	s1,4(sp)
800015c8:	00050493          	mv	s1,a0
800015cc:	00812423          	sw	s0,8(sp)
800015d0:	00112623          	sw	ra,12(sp)
800015d4:	01212023          	sw	s2,0(sp)
800015d8:	6c4030ef          	jal	ra,80004c9c <vTaskEnterCritical>
800015dc:	0454c403          	lbu	s0,69(s1)
800015e0:	01841413          	slli	s0,s0,0x18
800015e4:	41845413          	srai	s0,s0,0x18
800015e8:	04805a63          	blez	s0,8000163c <prvUnlockQueue+0x7c>
800015ec:	0244a783          	lw	a5,36(s1)
800015f0:	04078663          	beqz	a5,8000163c <prvUnlockQueue+0x7c>
800015f4:	02448913          	addi	s2,s1,36
800015f8:	0200006f          	j	80001618 <prvUnlockQueue+0x58>
800015fc:	fff40413          	addi	s0,s0,-1
80001600:	0ff47793          	andi	a5,s0,255
80001604:	01879413          	slli	s0,a5,0x18
80001608:	41845413          	srai	s0,s0,0x18
8000160c:	02078863          	beqz	a5,8000163c <prvUnlockQueue+0x7c>
80001610:	0244a783          	lw	a5,36(s1)
80001614:	02078463          	beqz	a5,8000163c <prvUnlockQueue+0x7c>
80001618:	00090513          	mv	a0,s2
8000161c:	5fd020ef          	jal	ra,80004418 <xTaskRemoveFromEventList>
80001620:	fc050ee3          	beqz	a0,800015fc <prvUnlockQueue+0x3c>
80001624:	fff40413          	addi	s0,s0,-1
80001628:	238030ef          	jal	ra,80004860 <vTaskMissedYield>
8000162c:	0ff47793          	andi	a5,s0,255
80001630:	01879413          	slli	s0,a5,0x18
80001634:	41845413          	srai	s0,s0,0x18
80001638:	fc079ce3          	bnez	a5,80001610 <prvUnlockQueue+0x50>
8000163c:	fff00793          	li	a5,-1
80001640:	04f482a3          	sb	a5,69(s1)
80001644:	670030ef          	jal	ra,80004cb4 <vTaskExitCritical>
80001648:	654030ef          	jal	ra,80004c9c <vTaskEnterCritical>
8000164c:	0444c403          	lbu	s0,68(s1)
80001650:	01841413          	slli	s0,s0,0x18
80001654:	41845413          	srai	s0,s0,0x18
80001658:	04805a63          	blez	s0,800016ac <prvUnlockQueue+0xec>
8000165c:	0104a783          	lw	a5,16(s1)
80001660:	04078663          	beqz	a5,800016ac <prvUnlockQueue+0xec>
80001664:	01048913          	addi	s2,s1,16
80001668:	0200006f          	j	80001688 <prvUnlockQueue+0xc8>
8000166c:	fff40413          	addi	s0,s0,-1
80001670:	0ff47793          	andi	a5,s0,255
80001674:	01879413          	slli	s0,a5,0x18
80001678:	41845413          	srai	s0,s0,0x18
8000167c:	02078863          	beqz	a5,800016ac <prvUnlockQueue+0xec>
80001680:	0104a783          	lw	a5,16(s1)
80001684:	02078463          	beqz	a5,800016ac <prvUnlockQueue+0xec>
80001688:	00090513          	mv	a0,s2
8000168c:	58d020ef          	jal	ra,80004418 <xTaskRemoveFromEventList>
80001690:	fc050ee3          	beqz	a0,8000166c <prvUnlockQueue+0xac>
80001694:	fff40413          	addi	s0,s0,-1
80001698:	1c8030ef          	jal	ra,80004860 <vTaskMissedYield>
8000169c:	0ff47793          	andi	a5,s0,255
800016a0:	01879413          	slli	s0,a5,0x18
800016a4:	41845413          	srai	s0,s0,0x18
800016a8:	fc079ce3          	bnez	a5,80001680 <prvUnlockQueue+0xc0>
800016ac:	fff00793          	li	a5,-1
800016b0:	04f48223          	sb	a5,68(s1)
800016b4:	00812403          	lw	s0,8(sp)
800016b8:	00c12083          	lw	ra,12(sp)
800016bc:	00412483          	lw	s1,4(sp)
800016c0:	00012903          	lw	s2,0(sp)
800016c4:	01010113          	addi	sp,sp,16
800016c8:	5ec0306f          	j	80004cb4 <vTaskExitCritical>

800016cc <vQueueUnregisterQueue.part.2>:
800016cc:	810017b7          	lui	a5,0x81001
800016d0:	40c78593          	addi	a1,a5,1036 # 8100140c <__heap_start+0xfc00055c>
800016d4:	00000713          	li	a4,0
800016d8:	40c78793          	addi	a5,a5,1036
800016dc:	00800613          	li	a2,8
800016e0:	0047a683          	lw	a3,4(a5)
800016e4:	00878793          	addi	a5,a5,8
800016e8:	00a68863          	beq	a3,a0,800016f8 <vQueueUnregisterQueue.part.2+0x2c>
800016ec:	00170713          	addi	a4,a4,1
800016f0:	fec718e3          	bne	a4,a2,800016e0 <vQueueUnregisterQueue.part.2+0x14>
800016f4:	00008067          	ret
800016f8:	00371713          	slli	a4,a4,0x3
800016fc:	00e58733          	add	a4,a1,a4
80001700:	00072023          	sw	zero,0(a4)
80001704:	00072223          	sw	zero,4(a4)
80001708:	00008067          	ret

8000170c <xQueueGenericReset>:
8000170c:	0a050063          	beqz	a0,800017ac <xQueueGenericReset+0xa0>
80001710:	03c52783          	lw	a5,60(a0)
80001714:	08078663          	beqz	a5,800017a0 <xQueueGenericReset+0x94>
80001718:	04052703          	lw	a4,64(a0)
8000171c:	02e7b7b3          	mulhu	a5,a5,a4
80001720:	08079063          	bnez	a5,800017a0 <xQueueGenericReset+0x94>
80001724:	ff010113          	addi	sp,sp,-16
80001728:	00812423          	sw	s0,8(sp)
8000172c:	00912223          	sw	s1,4(sp)
80001730:	00050413          	mv	s0,a0
80001734:	00112623          	sw	ra,12(sp)
80001738:	00058493          	mv	s1,a1
8000173c:	560030ef          	jal	ra,80004c9c <vTaskEnterCritical>
80001740:	04042683          	lw	a3,64(s0)
80001744:	03c42783          	lw	a5,60(s0)
80001748:	00042703          	lw	a4,0(s0)
8000174c:	02042c23          	sw	zero,56(s0)
80001750:	02f687b3          	mul	a5,a3,a5
80001754:	fff00613          	li	a2,-1
80001758:	04c40223          	sb	a2,68(s0)
8000175c:	00e42223          	sw	a4,4(s0)
80001760:	04c402a3          	sb	a2,69(s0)
80001764:	40d786b3          	sub	a3,a5,a3
80001768:	00f707b3          	add	a5,a4,a5
8000176c:	00d70733          	add	a4,a4,a3
80001770:	00f42423          	sw	a5,8(s0)
80001774:	00e42623          	sw	a4,12(s0)
80001778:	04049a63          	bnez	s1,800017cc <xQueueGenericReset+0xc0>
8000177c:	01042783          	lw	a5,16(s0)
80001780:	02079c63          	bnez	a5,800017b8 <xQueueGenericReset+0xac>
80001784:	530030ef          	jal	ra,80004cb4 <vTaskExitCritical>
80001788:	00c12083          	lw	ra,12(sp)
8000178c:	00812403          	lw	s0,8(sp)
80001790:	00412483          	lw	s1,4(sp)
80001794:	00100513          	li	a0,1
80001798:	01010113          	addi	sp,sp,16
8000179c:	00008067          	ret
800017a0:	30047073          	csrci	mstatus,8
800017a4:	00100073          	ebreak
800017a8:	0000006f          	j	800017a8 <xQueueGenericReset+0x9c>
800017ac:	30047073          	csrci	mstatus,8
800017b0:	00100073          	ebreak
800017b4:	0000006f          	j	800017b4 <xQueueGenericReset+0xa8>
800017b8:	01040513          	addi	a0,s0,16
800017bc:	45d020ef          	jal	ra,80004418 <xTaskRemoveFromEventList>
800017c0:	fc0502e3          	beqz	a0,80001784 <xQueueGenericReset+0x78>
800017c4:	00000073          	ecall
800017c8:	fbdff06f          	j	80001784 <xQueueGenericReset+0x78>
800017cc:	01040513          	addi	a0,s0,16
800017d0:	b99ff0ef          	jal	ra,80001368 <vListInitialise>
800017d4:	02440513          	addi	a0,s0,36
800017d8:	b91ff0ef          	jal	ra,80001368 <vListInitialise>
800017dc:	fa9ff06f          	j	80001784 <xQueueGenericReset+0x78>

800017e0 <xQueueGenericCreate>:
800017e0:	00050c63          	beqz	a0,800017f8 <xQueueGenericCreate+0x18>
800017e4:	02a5b7b3          	mulhu	a5,a1,a0
800017e8:	00079863          	bnez	a5,800017f8 <xQueueGenericCreate+0x18>
800017ec:	02b507b3          	mul	a5,a0,a1
800017f0:	fb700713          	li	a4,-73
800017f4:	00f77863          	bleu	a5,a4,80001804 <xQueueGenericCreate+0x24>
800017f8:	30047073          	csrci	mstatus,8
800017fc:	00100073          	ebreak
80001800:	0000006f          	j	80001800 <xQueueGenericCreate+0x20>
80001804:	ff010113          	addi	sp,sp,-16
80001808:	00912223          	sw	s1,4(sp)
8000180c:	00050493          	mv	s1,a0
80001810:	04878513          	addi	a0,a5,72
80001814:	00812423          	sw	s0,8(sp)
80001818:	01212023          	sw	s2,0(sp)
8000181c:	00112623          	sw	ra,12(sp)
80001820:	00058913          	mv	s2,a1
80001824:	631030ef          	jal	ra,80005654 <pvPortMalloc>
80001828:	00050413          	mv	s0,a0
8000182c:	02050063          	beqz	a0,8000184c <xQueueGenericCreate+0x6c>
80001830:	02091c63          	bnez	s2,80001868 <xQueueGenericCreate+0x88>
80001834:	00a42023          	sw	a0,0(s0)
80001838:	02942e23          	sw	s1,60(s0)
8000183c:	05242023          	sw	s2,64(s0)
80001840:	00100593          	li	a1,1
80001844:	00040513          	mv	a0,s0
80001848:	ec5ff0ef          	jal	ra,8000170c <xQueueGenericReset>
8000184c:	00040513          	mv	a0,s0
80001850:	00c12083          	lw	ra,12(sp)
80001854:	00812403          	lw	s0,8(sp)
80001858:	00412483          	lw	s1,4(sp)
8000185c:	00012903          	lw	s2,0(sp)
80001860:	01010113          	addi	sp,sp,16
80001864:	00008067          	ret
80001868:	04850793          	addi	a5,a0,72
8000186c:	00f52023          	sw	a5,0(a0)
80001870:	fc9ff06f          	j	80001838 <xQueueGenericCreate+0x58>

80001874 <xQueueGetMutexHolder>:
80001874:	04050463          	beqz	a0,800018bc <xQueueGetMutexHolder+0x48>
80001878:	ff010113          	addi	sp,sp,-16
8000187c:	00812423          	sw	s0,8(sp)
80001880:	00912223          	sw	s1,4(sp)
80001884:	00050413          	mv	s0,a0
80001888:	00112623          	sw	ra,12(sp)
8000188c:	410030ef          	jal	ra,80004c9c <vTaskEnterCritical>
80001890:	00042783          	lw	a5,0(s0)
80001894:	00000493          	li	s1,0
80001898:	00079463          	bnez	a5,800018a0 <xQueueGetMutexHolder+0x2c>
8000189c:	00842483          	lw	s1,8(s0)
800018a0:	414030ef          	jal	ra,80004cb4 <vTaskExitCritical>
800018a4:	00c12083          	lw	ra,12(sp)
800018a8:	00812403          	lw	s0,8(sp)
800018ac:	00048513          	mv	a0,s1
800018b0:	00412483          	lw	s1,4(sp)
800018b4:	01010113          	addi	sp,sp,16
800018b8:	00008067          	ret
800018bc:	30047073          	csrci	mstatus,8
800018c0:	00100073          	ebreak
800018c4:	0000006f          	j	800018c4 <xQueueGetMutexHolder+0x50>

800018c8 <xQueueGetMutexHolderFromISR>:
800018c8:	00050793          	mv	a5,a0
800018cc:	00050c63          	beqz	a0,800018e4 <xQueueGetMutexHolderFromISR+0x1c>
800018d0:	00052703          	lw	a4,0(a0)
800018d4:	00000513          	li	a0,0
800018d8:	00071463          	bnez	a4,800018e0 <xQueueGetMutexHolderFromISR+0x18>
800018dc:	0087a503          	lw	a0,8(a5)
800018e0:	00008067          	ret
800018e4:	30047073          	csrci	mstatus,8
800018e8:	00100073          	ebreak
800018ec:	0000006f          	j	800018ec <xQueueGetMutexHolderFromISR+0x24>

800018f0 <xQueueCreateCountingSemaphore>:
800018f0:	00050463          	beqz	a0,800018f8 <xQueueCreateCountingSemaphore+0x8>
800018f4:	00b57863          	bleu	a1,a0,80001904 <xQueueCreateCountingSemaphore+0x14>
800018f8:	30047073          	csrci	mstatus,8
800018fc:	00100073          	ebreak
80001900:	0000006f          	j	80001900 <xQueueCreateCountingSemaphore+0x10>
80001904:	ff010113          	addi	sp,sp,-16
80001908:	00812423          	sw	s0,8(sp)
8000190c:	00200613          	li	a2,2
80001910:	00058413          	mv	s0,a1
80001914:	00000593          	li	a1,0
80001918:	00112623          	sw	ra,12(sp)
8000191c:	ec5ff0ef          	jal	ra,800017e0 <xQueueGenericCreate>
80001920:	00050463          	beqz	a0,80001928 <xQueueCreateCountingSemaphore+0x38>
80001924:	02852c23          	sw	s0,56(a0)
80001928:	00c12083          	lw	ra,12(sp)
8000192c:	00812403          	lw	s0,8(sp)
80001930:	01010113          	addi	sp,sp,16
80001934:	00008067          	ret

80001938 <xQueueGenericSend>:
80001938:	fc010113          	addi	sp,sp,-64
8000193c:	02112e23          	sw	ra,60(sp)
80001940:	02812c23          	sw	s0,56(sp)
80001944:	02912a23          	sw	s1,52(sp)
80001948:	03212823          	sw	s2,48(sp)
8000194c:	03312623          	sw	s3,44(sp)
80001950:	03412423          	sw	s4,40(sp)
80001954:	03512223          	sw	s5,36(sp)
80001958:	03612023          	sw	s6,32(sp)
8000195c:	00c12623          	sw	a2,12(sp)
80001960:	12050463          	beqz	a0,80001a88 <xQueueGenericSend+0x150>
80001964:	0c058c63          	beqz	a1,80001a3c <xQueueGenericSend+0x104>
80001968:	00200793          	li	a5,2
8000196c:	00f69e63          	bne	a3,a5,80001988 <xQueueGenericSend+0x50>
80001970:	03c52703          	lw	a4,60(a0)
80001974:	00100793          	li	a5,1
80001978:	00f70863          	beq	a4,a5,80001988 <xQueueGenericSend+0x50>
8000197c:	30047073          	csrci	mstatus,8
80001980:	00100073          	ebreak
80001984:	0000006f          	j	80001984 <xQueueGenericSend+0x4c>
80001988:	00068493          	mv	s1,a3
8000198c:	00058a13          	mv	s4,a1
80001990:	00050413          	mv	s0,a0
80001994:	6e9020ef          	jal	ra,8000487c <xTaskGetSchedulerState>
80001998:	0e050e63          	beqz	a0,80001a94 <xQueueGenericSend+0x15c>
8000199c:	00000913          	li	s2,0
800019a0:	00200b13          	li	s6,2
800019a4:	fff00993          	li	s3,-1
800019a8:	01040a93          	addi	s5,s0,16
800019ac:	2f0030ef          	jal	ra,80004c9c <vTaskEnterCritical>
800019b0:	03842703          	lw	a4,56(s0)
800019b4:	03c42783          	lw	a5,60(s0)
800019b8:	0ef76863          	bltu	a4,a5,80001aa8 <xQueueGenericSend+0x170>
800019bc:	0f648663          	beq	s1,s6,80001aa8 <xQueueGenericSend+0x170>
800019c0:	00c12783          	lw	a5,12(sp)
800019c4:	14078263          	beqz	a5,80001b08 <xQueueGenericSend+0x1d0>
800019c8:	0a090a63          	beqz	s2,80001a7c <xQueueGenericSend+0x144>
800019cc:	2e8030ef          	jal	ra,80004cb4 <vTaskExitCritical>
800019d0:	7cd010ef          	jal	ra,8000399c <vTaskSuspendAll>
800019d4:	2c8030ef          	jal	ra,80004c9c <vTaskEnterCritical>
800019d8:	04444783          	lbu	a5,68(s0)
800019dc:	01879793          	slli	a5,a5,0x18
800019e0:	4187d793          	srai	a5,a5,0x18
800019e4:	01379463          	bne	a5,s3,800019ec <xQueueGenericSend+0xb4>
800019e8:	04040223          	sb	zero,68(s0)
800019ec:	04544783          	lbu	a5,69(s0)
800019f0:	01879793          	slli	a5,a5,0x18
800019f4:	4187d793          	srai	a5,a5,0x18
800019f8:	01379463          	bne	a5,s3,80001a00 <xQueueGenericSend+0xc8>
800019fc:	040402a3          	sb	zero,69(s0)
80001a00:	2b4030ef          	jal	ra,80004cb4 <vTaskExitCritical>
80001a04:	00c10593          	addi	a1,sp,12
80001a08:	01810513          	addi	a0,sp,24
80001a0c:	545020ef          	jal	ra,80004750 <xTaskCheckForTimeOut>
80001a10:	10051263          	bnez	a0,80001b14 <xQueueGenericSend+0x1dc>
80001a14:	288030ef          	jal	ra,80004c9c <vTaskEnterCritical>
80001a18:	03842703          	lw	a4,56(s0)
80001a1c:	03c42783          	lw	a5,60(s0)
80001a20:	02f70863          	beq	a4,a5,80001a50 <xQueueGenericSend+0x118>
80001a24:	290030ef          	jal	ra,80004cb4 <vTaskExitCritical>
80001a28:	00040513          	mv	a0,s0
80001a2c:	b95ff0ef          	jal	ra,800015c0 <prvUnlockQueue>
80001a30:	454020ef          	jal	ra,80003e84 <xTaskResumeAll>
80001a34:	00100913          	li	s2,1
80001a38:	f75ff06f          	j	800019ac <xQueueGenericSend+0x74>
80001a3c:	04052783          	lw	a5,64(a0)
80001a40:	f20784e3          	beqz	a5,80001968 <xQueueGenericSend+0x30>
80001a44:	30047073          	csrci	mstatus,8
80001a48:	00100073          	ebreak
80001a4c:	0000006f          	j	80001a4c <xQueueGenericSend+0x114>
80001a50:	264030ef          	jal	ra,80004cb4 <vTaskExitCritical>
80001a54:	00c12583          	lw	a1,12(sp)
80001a58:	000a8513          	mv	a0,s5
80001a5c:	06d020ef          	jal	ra,800042c8 <vTaskPlaceOnEventList>
80001a60:	00040513          	mv	a0,s0
80001a64:	b5dff0ef          	jal	ra,800015c0 <prvUnlockQueue>
80001a68:	41c020ef          	jal	ra,80003e84 <xTaskResumeAll>
80001a6c:	fc0514e3          	bnez	a0,80001a34 <xQueueGenericSend+0xfc>
80001a70:	00000073          	ecall
80001a74:	00100913          	li	s2,1
80001a78:	f35ff06f          	j	800019ac <xQueueGenericSend+0x74>
80001a7c:	01810513          	addi	a0,sp,24
80001a80:	4b5020ef          	jal	ra,80004734 <vTaskInternalSetTimeOutState>
80001a84:	f49ff06f          	j	800019cc <xQueueGenericSend+0x94>
80001a88:	30047073          	csrci	mstatus,8
80001a8c:	00100073          	ebreak
80001a90:	0000006f          	j	80001a90 <xQueueGenericSend+0x158>
80001a94:	00c12783          	lw	a5,12(sp)
80001a98:	f00782e3          	beqz	a5,8000199c <xQueueGenericSend+0x64>
80001a9c:	30047073          	csrci	mstatus,8
80001aa0:	00100073          	ebreak
80001aa4:	0000006f          	j	80001aa4 <xQueueGenericSend+0x16c>
80001aa8:	00048613          	mv	a2,s1
80001aac:	000a0593          	mv	a1,s4
80001ab0:	00040513          	mv	a0,s0
80001ab4:	9b1ff0ef          	jal	ra,80001464 <prvCopyDataToQueue>
80001ab8:	02442783          	lw	a5,36(s0)
80001abc:	02079c63          	bnez	a5,80001af4 <xQueueGenericSend+0x1bc>
80001ac0:	04051063          	bnez	a0,80001b00 <xQueueGenericSend+0x1c8>
80001ac4:	1f0030ef          	jal	ra,80004cb4 <vTaskExitCritical>
80001ac8:	00100513          	li	a0,1
80001acc:	03c12083          	lw	ra,60(sp)
80001ad0:	03812403          	lw	s0,56(sp)
80001ad4:	03412483          	lw	s1,52(sp)
80001ad8:	03012903          	lw	s2,48(sp)
80001adc:	02c12983          	lw	s3,44(sp)
80001ae0:	02812a03          	lw	s4,40(sp)
80001ae4:	02412a83          	lw	s5,36(sp)
80001ae8:	02012b03          	lw	s6,32(sp)
80001aec:	04010113          	addi	sp,sp,64
80001af0:	00008067          	ret
80001af4:	02440513          	addi	a0,s0,36
80001af8:	121020ef          	jal	ra,80004418 <xTaskRemoveFromEventList>
80001afc:	fc0504e3          	beqz	a0,80001ac4 <xQueueGenericSend+0x18c>
80001b00:	00000073          	ecall
80001b04:	fc1ff06f          	j	80001ac4 <xQueueGenericSend+0x18c>
80001b08:	1ac030ef          	jal	ra,80004cb4 <vTaskExitCritical>
80001b0c:	00000513          	li	a0,0
80001b10:	fbdff06f          	j	80001acc <xQueueGenericSend+0x194>
80001b14:	00040513          	mv	a0,s0
80001b18:	aa9ff0ef          	jal	ra,800015c0 <prvUnlockQueue>
80001b1c:	368020ef          	jal	ra,80003e84 <xTaskResumeAll>
80001b20:	00000513          	li	a0,0
80001b24:	fa9ff06f          	j	80001acc <xQueueGenericSend+0x194>

80001b28 <xQueueCreateMutex>:
80001b28:	ff010113          	addi	sp,sp,-16
80001b2c:	00050613          	mv	a2,a0
80001b30:	00000593          	li	a1,0
80001b34:	00100513          	li	a0,1
80001b38:	00812423          	sw	s0,8(sp)
80001b3c:	00112623          	sw	ra,12(sp)
80001b40:	ca1ff0ef          	jal	ra,800017e0 <xQueueGenericCreate>
80001b44:	00050413          	mv	s0,a0
80001b48:	02050063          	beqz	a0,80001b68 <xQueueCreateMutex+0x40>
80001b4c:	00052423          	sw	zero,8(a0)
80001b50:	00052023          	sw	zero,0(a0)
80001b54:	00052623          	sw	zero,12(a0)
80001b58:	00000693          	li	a3,0
80001b5c:	00000613          	li	a2,0
80001b60:	00000593          	li	a1,0
80001b64:	dd5ff0ef          	jal	ra,80001938 <xQueueGenericSend>
80001b68:	00040513          	mv	a0,s0
80001b6c:	00c12083          	lw	ra,12(sp)
80001b70:	00812403          	lw	s0,8(sp)
80001b74:	01010113          	addi	sp,sp,16
80001b78:	00008067          	ret

80001b7c <xQueueGiveMutexRecursive>:
80001b7c:	04050463          	beqz	a0,80001bc4 <xQueueGiveMutexRecursive+0x48>
80001b80:	ff010113          	addi	sp,sp,-16
80001b84:	01212023          	sw	s2,0(sp)
80001b88:	00852903          	lw	s2,8(a0)
80001b8c:	00812423          	sw	s0,8(sp)
80001b90:	00912223          	sw	s1,4(sp)
80001b94:	00112623          	sw	ra,12(sp)
80001b98:	00050413          	mv	s0,a0
80001b9c:	4d5020ef          	jal	ra,80004870 <xTaskGetCurrentTaskHandle>
80001ba0:	00000493          	li	s1,0
80001ba4:	02a90663          	beq	s2,a0,80001bd0 <xQueueGiveMutexRecursive+0x54>
80001ba8:	00c12083          	lw	ra,12(sp)
80001bac:	00812403          	lw	s0,8(sp)
80001bb0:	00048513          	mv	a0,s1
80001bb4:	00012903          	lw	s2,0(sp)
80001bb8:	00412483          	lw	s1,4(sp)
80001bbc:	01010113          	addi	sp,sp,16
80001bc0:	00008067          	ret
80001bc4:	30047073          	csrci	mstatus,8
80001bc8:	00100073          	ebreak
80001bcc:	0000006f          	j	80001bcc <xQueueGiveMutexRecursive+0x50>
80001bd0:	00c42783          	lw	a5,12(s0)
80001bd4:	00100493          	li	s1,1
80001bd8:	fff78793          	addi	a5,a5,-1
80001bdc:	00f42623          	sw	a5,12(s0)
80001be0:	fc0794e3          	bnez	a5,80001ba8 <xQueueGiveMutexRecursive+0x2c>
80001be4:	00000693          	li	a3,0
80001be8:	00000613          	li	a2,0
80001bec:	00000593          	li	a1,0
80001bf0:	00040513          	mv	a0,s0
80001bf4:	d45ff0ef          	jal	ra,80001938 <xQueueGenericSend>
80001bf8:	fb1ff06f          	j	80001ba8 <xQueueGiveMutexRecursive+0x2c>

80001bfc <xQueueGenericSendFromISR>:
80001bfc:	08050063          	beqz	a0,80001c7c <xQueueGenericSendFromISR+0x80>
80001c00:	fe010113          	addi	sp,sp,-32
80001c04:	01212823          	sw	s2,16(sp)
80001c08:	00112e23          	sw	ra,28(sp)
80001c0c:	00812c23          	sw	s0,24(sp)
80001c10:	00912a23          	sw	s1,20(sp)
80001c14:	01312623          	sw	s3,12(sp)
80001c18:	00060913          	mv	s2,a2
80001c1c:	04058663          	beqz	a1,80001c68 <xQueueGenericSendFromISR+0x6c>
80001c20:	00200713          	li	a4,2
80001c24:	03c52783          	lw	a5,60(a0)
80001c28:	02e68663          	beq	a3,a4,80001c54 <xQueueGenericSendFromISR+0x58>
80001c2c:	03852703          	lw	a4,56(a0)
80001c30:	04f76e63          	bltu	a4,a5,80001c8c <xQueueGenericSendFromISR+0x90>
80001c34:	00000513          	li	a0,0
80001c38:	01c12083          	lw	ra,28(sp)
80001c3c:	01812403          	lw	s0,24(sp)
80001c40:	01412483          	lw	s1,20(sp)
80001c44:	01012903          	lw	s2,16(sp)
80001c48:	00c12983          	lw	s3,12(sp)
80001c4c:	02010113          	addi	sp,sp,32
80001c50:	00008067          	ret
80001c54:	00100713          	li	a4,1
80001c58:	02e78863          	beq	a5,a4,80001c88 <xQueueGenericSendFromISR+0x8c>
80001c5c:	30047073          	csrci	mstatus,8
80001c60:	00100073          	ebreak
80001c64:	0000006f          	j	80001c64 <xQueueGenericSendFromISR+0x68>
80001c68:	04052783          	lw	a5,64(a0)
80001c6c:	fa078ae3          	beqz	a5,80001c20 <xQueueGenericSendFromISR+0x24>
80001c70:	30047073          	csrci	mstatus,8
80001c74:	00100073          	ebreak
80001c78:	0000006f          	j	80001c78 <xQueueGenericSendFromISR+0x7c>
80001c7c:	30047073          	csrci	mstatus,8
80001c80:	00100073          	ebreak
80001c84:	0000006f          	j	80001c84 <xQueueGenericSendFromISR+0x88>
80001c88:	03852783          	lw	a5,56(a0)
80001c8c:	04554483          	lbu	s1,69(a0)
80001c90:	03852783          	lw	a5,56(a0)
80001c94:	00068613          	mv	a2,a3
80001c98:	00050413          	mv	s0,a0
80001c9c:	01849993          	slli	s3,s1,0x18
80001ca0:	fc4ff0ef          	jal	ra,80001464 <prvCopyDataToQueue>
80001ca4:	4189d993          	srai	s3,s3,0x18
80001ca8:	fff00793          	li	a5,-1
80001cac:	02f98e63          	beq	s3,a5,80001ce8 <xQueueGenericSendFromISR+0xec>
80001cb0:	07f00793          	li	a5,127
80001cb4:	04f98263          	beq	s3,a5,80001cf8 <xQueueGenericSendFromISR+0xfc>
80001cb8:	00148793          	addi	a5,s1,1
80001cbc:	01879793          	slli	a5,a5,0x18
80001cc0:	4187d793          	srai	a5,a5,0x18
80001cc4:	04f402a3          	sb	a5,69(s0)
80001cc8:	01c12083          	lw	ra,28(sp)
80001ccc:	01812403          	lw	s0,24(sp)
80001cd0:	01412483          	lw	s1,20(sp)
80001cd4:	01012903          	lw	s2,16(sp)
80001cd8:	00c12983          	lw	s3,12(sp)
80001cdc:	00100513          	li	a0,1
80001ce0:	02010113          	addi	sp,sp,32
80001ce4:	00008067          	ret
80001ce8:	02442783          	lw	a5,36(s0)
80001cec:	00079c63          	bnez	a5,80001d04 <xQueueGenericSendFromISR+0x108>
80001cf0:	00100513          	li	a0,1
80001cf4:	f45ff06f          	j	80001c38 <xQueueGenericSendFromISR+0x3c>
80001cf8:	30047073          	csrci	mstatus,8
80001cfc:	00100073          	ebreak
80001d00:	0000006f          	j	80001d00 <xQueueGenericSendFromISR+0x104>
80001d04:	02440513          	addi	a0,s0,36
80001d08:	710020ef          	jal	ra,80004418 <xTaskRemoveFromEventList>
80001d0c:	fe0502e3          	beqz	a0,80001cf0 <xQueueGenericSendFromISR+0xf4>
80001d10:	fe0900e3          	beqz	s2,80001cf0 <xQueueGenericSendFromISR+0xf4>
80001d14:	00100793          	li	a5,1
80001d18:	00f92023          	sw	a5,0(s2)
80001d1c:	00100513          	li	a0,1
80001d20:	f19ff06f          	j	80001c38 <xQueueGenericSendFromISR+0x3c>

80001d24 <xQueueGiveFromISR>:
80001d24:	06050463          	beqz	a0,80001d8c <xQueueGiveFromISR+0x68>
80001d28:	04052783          	lw	a5,64(a0)
80001d2c:	04079a63          	bnez	a5,80001d80 <xQueueGiveFromISR+0x5c>
80001d30:	00052783          	lw	a5,0(a0)
80001d34:	06078263          	beqz	a5,80001d98 <xQueueGiveFromISR+0x74>
80001d38:	03852703          	lw	a4,56(a0)
80001d3c:	03c52783          	lw	a5,60(a0)
80001d40:	06f77663          	bleu	a5,a4,80001dac <xQueueGiveFromISR+0x88>
80001d44:	04554783          	lbu	a5,69(a0)
80001d48:	00170713          	addi	a4,a4,1
80001d4c:	02e52c23          	sw	a4,56(a0)
80001d50:	01879713          	slli	a4,a5,0x18
80001d54:	41875713          	srai	a4,a4,0x18
80001d58:	fff00693          	li	a3,-1
80001d5c:	04d70c63          	beq	a4,a3,80001db4 <xQueueGiveFromISR+0x90>
80001d60:	07f00693          	li	a3,127
80001d64:	06d70063          	beq	a4,a3,80001dc4 <xQueueGiveFromISR+0xa0>
80001d68:	00178793          	addi	a5,a5,1
80001d6c:	01879793          	slli	a5,a5,0x18
80001d70:	4187d793          	srai	a5,a5,0x18
80001d74:	04f502a3          	sb	a5,69(a0)
80001d78:	00100513          	li	a0,1
80001d7c:	00008067          	ret
80001d80:	30047073          	csrci	mstatus,8
80001d84:	00100073          	ebreak
80001d88:	0000006f          	j	80001d88 <xQueueGiveFromISR+0x64>
80001d8c:	30047073          	csrci	mstatus,8
80001d90:	00100073          	ebreak
80001d94:	0000006f          	j	80001d94 <xQueueGiveFromISR+0x70>
80001d98:	00852783          	lw	a5,8(a0)
80001d9c:	f8078ee3          	beqz	a5,80001d38 <xQueueGiveFromISR+0x14>
80001da0:	30047073          	csrci	mstatus,8
80001da4:	00100073          	ebreak
80001da8:	0000006f          	j	80001da8 <xQueueGiveFromISR+0x84>
80001dac:	00000513          	li	a0,0
80001db0:	00008067          	ret
80001db4:	02452783          	lw	a5,36(a0)
80001db8:	00079c63          	bnez	a5,80001dd0 <xQueueGiveFromISR+0xac>
80001dbc:	00100513          	li	a0,1
80001dc0:	00008067          	ret
80001dc4:	30047073          	csrci	mstatus,8
80001dc8:	00100073          	ebreak
80001dcc:	0000006f          	j	80001dcc <xQueueGiveFromISR+0xa8>
80001dd0:	ff010113          	addi	sp,sp,-16
80001dd4:	02450513          	addi	a0,a0,36
80001dd8:	00812423          	sw	s0,8(sp)
80001ddc:	00112623          	sw	ra,12(sp)
80001de0:	00058413          	mv	s0,a1
80001de4:	634020ef          	jal	ra,80004418 <xTaskRemoveFromEventList>
80001de8:	00050863          	beqz	a0,80001df8 <xQueueGiveFromISR+0xd4>
80001dec:	00040663          	beqz	s0,80001df8 <xQueueGiveFromISR+0xd4>
80001df0:	00100793          	li	a5,1
80001df4:	00f42023          	sw	a5,0(s0)
80001df8:	00c12083          	lw	ra,12(sp)
80001dfc:	00812403          	lw	s0,8(sp)
80001e00:	00100513          	li	a0,1
80001e04:	01010113          	addi	sp,sp,16
80001e08:	00008067          	ret

80001e0c <xQueueReceive>:
80001e0c:	fc010113          	addi	sp,sp,-64
80001e10:	02112e23          	sw	ra,60(sp)
80001e14:	02812c23          	sw	s0,56(sp)
80001e18:	02912a23          	sw	s1,52(sp)
80001e1c:	03212823          	sw	s2,48(sp)
80001e20:	03312623          	sw	s3,44(sp)
80001e24:	03412423          	sw	s4,40(sp)
80001e28:	00c12623          	sw	a2,12(sp)
80001e2c:	16050e63          	beqz	a0,80001fa8 <xQueueReceive+0x19c>
80001e30:	0e058663          	beqz	a1,80001f1c <xQueueReceive+0x110>
80001e34:	00058993          	mv	s3,a1
80001e38:	00050413          	mv	s0,a0
80001e3c:	241020ef          	jal	ra,8000487c <xTaskGetSchedulerState>
80001e40:	0c050463          	beqz	a0,80001f08 <xQueueReceive+0xfc>
80001e44:	659020ef          	jal	ra,80004c9c <vTaskEnterCritical>
80001e48:	03842483          	lw	s1,56(s0)
80001e4c:	12049a63          	bnez	s1,80001f80 <xQueueReceive+0x174>
80001e50:	00c12783          	lw	a5,12(sp)
80001e54:	08078663          	beqz	a5,80001ee0 <xQueueReceive+0xd4>
80001e58:	01810513          	addi	a0,sp,24
80001e5c:	0d9020ef          	jal	ra,80004734 <vTaskInternalSetTimeOutState>
80001e60:	fff00913          	li	s2,-1
80001e64:	02440a13          	addi	s4,s0,36
80001e68:	64d020ef          	jal	ra,80004cb4 <vTaskExitCritical>
80001e6c:	331010ef          	jal	ra,8000399c <vTaskSuspendAll>
80001e70:	62d020ef          	jal	ra,80004c9c <vTaskEnterCritical>
80001e74:	04444783          	lbu	a5,68(s0)
80001e78:	01879793          	slli	a5,a5,0x18
80001e7c:	4187d793          	srai	a5,a5,0x18
80001e80:	01279463          	bne	a5,s2,80001e88 <xQueueReceive+0x7c>
80001e84:	04040223          	sb	zero,68(s0)
80001e88:	04544783          	lbu	a5,69(s0)
80001e8c:	01879793          	slli	a5,a5,0x18
80001e90:	4187d793          	srai	a5,a5,0x18
80001e94:	01279463          	bne	a5,s2,80001e9c <xQueueReceive+0x90>
80001e98:	040402a3          	sb	zero,69(s0)
80001e9c:	619020ef          	jal	ra,80004cb4 <vTaskExitCritical>
80001ea0:	00c10593          	addi	a1,sp,12
80001ea4:	01810513          	addi	a0,sp,24
80001ea8:	0a9020ef          	jal	ra,80004750 <xTaskCheckForTimeOut>
80001eac:	08051263          	bnez	a0,80001f30 <xQueueReceive+0x124>
80001eb0:	5ed020ef          	jal	ra,80004c9c <vTaskEnterCritical>
80001eb4:	03842783          	lw	a5,56(s0)
80001eb8:	08078c63          	beqz	a5,80001f50 <xQueueReceive+0x144>
80001ebc:	5f9020ef          	jal	ra,80004cb4 <vTaskExitCritical>
80001ec0:	00040513          	mv	a0,s0
80001ec4:	efcff0ef          	jal	ra,800015c0 <prvUnlockQueue>
80001ec8:	7bd010ef          	jal	ra,80003e84 <xTaskResumeAll>
80001ecc:	5d1020ef          	jal	ra,80004c9c <vTaskEnterCritical>
80001ed0:	03842483          	lw	s1,56(s0)
80001ed4:	0a049663          	bnez	s1,80001f80 <xQueueReceive+0x174>
80001ed8:	00c12783          	lw	a5,12(sp)
80001edc:	f80796e3          	bnez	a5,80001e68 <xQueueReceive+0x5c>
80001ee0:	5d5020ef          	jal	ra,80004cb4 <vTaskExitCritical>
80001ee4:	00000513          	li	a0,0
80001ee8:	03c12083          	lw	ra,60(sp)
80001eec:	03812403          	lw	s0,56(sp)
80001ef0:	03412483          	lw	s1,52(sp)
80001ef4:	03012903          	lw	s2,48(sp)
80001ef8:	02c12983          	lw	s3,44(sp)
80001efc:	02812a03          	lw	s4,40(sp)
80001f00:	04010113          	addi	sp,sp,64
80001f04:	00008067          	ret
80001f08:	00c12783          	lw	a5,12(sp)
80001f0c:	f2078ce3          	beqz	a5,80001e44 <xQueueReceive+0x38>
80001f10:	30047073          	csrci	mstatus,8
80001f14:	00100073          	ebreak
80001f18:	0000006f          	j	80001f18 <xQueueReceive+0x10c>
80001f1c:	04052783          	lw	a5,64(a0)
80001f20:	f0078ae3          	beqz	a5,80001e34 <xQueueReceive+0x28>
80001f24:	30047073          	csrci	mstatus,8
80001f28:	00100073          	ebreak
80001f2c:	0000006f          	j	80001f2c <xQueueReceive+0x120>
80001f30:	00040513          	mv	a0,s0
80001f34:	e8cff0ef          	jal	ra,800015c0 <prvUnlockQueue>
80001f38:	74d010ef          	jal	ra,80003e84 <xTaskResumeAll>
80001f3c:	561020ef          	jal	ra,80004c9c <vTaskEnterCritical>
80001f40:	03842783          	lw	a5,56(s0)
80001f44:	f8078ee3          	beqz	a5,80001ee0 <xQueueReceive+0xd4>
80001f48:	56d020ef          	jal	ra,80004cb4 <vTaskExitCritical>
80001f4c:	f81ff06f          	j	80001ecc <xQueueReceive+0xc0>
80001f50:	565020ef          	jal	ra,80004cb4 <vTaskExitCritical>
80001f54:	00c12583          	lw	a1,12(sp)
80001f58:	000a0513          	mv	a0,s4
80001f5c:	36c020ef          	jal	ra,800042c8 <vTaskPlaceOnEventList>
80001f60:	00040513          	mv	a0,s0
80001f64:	e5cff0ef          	jal	ra,800015c0 <prvUnlockQueue>
80001f68:	71d010ef          	jal	ra,80003e84 <xTaskResumeAll>
80001f6c:	f60510e3          	bnez	a0,80001ecc <xQueueReceive+0xc0>
80001f70:	00000073          	ecall
80001f74:	529020ef          	jal	ra,80004c9c <vTaskEnterCritical>
80001f78:	03842483          	lw	s1,56(s0)
80001f7c:	f4048ee3          	beqz	s1,80001ed8 <xQueueReceive+0xcc>
80001f80:	00098593          	mv	a1,s3
80001f84:	00040513          	mv	a0,s0
80001f88:	fff48493          	addi	s1,s1,-1
80001f8c:	e00ff0ef          	jal	ra,8000158c <prvCopyDataFromQueue>
80001f90:	02942c23          	sw	s1,56(s0)
80001f94:	01042783          	lw	a5,16(s0)
80001f98:	00079e63          	bnez	a5,80001fb4 <xQueueReceive+0x1a8>
80001f9c:	519020ef          	jal	ra,80004cb4 <vTaskExitCritical>
80001fa0:	00100513          	li	a0,1
80001fa4:	f45ff06f          	j	80001ee8 <xQueueReceive+0xdc>
80001fa8:	30047073          	csrci	mstatus,8
80001fac:	00100073          	ebreak
80001fb0:	0000006f          	j	80001fb0 <xQueueReceive+0x1a4>
80001fb4:	01040513          	addi	a0,s0,16
80001fb8:	460020ef          	jal	ra,80004418 <xTaskRemoveFromEventList>
80001fbc:	fe0500e3          	beqz	a0,80001f9c <xQueueReceive+0x190>
80001fc0:	00000073          	ecall
80001fc4:	fd9ff06f          	j	80001f9c <xQueueReceive+0x190>

80001fc8 <xQueueSemaphoreTake>:
80001fc8:	fc010113          	addi	sp,sp,-64
80001fcc:	02112e23          	sw	ra,60(sp)
80001fd0:	02812c23          	sw	s0,56(sp)
80001fd4:	02912a23          	sw	s1,52(sp)
80001fd8:	03212823          	sw	s2,48(sp)
80001fdc:	03312623          	sw	s3,44(sp)
80001fe0:	03412423          	sw	s4,40(sp)
80001fe4:	00b12623          	sw	a1,12(sp)
80001fe8:	00050c63          	beqz	a0,80002000 <xQueueSemaphoreTake+0x38>
80001fec:	04052783          	lw	a5,64(a0)
80001ff0:	00078e63          	beqz	a5,8000200c <xQueueSemaphoreTake+0x44>
80001ff4:	30047073          	csrci	mstatus,8
80001ff8:	00100073          	ebreak
80001ffc:	0000006f          	j	80001ffc <xQueueSemaphoreTake+0x34>
80002000:	30047073          	csrci	mstatus,8
80002004:	00100073          	ebreak
80002008:	0000006f          	j	80002008 <xQueueSemaphoreTake+0x40>
8000200c:	00050413          	mv	s0,a0
80002010:	06d020ef          	jal	ra,8000487c <xTaskGetSchedulerState>
80002014:	0c050463          	beqz	a0,800020dc <xQueueSemaphoreTake+0x114>
80002018:	00000493          	li	s1,0
8000201c:	00000913          	li	s2,0
80002020:	fff00993          	li	s3,-1
80002024:	02440a13          	addi	s4,s0,36
80002028:	475020ef          	jal	ra,80004c9c <vTaskEnterCritical>
8000202c:	03842783          	lw	a5,56(s0)
80002030:	12079063          	bnez	a5,80002150 <xQueueSemaphoreTake+0x188>
80002034:	00c12783          	lw	a5,12(sp)
80002038:	1a078463          	beqz	a5,800021e0 <xQueueSemaphoreTake+0x218>
8000203c:	08090a63          	beqz	s2,800020d0 <xQueueSemaphoreTake+0x108>
80002040:	475020ef          	jal	ra,80004cb4 <vTaskExitCritical>
80002044:	159010ef          	jal	ra,8000399c <vTaskSuspendAll>
80002048:	455020ef          	jal	ra,80004c9c <vTaskEnterCritical>
8000204c:	04444783          	lbu	a5,68(s0)
80002050:	01879793          	slli	a5,a5,0x18
80002054:	4187d793          	srai	a5,a5,0x18
80002058:	01379463          	bne	a5,s3,80002060 <xQueueSemaphoreTake+0x98>
8000205c:	04040223          	sb	zero,68(s0)
80002060:	04544783          	lbu	a5,69(s0)
80002064:	01879793          	slli	a5,a5,0x18
80002068:	4187d793          	srai	a5,a5,0x18
8000206c:	01379463          	bne	a5,s3,80002074 <xQueueSemaphoreTake+0xac>
80002070:	040402a3          	sb	zero,69(s0)
80002074:	441020ef          	jal	ra,80004cb4 <vTaskExitCritical>
80002078:	00c10593          	addi	a1,sp,12
8000207c:	01810513          	addi	a0,sp,24
80002080:	6d0020ef          	jal	ra,80004750 <xTaskCheckForTimeOut>
80002084:	02051463          	bnez	a0,800020ac <xQueueSemaphoreTake+0xe4>
80002088:	415020ef          	jal	ra,80004c9c <vTaskEnterCritical>
8000208c:	03842783          	lw	a5,56(s0)
80002090:	06078063          	beqz	a5,800020f0 <xQueueSemaphoreTake+0x128>
80002094:	421020ef          	jal	ra,80004cb4 <vTaskExitCritical>
80002098:	00040513          	mv	a0,s0
8000209c:	d24ff0ef          	jal	ra,800015c0 <prvUnlockQueue>
800020a0:	5e5010ef          	jal	ra,80003e84 <xTaskResumeAll>
800020a4:	00100913          	li	s2,1
800020a8:	f81ff06f          	j	80002028 <xQueueSemaphoreTake+0x60>
800020ac:	00040513          	mv	a0,s0
800020b0:	d10ff0ef          	jal	ra,800015c0 <prvUnlockQueue>
800020b4:	5d1010ef          	jal	ra,80003e84 <xTaskResumeAll>
800020b8:	3e5020ef          	jal	ra,80004c9c <vTaskEnterCritical>
800020bc:	03842783          	lw	a5,56(s0)
800020c0:	06078263          	beqz	a5,80002124 <xQueueSemaphoreTake+0x15c>
800020c4:	3f1020ef          	jal	ra,80004cb4 <vTaskExitCritical>
800020c8:	00100913          	li	s2,1
800020cc:	f5dff06f          	j	80002028 <xQueueSemaphoreTake+0x60>
800020d0:	01810513          	addi	a0,sp,24
800020d4:	660020ef          	jal	ra,80004734 <vTaskInternalSetTimeOutState>
800020d8:	f69ff06f          	j	80002040 <xQueueSemaphoreTake+0x78>
800020dc:	00c12783          	lw	a5,12(sp)
800020e0:	f2078ce3          	beqz	a5,80002018 <xQueueSemaphoreTake+0x50>
800020e4:	30047073          	csrci	mstatus,8
800020e8:	00100073          	ebreak
800020ec:	0000006f          	j	800020ec <xQueueSemaphoreTake+0x124>
800020f0:	3c5020ef          	jal	ra,80004cb4 <vTaskExitCritical>
800020f4:	00042783          	lw	a5,0(s0)
800020f8:	0c078863          	beqz	a5,800021c8 <xQueueSemaphoreTake+0x200>
800020fc:	00c12583          	lw	a1,12(sp)
80002100:	000a0513          	mv	a0,s4
80002104:	1c4020ef          	jal	ra,800042c8 <vTaskPlaceOnEventList>
80002108:	00040513          	mv	a0,s0
8000210c:	cb4ff0ef          	jal	ra,800015c0 <prvUnlockQueue>
80002110:	575010ef          	jal	ra,80003e84 <xTaskResumeAll>
80002114:	f80518e3          	bnez	a0,800020a4 <xQueueSemaphoreTake+0xdc>
80002118:	00000073          	ecall
8000211c:	00100913          	li	s2,1
80002120:	f09ff06f          	j	80002028 <xQueueSemaphoreTake+0x60>
80002124:	391020ef          	jal	ra,80004cb4 <vTaskExitCritical>
80002128:	04049663          	bnez	s1,80002174 <xQueueSemaphoreTake+0x1ac>
8000212c:	03c12083          	lw	ra,60(sp)
80002130:	03812403          	lw	s0,56(sp)
80002134:	00048513          	mv	a0,s1
80002138:	03012903          	lw	s2,48(sp)
8000213c:	03412483          	lw	s1,52(sp)
80002140:	02c12983          	lw	s3,44(sp)
80002144:	02812a03          	lw	s4,40(sp)
80002148:	04010113          	addi	sp,sp,64
8000214c:	00008067          	ret
80002150:	00042703          	lw	a4,0(s0)
80002154:	fff78793          	addi	a5,a5,-1
80002158:	02f42c23          	sw	a5,56(s0)
8000215c:	06070063          	beqz	a4,800021bc <xQueueSemaphoreTake+0x1f4>
80002160:	01042783          	lw	a5,16(s0)
80002164:	04079263          	bnez	a5,800021a8 <xQueueSemaphoreTake+0x1e0>
80002168:	34d020ef          	jal	ra,80004cb4 <vTaskExitCritical>
8000216c:	00100493          	li	s1,1
80002170:	fbdff06f          	j	8000212c <xQueueSemaphoreTake+0x164>
80002174:	329020ef          	jal	ra,80004c9c <vTaskEnterCritical>
80002178:	02442783          	lw	a5,36(s0)
8000217c:	00000593          	li	a1,0
80002180:	00078a63          	beqz	a5,80002194 <xQueueSemaphoreTake+0x1cc>
80002184:	03042783          	lw	a5,48(s0)
80002188:	00700593          	li	a1,7
8000218c:	0007a783          	lw	a5,0(a5)
80002190:	40f585b3          	sub	a1,a1,a5
80002194:	00842503          	lw	a0,8(s0)
80002198:	00000493          	li	s1,0
8000219c:	1ad020ef          	jal	ra,80004b48 <vTaskPriorityDisinheritAfterTimeout>
800021a0:	315020ef          	jal	ra,80004cb4 <vTaskExitCritical>
800021a4:	f89ff06f          	j	8000212c <xQueueSemaphoreTake+0x164>
800021a8:	01040513          	addi	a0,s0,16
800021ac:	26c020ef          	jal	ra,80004418 <xTaskRemoveFromEventList>
800021b0:	fa050ce3          	beqz	a0,80002168 <xQueueSemaphoreTake+0x1a0>
800021b4:	00000073          	ecall
800021b8:	fb1ff06f          	j	80002168 <xQueueSemaphoreTake+0x1a0>
800021bc:	345020ef          	jal	ra,80004d00 <pvTaskIncrementMutexHeldCount>
800021c0:	00a42423          	sw	a0,8(s0)
800021c4:	f9dff06f          	j	80002160 <xQueueSemaphoreTake+0x198>
800021c8:	2d5020ef          	jal	ra,80004c9c <vTaskEnterCritical>
800021cc:	00842503          	lw	a0,8(s0)
800021d0:	6d0020ef          	jal	ra,800048a0 <xTaskPriorityInherit>
800021d4:	00050493          	mv	s1,a0
800021d8:	2dd020ef          	jal	ra,80004cb4 <vTaskExitCritical>
800021dc:	f21ff06f          	j	800020fc <xQueueSemaphoreTake+0x134>
800021e0:	fc0480e3          	beqz	s1,800021a0 <xQueueSemaphoreTake+0x1d8>
800021e4:	30047073          	csrci	mstatus,8
800021e8:	00100073          	ebreak
800021ec:	0000006f          	j	800021ec <xQueueSemaphoreTake+0x224>

800021f0 <xQueueTakeMutexRecursive>:
800021f0:	08050463          	beqz	a0,80002278 <xQueueTakeMutexRecursive+0x88>
800021f4:	ff010113          	addi	sp,sp,-16
800021f8:	00912223          	sw	s1,4(sp)
800021fc:	00852483          	lw	s1,8(a0)
80002200:	00812423          	sw	s0,8(sp)
80002204:	01212023          	sw	s2,0(sp)
80002208:	00112623          	sw	ra,12(sp)
8000220c:	00058913          	mv	s2,a1
80002210:	00050413          	mv	s0,a0
80002214:	65c020ef          	jal	ra,80004870 <xTaskGetCurrentTaskHandle>
80002218:	02a48c63          	beq	s1,a0,80002250 <xQueueTakeMutexRecursive+0x60>
8000221c:	00090593          	mv	a1,s2
80002220:	00040513          	mv	a0,s0
80002224:	da5ff0ef          	jal	ra,80001fc8 <xQueueSemaphoreTake>
80002228:	02050c63          	beqz	a0,80002260 <xQueueTakeMutexRecursive+0x70>
8000222c:	00c42783          	lw	a5,12(s0)
80002230:	00c12083          	lw	ra,12(sp)
80002234:	00412483          	lw	s1,4(sp)
80002238:	00178793          	addi	a5,a5,1
8000223c:	00f42623          	sw	a5,12(s0)
80002240:	00812403          	lw	s0,8(sp)
80002244:	00012903          	lw	s2,0(sp)
80002248:	01010113          	addi	sp,sp,16
8000224c:	00008067          	ret
80002250:	00c42783          	lw	a5,12(s0)
80002254:	00100513          	li	a0,1
80002258:	00178793          	addi	a5,a5,1
8000225c:	00f42623          	sw	a5,12(s0)
80002260:	00c12083          	lw	ra,12(sp)
80002264:	00812403          	lw	s0,8(sp)
80002268:	00412483          	lw	s1,4(sp)
8000226c:	00012903          	lw	s2,0(sp)
80002270:	01010113          	addi	sp,sp,16
80002274:	00008067          	ret
80002278:	30047073          	csrci	mstatus,8
8000227c:	00100073          	ebreak
80002280:	0000006f          	j	80002280 <xQueueTakeMutexRecursive+0x90>

80002284 <xQueuePeek>:
80002284:	fc010113          	addi	sp,sp,-64
80002288:	02112e23          	sw	ra,60(sp)
8000228c:	02812c23          	sw	s0,56(sp)
80002290:	02912a23          	sw	s1,52(sp)
80002294:	03212823          	sw	s2,48(sp)
80002298:	03312623          	sw	s3,44(sp)
8000229c:	00c12623          	sw	a2,12(sp)
800022a0:	14050463          	beqz	a0,800023e8 <xQueuePeek+0x164>
800022a4:	0e058463          	beqz	a1,8000238c <xQueuePeek+0x108>
800022a8:	00058913          	mv	s2,a1
800022ac:	00050413          	mv	s0,a0
800022b0:	5cc020ef          	jal	ra,8000487c <xTaskGetSchedulerState>
800022b4:	0c050263          	beqz	a0,80002378 <xQueuePeek+0xf4>
800022b8:	1e5020ef          	jal	ra,80004c9c <vTaskEnterCritical>
800022bc:	03842783          	lw	a5,56(s0)
800022c0:	12079a63          	bnez	a5,800023f4 <xQueuePeek+0x170>
800022c4:	00c12783          	lw	a5,12(sp)
800022c8:	08078663          	beqz	a5,80002354 <xQueuePeek+0xd0>
800022cc:	01810513          	addi	a0,sp,24
800022d0:	464020ef          	jal	ra,80004734 <vTaskInternalSetTimeOutState>
800022d4:	fff00493          	li	s1,-1
800022d8:	02440993          	addi	s3,s0,36
800022dc:	1d9020ef          	jal	ra,80004cb4 <vTaskExitCritical>
800022e0:	6bc010ef          	jal	ra,8000399c <vTaskSuspendAll>
800022e4:	1b9020ef          	jal	ra,80004c9c <vTaskEnterCritical>
800022e8:	04444783          	lbu	a5,68(s0)
800022ec:	01879793          	slli	a5,a5,0x18
800022f0:	4187d793          	srai	a5,a5,0x18
800022f4:	00979463          	bne	a5,s1,800022fc <xQueuePeek+0x78>
800022f8:	04040223          	sb	zero,68(s0)
800022fc:	04544783          	lbu	a5,69(s0)
80002300:	01879793          	slli	a5,a5,0x18
80002304:	4187d793          	srai	a5,a5,0x18
80002308:	00979463          	bne	a5,s1,80002310 <xQueuePeek+0x8c>
8000230c:	040402a3          	sb	zero,69(s0)
80002310:	1a5020ef          	jal	ra,80004cb4 <vTaskExitCritical>
80002314:	00c10593          	addi	a1,sp,12
80002318:	01810513          	addi	a0,sp,24
8000231c:	434020ef          	jal	ra,80004750 <xTaskCheckForTimeOut>
80002320:	08051063          	bnez	a0,800023a0 <xQueuePeek+0x11c>
80002324:	179020ef          	jal	ra,80004c9c <vTaskEnterCritical>
80002328:	03842783          	lw	a5,56(s0)
8000232c:	08078a63          	beqz	a5,800023c0 <xQueuePeek+0x13c>
80002330:	185020ef          	jal	ra,80004cb4 <vTaskExitCritical>
80002334:	00040513          	mv	a0,s0
80002338:	a88ff0ef          	jal	ra,800015c0 <prvUnlockQueue>
8000233c:	349010ef          	jal	ra,80003e84 <xTaskResumeAll>
80002340:	15d020ef          	jal	ra,80004c9c <vTaskEnterCritical>
80002344:	03842783          	lw	a5,56(s0)
80002348:	0a079663          	bnez	a5,800023f4 <xQueuePeek+0x170>
8000234c:	00c12783          	lw	a5,12(sp)
80002350:	f80796e3          	bnez	a5,800022dc <xQueuePeek+0x58>
80002354:	161020ef          	jal	ra,80004cb4 <vTaskExitCritical>
80002358:	00000513          	li	a0,0
8000235c:	03c12083          	lw	ra,60(sp)
80002360:	03812403          	lw	s0,56(sp)
80002364:	03412483          	lw	s1,52(sp)
80002368:	03012903          	lw	s2,48(sp)
8000236c:	02c12983          	lw	s3,44(sp)
80002370:	04010113          	addi	sp,sp,64
80002374:	00008067          	ret
80002378:	00c12783          	lw	a5,12(sp)
8000237c:	f2078ee3          	beqz	a5,800022b8 <xQueuePeek+0x34>
80002380:	30047073          	csrci	mstatus,8
80002384:	00100073          	ebreak
80002388:	0000006f          	j	80002388 <xQueuePeek+0x104>
8000238c:	04052783          	lw	a5,64(a0)
80002390:	f0078ce3          	beqz	a5,800022a8 <xQueuePeek+0x24>
80002394:	30047073          	csrci	mstatus,8
80002398:	00100073          	ebreak
8000239c:	0000006f          	j	8000239c <xQueuePeek+0x118>
800023a0:	00040513          	mv	a0,s0
800023a4:	a1cff0ef          	jal	ra,800015c0 <prvUnlockQueue>
800023a8:	2dd010ef          	jal	ra,80003e84 <xTaskResumeAll>
800023ac:	0f1020ef          	jal	ra,80004c9c <vTaskEnterCritical>
800023b0:	03842783          	lw	a5,56(s0)
800023b4:	fa0780e3          	beqz	a5,80002354 <xQueuePeek+0xd0>
800023b8:	0fd020ef          	jal	ra,80004cb4 <vTaskExitCritical>
800023bc:	f85ff06f          	j	80002340 <xQueuePeek+0xbc>
800023c0:	0f5020ef          	jal	ra,80004cb4 <vTaskExitCritical>
800023c4:	00c12583          	lw	a1,12(sp)
800023c8:	00098513          	mv	a0,s3
800023cc:	6fd010ef          	jal	ra,800042c8 <vTaskPlaceOnEventList>
800023d0:	00040513          	mv	a0,s0
800023d4:	9ecff0ef          	jal	ra,800015c0 <prvUnlockQueue>
800023d8:	2ad010ef          	jal	ra,80003e84 <xTaskResumeAll>
800023dc:	f60512e3          	bnez	a0,80002340 <xQueuePeek+0xbc>
800023e0:	00000073          	ecall
800023e4:	f5dff06f          	j	80002340 <xQueuePeek+0xbc>
800023e8:	30047073          	csrci	mstatus,8
800023ec:	00100073          	ebreak
800023f0:	0000006f          	j	800023f0 <xQueuePeek+0x16c>
800023f4:	00090593          	mv	a1,s2
800023f8:	00040513          	mv	a0,s0
800023fc:	00c42483          	lw	s1,12(s0)
80002400:	98cff0ef          	jal	ra,8000158c <prvCopyDataFromQueue>
80002404:	02442783          	lw	a5,36(s0)
80002408:	00942623          	sw	s1,12(s0)
8000240c:	00079863          	bnez	a5,8000241c <xQueuePeek+0x198>
80002410:	0a5020ef          	jal	ra,80004cb4 <vTaskExitCritical>
80002414:	00100513          	li	a0,1
80002418:	f45ff06f          	j	8000235c <xQueuePeek+0xd8>
8000241c:	02440513          	addi	a0,s0,36
80002420:	7f9010ef          	jal	ra,80004418 <xTaskRemoveFromEventList>
80002424:	fe0506e3          	beqz	a0,80002410 <xQueuePeek+0x18c>
80002428:	00000073          	ecall
8000242c:	fe5ff06f          	j	80002410 <xQueuePeek+0x18c>

80002430 <xQueueReceiveFromISR>:
80002430:	06050063          	beqz	a0,80002490 <xQueueReceiveFromISR+0x60>
80002434:	fe010113          	addi	sp,sp,-32
80002438:	00812c23          	sw	s0,24(sp)
8000243c:	00112e23          	sw	ra,28(sp)
80002440:	00912a23          	sw	s1,20(sp)
80002444:	01212823          	sw	s2,16(sp)
80002448:	01312623          	sw	s3,12(sp)
8000244c:	00050413          	mv	s0,a0
80002450:	02058663          	beqz	a1,8000247c <xQueueReceiveFromISR+0x4c>
80002454:	03842983          	lw	s3,56(s0)
80002458:	00000513          	li	a0,0
8000245c:	04099063          	bnez	s3,8000249c <xQueueReceiveFromISR+0x6c>
80002460:	01c12083          	lw	ra,28(sp)
80002464:	01812403          	lw	s0,24(sp)
80002468:	01412483          	lw	s1,20(sp)
8000246c:	01012903          	lw	s2,16(sp)
80002470:	00c12983          	lw	s3,12(sp)
80002474:	02010113          	addi	sp,sp,32
80002478:	00008067          	ret
8000247c:	04052783          	lw	a5,64(a0)
80002480:	fc078ae3          	beqz	a5,80002454 <xQueueReceiveFromISR+0x24>
80002484:	30047073          	csrci	mstatus,8
80002488:	00100073          	ebreak
8000248c:	0000006f          	j	8000248c <xQueueReceiveFromISR+0x5c>
80002490:	30047073          	csrci	mstatus,8
80002494:	00100073          	ebreak
80002498:	0000006f          	j	80002498 <xQueueReceiveFromISR+0x68>
8000249c:	04444483          	lbu	s1,68(s0)
800024a0:	00040513          	mv	a0,s0
800024a4:	00060913          	mv	s2,a2
800024a8:	8e4ff0ef          	jal	ra,8000158c <prvCopyDataFromQueue>
800024ac:	fff98993          	addi	s3,s3,-1
800024b0:	01849793          	slli	a5,s1,0x18
800024b4:	4187d793          	srai	a5,a5,0x18
800024b8:	03342c23          	sw	s3,56(s0)
800024bc:	fff00713          	li	a4,-1
800024c0:	02e78e63          	beq	a5,a4,800024fc <xQueueReceiveFromISR+0xcc>
800024c4:	07f00713          	li	a4,127
800024c8:	04e78e63          	beq	a5,a4,80002524 <xQueueReceiveFromISR+0xf4>
800024cc:	00148793          	addi	a5,s1,1
800024d0:	01879793          	slli	a5,a5,0x18
800024d4:	4187d793          	srai	a5,a5,0x18
800024d8:	04f40223          	sb	a5,68(s0)
800024dc:	01c12083          	lw	ra,28(sp)
800024e0:	01812403          	lw	s0,24(sp)
800024e4:	01412483          	lw	s1,20(sp)
800024e8:	01012903          	lw	s2,16(sp)
800024ec:	00c12983          	lw	s3,12(sp)
800024f0:	00100513          	li	a0,1
800024f4:	02010113          	addi	sp,sp,32
800024f8:	00008067          	ret
800024fc:	01042783          	lw	a5,16(s0)
80002500:	fc078ee3          	beqz	a5,800024dc <xQueueReceiveFromISR+0xac>
80002504:	01040513          	addi	a0,s0,16
80002508:	711010ef          	jal	ra,80004418 <xTaskRemoveFromEventList>
8000250c:	fc0508e3          	beqz	a0,800024dc <xQueueReceiveFromISR+0xac>
80002510:	fc0906e3          	beqz	s2,800024dc <xQueueReceiveFromISR+0xac>
80002514:	00100793          	li	a5,1
80002518:	00f92023          	sw	a5,0(s2)
8000251c:	00100513          	li	a0,1
80002520:	f41ff06f          	j	80002460 <xQueueReceiveFromISR+0x30>
80002524:	30047073          	csrci	mstatus,8
80002528:	00100073          	ebreak
8000252c:	0000006f          	j	8000252c <xQueueReceiveFromISR+0xfc>

80002530 <xQueuePeekFromISR>:
80002530:	04050c63          	beqz	a0,80002588 <xQueuePeekFromISR+0x58>
80002534:	ff010113          	addi	sp,sp,-16
80002538:	00912223          	sw	s1,4(sp)
8000253c:	00112623          	sw	ra,12(sp)
80002540:	00812423          	sw	s0,8(sp)
80002544:	00050493          	mv	s1,a0
80002548:	04052703          	lw	a4,64(a0)
8000254c:	02058663          	beqz	a1,80002578 <xQueuePeekFromISR+0x48>
80002550:	02070663          	beqz	a4,8000257c <xQueuePeekFromISR+0x4c>
80002554:	03852683          	lw	a3,56(a0)
80002558:	00000713          	li	a4,0
8000255c:	02069c63          	bnez	a3,80002594 <xQueuePeekFromISR+0x64>
80002560:	00c12083          	lw	ra,12(sp)
80002564:	00812403          	lw	s0,8(sp)
80002568:	00412483          	lw	s1,4(sp)
8000256c:	00070513          	mv	a0,a4
80002570:	01010113          	addi	sp,sp,16
80002574:	00008067          	ret
80002578:	02071863          	bnez	a4,800025a8 <xQueuePeekFromISR+0x78>
8000257c:	30047073          	csrci	mstatus,8
80002580:	00100073          	ebreak
80002584:	0000006f          	j	80002584 <xQueuePeekFromISR+0x54>
80002588:	30047073          	csrci	mstatus,8
8000258c:	00100073          	ebreak
80002590:	0000006f          	j	80002590 <xQueuePeekFromISR+0x60>
80002594:	00c52403          	lw	s0,12(a0)
80002598:	ff5fe0ef          	jal	ra,8000158c <prvCopyDataFromQueue>
8000259c:	00100713          	li	a4,1
800025a0:	0084a623          	sw	s0,12(s1)
800025a4:	fbdff06f          	j	80002560 <xQueuePeekFromISR+0x30>
800025a8:	30047073          	csrci	mstatus,8
800025ac:	00100073          	ebreak
800025b0:	0000006f          	j	800025b0 <xQueuePeekFromISR+0x80>

800025b4 <uxQueueMessagesWaiting>:
800025b4:	02050a63          	beqz	a0,800025e8 <uxQueueMessagesWaiting+0x34>
800025b8:	ff010113          	addi	sp,sp,-16
800025bc:	00812423          	sw	s0,8(sp)
800025c0:	00050413          	mv	s0,a0
800025c4:	00112623          	sw	ra,12(sp)
800025c8:	6d4020ef          	jal	ra,80004c9c <vTaskEnterCritical>
800025cc:	03842403          	lw	s0,56(s0)
800025d0:	6e4020ef          	jal	ra,80004cb4 <vTaskExitCritical>
800025d4:	00c12083          	lw	ra,12(sp)
800025d8:	00040513          	mv	a0,s0
800025dc:	00812403          	lw	s0,8(sp)
800025e0:	01010113          	addi	sp,sp,16
800025e4:	00008067          	ret
800025e8:	30047073          	csrci	mstatus,8
800025ec:	00100073          	ebreak
800025f0:	0000006f          	j	800025f0 <uxQueueMessagesWaiting+0x3c>

800025f4 <uxQueueSpacesAvailable>:
800025f4:	02050e63          	beqz	a0,80002630 <uxQueueSpacesAvailable+0x3c>
800025f8:	ff010113          	addi	sp,sp,-16
800025fc:	00112623          	sw	ra,12(sp)
80002600:	00812423          	sw	s0,8(sp)
80002604:	00050413          	mv	s0,a0
80002608:	694020ef          	jal	ra,80004c9c <vTaskEnterCritical>
8000260c:	03842783          	lw	a5,56(s0)
80002610:	03c42403          	lw	s0,60(s0)
80002614:	40f40433          	sub	s0,s0,a5
80002618:	69c020ef          	jal	ra,80004cb4 <vTaskExitCritical>
8000261c:	00040513          	mv	a0,s0
80002620:	00c12083          	lw	ra,12(sp)
80002624:	00812403          	lw	s0,8(sp)
80002628:	01010113          	addi	sp,sp,16
8000262c:	00008067          	ret
80002630:	30047073          	csrci	mstatus,8
80002634:	00100073          	ebreak
80002638:	0000006f          	j	80002638 <uxQueueSpacesAvailable+0x44>

8000263c <uxQueueMessagesWaitingFromISR>:
8000263c:	00050663          	beqz	a0,80002648 <uxQueueMessagesWaitingFromISR+0xc>
80002640:	03852503          	lw	a0,56(a0)
80002644:	00008067          	ret
80002648:	30047073          	csrci	mstatus,8
8000264c:	00100073          	ebreak
80002650:	0000006f          	j	80002650 <uxQueueMessagesWaitingFromISR+0x14>

80002654 <vQueueDelete>:
80002654:	02050663          	beqz	a0,80002680 <vQueueDelete+0x2c>
80002658:	ff010113          	addi	sp,sp,-16
8000265c:	00812423          	sw	s0,8(sp)
80002660:	00112623          	sw	ra,12(sp)
80002664:	00050413          	mv	s0,a0
80002668:	864ff0ef          	jal	ra,800016cc <vQueueUnregisterQueue.part.2>
8000266c:	00040513          	mv	a0,s0
80002670:	00812403          	lw	s0,8(sp)
80002674:	00c12083          	lw	ra,12(sp)
80002678:	01010113          	addi	sp,sp,16
8000267c:	02c0306f          	j	800056a8 <vPortFree>
80002680:	30047073          	csrci	mstatus,8
80002684:	00100073          	ebreak
80002688:	0000006f          	j	80002688 <vQueueDelete+0x34>

8000268c <xQueueIsQueueEmptyFromISR>:
8000268c:	00050863          	beqz	a0,8000269c <xQueueIsQueueEmptyFromISR+0x10>
80002690:	03852503          	lw	a0,56(a0)
80002694:	00153513          	seqz	a0,a0
80002698:	00008067          	ret
8000269c:	30047073          	csrci	mstatus,8
800026a0:	00100073          	ebreak
800026a4:	0000006f          	j	800026a4 <xQueueIsQueueEmptyFromISR+0x18>

800026a8 <xQueueIsQueueFullFromISR>:
800026a8:	00050c63          	beqz	a0,800026c0 <xQueueIsQueueFullFromISR+0x18>
800026ac:	03852783          	lw	a5,56(a0)
800026b0:	03c52503          	lw	a0,60(a0)
800026b4:	40f50533          	sub	a0,a0,a5
800026b8:	00153513          	seqz	a0,a0
800026bc:	00008067          	ret
800026c0:	30047073          	csrci	mstatus,8
800026c4:	00100073          	ebreak
800026c8:	0000006f          	j	800026c8 <xQueueIsQueueFullFromISR+0x20>

800026cc <vQueueAddToRegistry>:
800026cc:	08050463          	beqz	a0,80002754 <vQueueAddToRegistry+0x88>
800026d0:	04058263          	beqz	a1,80002714 <vQueueAddToRegistry+0x48>
800026d4:	81001637          	lui	a2,0x81001
800026d8:	00000793          	li	a5,0
800026dc:	00000813          	li	a6,0
800026e0:	40c60613          	addi	a2,a2,1036 # 8100140c <__heap_start+0xfc00055c>
800026e4:	00800893          	li	a7,8
800026e8:	00381713          	slli	a4,a6,0x3
800026ec:	00e606b3          	add	a3,a2,a4
800026f0:	0046a303          	lw	t1,4(a3)
800026f4:	06a30863          	beq	t1,a0,80002764 <vQueueAddToRegistry+0x98>
800026f8:	00180713          	addi	a4,a6,1
800026fc:	00078e63          	beqz	a5,80002718 <vQueueAddToRegistry+0x4c>
80002700:	00070813          	mv	a6,a4
80002704:	ff1712e3          	bne	a4,a7,800026e8 <vQueueAddToRegistry+0x1c>
80002708:	00078663          	beqz	a5,80002714 <vQueueAddToRegistry+0x48>
8000270c:	00b7a023          	sw	a1,0(a5)
80002710:	00a7a223          	sw	a0,4(a5)
80002714:	00008067          	ret
80002718:	00868693          	addi	a3,a3,8
8000271c:	00080793          	mv	a5,a6
80002720:	ff86a803          	lw	a6,-8(a3)
80002724:	02080263          	beqz	a6,80002748 <vQueueAddToRegistry+0x7c>
80002728:	ff1706e3          	beq	a4,a7,80002714 <vQueueAddToRegistry+0x48>
8000272c:	0046a803          	lw	a6,4(a3)
80002730:	00070793          	mv	a5,a4
80002734:	03050663          	beq	a0,a6,80002760 <vQueueAddToRegistry+0x94>
80002738:	00868693          	addi	a3,a3,8
8000273c:	ff86a803          	lw	a6,-8(a3)
80002740:	00170713          	addi	a4,a4,1
80002744:	fe0812e3          	bnez	a6,80002728 <vQueueAddToRegistry+0x5c>
80002748:	00379793          	slli	a5,a5,0x3
8000274c:	00f607b3          	add	a5,a2,a5
80002750:	fb1ff06f          	j	80002700 <vQueueAddToRegistry+0x34>
80002754:	30047073          	csrci	mstatus,8
80002758:	00100073          	ebreak
8000275c:	0000006f          	j	8000275c <vQueueAddToRegistry+0x90>
80002760:	00371713          	slli	a4,a4,0x3
80002764:	00e607b3          	add	a5,a2,a4
80002768:	00b7a023          	sw	a1,0(a5)
8000276c:	00a7a223          	sw	a0,4(a5)
80002770:	fa5ff06f          	j	80002714 <vQueueAddToRegistry+0x48>

80002774 <pcQueueGetName>:
80002774:	04050263          	beqz	a0,800027b8 <pcQueueGetName+0x44>
80002778:	81001737          	lui	a4,0x81001
8000277c:	40c70693          	addi	a3,a4,1036 # 8100140c <__heap_start+0xfc00055c>
80002780:	00000793          	li	a5,0
80002784:	40c70713          	addi	a4,a4,1036
80002788:	00800613          	li	a2,8
8000278c:	00472583          	lw	a1,4(a4)
80002790:	00870713          	addi	a4,a4,8
80002794:	00a58a63          	beq	a1,a0,800027a8 <pcQueueGetName+0x34>
80002798:	00178793          	addi	a5,a5,1
8000279c:	fec798e3          	bne	a5,a2,8000278c <pcQueueGetName+0x18>
800027a0:	00000513          	li	a0,0
800027a4:	00008067          	ret
800027a8:	00379793          	slli	a5,a5,0x3
800027ac:	00f687b3          	add	a5,a3,a5
800027b0:	0007a503          	lw	a0,0(a5)
800027b4:	00008067          	ret
800027b8:	30047073          	csrci	mstatus,8
800027bc:	00100073          	ebreak
800027c0:	0000006f          	j	800027c0 <pcQueueGetName+0x4c>

800027c4 <vQueueUnregisterQueue>:
800027c4:	00050463          	beqz	a0,800027cc <vQueueUnregisterQueue+0x8>
800027c8:	f05fe06f          	j	800016cc <vQueueUnregisterQueue.part.2>
800027cc:	30047073          	csrci	mstatus,8
800027d0:	00100073          	ebreak
800027d4:	0000006f          	j	800027d4 <vQueueUnregisterQueue+0x10>

800027d8 <vQueueWaitForMessageRestricted>:
800027d8:	ff010113          	addi	sp,sp,-16
800027dc:	00812423          	sw	s0,8(sp)
800027e0:	00912223          	sw	s1,4(sp)
800027e4:	01212023          	sw	s2,0(sp)
800027e8:	00050413          	mv	s0,a0
800027ec:	00112623          	sw	ra,12(sp)
800027f0:	00058493          	mv	s1,a1
800027f4:	00060913          	mv	s2,a2
800027f8:	4a4020ef          	jal	ra,80004c9c <vTaskEnterCritical>
800027fc:	04444783          	lbu	a5,68(s0)
80002800:	fff00713          	li	a4,-1
80002804:	01879793          	slli	a5,a5,0x18
80002808:	4187d793          	srai	a5,a5,0x18
8000280c:	00e79463          	bne	a5,a4,80002814 <vQueueWaitForMessageRestricted+0x3c>
80002810:	04040223          	sb	zero,68(s0)
80002814:	04544783          	lbu	a5,69(s0)
80002818:	fff00713          	li	a4,-1
8000281c:	01879793          	slli	a5,a5,0x18
80002820:	4187d793          	srai	a5,a5,0x18
80002824:	00e79463          	bne	a5,a4,8000282c <vQueueWaitForMessageRestricted+0x54>
80002828:	040402a3          	sb	zero,69(s0)
8000282c:	488020ef          	jal	ra,80004cb4 <vTaskExitCritical>
80002830:	03842783          	lw	a5,56(s0)
80002834:	02078063          	beqz	a5,80002854 <vQueueWaitForMessageRestricted+0x7c>
80002838:	00040513          	mv	a0,s0
8000283c:	00812403          	lw	s0,8(sp)
80002840:	00c12083          	lw	ra,12(sp)
80002844:	00412483          	lw	s1,4(sp)
80002848:	00012903          	lw	s2,0(sp)
8000284c:	01010113          	addi	sp,sp,16
80002850:	d71fe06f          	j	800015c0 <prvUnlockQueue>
80002854:	02440513          	addi	a0,s0,36
80002858:	00090613          	mv	a2,s2
8000285c:	00048593          	mv	a1,s1
80002860:	345010ef          	jal	ra,800043a4 <vTaskPlaceOnEventListRestricted>
80002864:	00040513          	mv	a0,s0
80002868:	00812403          	lw	s0,8(sp)
8000286c:	00c12083          	lw	ra,12(sp)
80002870:	00412483          	lw	s1,4(sp)
80002874:	00012903          	lw	s2,0(sp)
80002878:	01010113          	addi	sp,sp,16
8000287c:	d45fe06f          	j	800015c0 <prvUnlockQueue>

80002880 <prvSearchForNameWithinSingleList>:
80002880:	00052783          	lw	a5,0(a0)
80002884:	00050313          	mv	t1,a0
80002888:	04078c63          	beqz	a5,800028e0 <prvSearchForNameWithinSingleList+0x60>
8000288c:	00452783          	lw	a5,4(a0)
80002890:	00850e13          	addi	t3,a0,8
80002894:	0047a883          	lw	a7,4(a5)
80002898:	01152223          	sw	a7,4(a0)
8000289c:	05c88e63          	beq	a7,t3,800028f8 <prvSearchForNameWithinSingleList+0x78>
800028a0:	00c8ae83          	lw	t4,12(a7)
800028a4:	0048a883          	lw	a7,4(a7)
800028a8:	01132223          	sw	a7,4(t1)
800028ac:	031e0e63          	beq	t3,a7,800028e8 <prvSearchForNameWithinSingleList+0x68>
800028b0:	00c8a503          	lw	a0,12(a7)
800028b4:	00058713          	mv	a4,a1
800028b8:	03450793          	addi	a5,a0,52
800028bc:	04450813          	addi	a6,a0,68
800028c0:	00074683          	lbu	a3,0(a4)
800028c4:	0007c603          	lbu	a2,0(a5)
800028c8:	00170713          	addi	a4,a4,1
800028cc:	00178793          	addi	a5,a5,1
800028d0:	00c69663          	bne	a3,a2,800028dc <prvSearchForNameWithinSingleList+0x5c>
800028d4:	02068063          	beqz	a3,800028f4 <prvSearchForNameWithinSingleList+0x74>
800028d8:	ff0794e3          	bne	a5,a6,800028c0 <prvSearchForNameWithinSingleList+0x40>
800028dc:	fcae94e3          	bne	t4,a0,800028a4 <prvSearchForNameWithinSingleList+0x24>
800028e0:	00000513          	li	a0,0
800028e4:	00008067          	ret
800028e8:	004e2883          	lw	a7,4(t3)
800028ec:	01132223          	sw	a7,4(t1)
800028f0:	fc1ff06f          	j	800028b0 <prvSearchForNameWithinSingleList+0x30>
800028f4:	00008067          	ret
800028f8:	00c52883          	lw	a7,12(a0)
800028fc:	fa5ff06f          	j	800028a0 <prvSearchForNameWithinSingleList+0x20>

80002900 <prvAddCurrentTaskToDelayedList>:
80002900:	fe010113          	addi	sp,sp,-32
80002904:	00812c23          	sw	s0,24(sp)
80002908:	810007b7          	lui	a5,0x81000
8000290c:	81000437          	lui	s0,0x81000
80002910:	01212823          	sw	s2,16(sp)
80002914:	6747a903          	lw	s2,1652(a5) # 81000674 <__heap_start+0xfbfff7c4>
80002918:	68842703          	lw	a4,1672(s0) # 81000688 <__heap_start+0xfbfff7d8>
8000291c:	68842783          	lw	a5,1672(s0)
80002920:	00912a23          	sw	s1,20(sp)
80002924:	01312623          	sw	s3,12(sp)
80002928:	00112e23          	sw	ra,28(sp)
8000292c:	00050493          	mv	s1,a0
80002930:	04070aa3          	sb	zero,85(a4)
80002934:	00478513          	addi	a0,a5,4
80002938:	00058993          	mv	s3,a1
8000293c:	ad9fe0ef          	jal	ra,80001414 <uxListRemove>
80002940:	02051463          	bnez	a0,80002968 <prvAddCurrentTaskToDelayedList+0x68>
80002944:	68842783          	lw	a5,1672(s0)
80002948:	81000737          	lui	a4,0x81000
8000294c:	67072683          	lw	a3,1648(a4) # 81000670 <__heap_start+0xfbfff7c0>
80002950:	02c7a603          	lw	a2,44(a5)
80002954:	00100793          	li	a5,1
80002958:	00c797b3          	sll	a5,a5,a2
8000295c:	fff7c793          	not	a5,a5
80002960:	00d7f7b3          	and	a5,a5,a3
80002964:	66f72823          	sw	a5,1648(a4)
80002968:	fff00793          	li	a5,-1
8000296c:	08f48063          	beq	s1,a5,800029ec <prvAddCurrentTaskToDelayedList+0xec>
80002970:	68842783          	lw	a5,1672(s0)
80002974:	009904b3          	add	s1,s2,s1
80002978:	0097a223          	sw	s1,4(a5)
8000297c:	0524e263          	bltu	s1,s2,800029c0 <prvAddCurrentTaskToDelayedList+0xc0>
80002980:	810007b7          	lui	a5,0x81000
80002984:	6847a503          	lw	a0,1668(a5) # 81000684 <__heap_start+0xfbfff7d4>
80002988:	68842583          	lw	a1,1672(s0)
8000298c:	00458593          	addi	a1,a1,4
80002990:	a31fe0ef          	jal	ra,800013c0 <vListInsert>
80002994:	810007b7          	lui	a5,0x81000
80002998:	6587a703          	lw	a4,1624(a5) # 81000658 <__heap_start+0xfbfff7a8>
8000299c:	00e4f463          	bleu	a4,s1,800029a4 <prvAddCurrentTaskToDelayedList+0xa4>
800029a0:	6497ac23          	sw	s1,1624(a5)
800029a4:	01c12083          	lw	ra,28(sp)
800029a8:	01812403          	lw	s0,24(sp)
800029ac:	01412483          	lw	s1,20(sp)
800029b0:	01012903          	lw	s2,16(sp)
800029b4:	00c12983          	lw	s3,12(sp)
800029b8:	02010113          	addi	sp,sp,32
800029bc:	00008067          	ret
800029c0:	810007b7          	lui	a5,0x81000
800029c4:	6807a503          	lw	a0,1664(a5) # 81000680 <__heap_start+0xfbfff7d0>
800029c8:	68842583          	lw	a1,1672(s0)
800029cc:	01812403          	lw	s0,24(sp)
800029d0:	01c12083          	lw	ra,28(sp)
800029d4:	01412483          	lw	s1,20(sp)
800029d8:	01012903          	lw	s2,16(sp)
800029dc:	00c12983          	lw	s3,12(sp)
800029e0:	00458593          	addi	a1,a1,4
800029e4:	02010113          	addi	sp,sp,32
800029e8:	9d9fe06f          	j	800013c0 <vListInsert>
800029ec:	f80982e3          	beqz	s3,80002970 <prvAddCurrentTaskToDelayedList+0x70>
800029f0:	810007b7          	lui	a5,0x81000
800029f4:	00078793          	mv	a5,a5
800029f8:	0047a703          	lw	a4,4(a5) # 81000004 <__heap_start+0xfbfff154>
800029fc:	68842583          	lw	a1,1672(s0)
80002a00:	68842683          	lw	a3,1672(s0)
80002a04:	00872603          	lw	a2,8(a4)
80002a08:	00e5a423          	sw	a4,8(a1)
80002a0c:	68842583          	lw	a1,1672(s0)
80002a10:	00c6a623          	sw	a2,12(a3)
80002a14:	00872803          	lw	a6,8(a4)
80002a18:	68842603          	lw	a2,1672(s0)
80002a1c:	68842503          	lw	a0,1672(s0)
80002a20:	0007a683          	lw	a3,0(a5)
80002a24:	00458593          	addi	a1,a1,4
80002a28:	00b82223          	sw	a1,4(a6)
80002a2c:	01c12083          	lw	ra,28(sp)
80002a30:	01812403          	lw	s0,24(sp)
80002a34:	00460613          	addi	a2,a2,4
80002a38:	00c72423          	sw	a2,8(a4)
80002a3c:	00168713          	addi	a4,a3,1
80002a40:	00f52a23          	sw	a5,20(a0)
80002a44:	00e7a023          	sw	a4,0(a5)
80002a48:	01412483          	lw	s1,20(sp)
80002a4c:	01012903          	lw	s2,16(sp)
80002a50:	00c12983          	lw	s3,12(sp)
80002a54:	02010113          	addi	sp,sp,32
80002a58:	00008067          	ret

80002a5c <prvResetNextTaskUnblockTime.part.1>:
80002a5c:	810007b7          	lui	a5,0x81000
80002a60:	6847a783          	lw	a5,1668(a5) # 81000684 <__heap_start+0xfbfff7d4>
80002a64:	00c7a783          	lw	a5,12(a5)
80002a68:	0007a703          	lw	a4,0(a5)
80002a6c:	810007b7          	lui	a5,0x81000
80002a70:	64e7ac23          	sw	a4,1624(a5) # 81000658 <__heap_start+0xfbfff7a8>
80002a74:	00008067          	ret

80002a78 <vTaskSwitchContext.part.4>:
80002a78:	ff010113          	addi	sp,sp,-16
80002a7c:	810007b7          	lui	a5,0x81000
80002a80:	00812423          	sw	s0,8(sp)
80002a84:	6607a223          	sw	zero,1636(a5) # 81000664 <__heap_start+0xfbfff7b4>
80002a88:	81000437          	lui	s0,0x81000
80002a8c:	68842783          	lw	a5,1672(s0) # 81000688 <__heap_start+0xfbfff7d8>
80002a90:	a5a5a737          	lui	a4,0xa5a5a
80002a94:	00112623          	sw	ra,12(sp)
80002a98:	0307a783          	lw	a5,48(a5)
80002a9c:	5a570713          	addi	a4,a4,1445 # a5a5a5a5 <__heap_start+0x20a596f5>
80002aa0:	0007a603          	lw	a2,0(a5)
80002aa4:	00e61663          	bne	a2,a4,80002ab0 <vTaskSwitchContext.part.4+0x38>
80002aa8:	0047a683          	lw	a3,4(a5)
80002aac:	08c68263          	beq	a3,a2,80002b30 <vTaskSwitchContext.part.4+0xb8>
80002ab0:	68842503          	lw	a0,1672(s0)
80002ab4:	68842583          	lw	a1,1672(s0)
80002ab8:	03458593          	addi	a1,a1,52
80002abc:	8e1fd0ef          	jal	ra,8000039c <vApplicationStackOverflowHook>
80002ac0:	810007b7          	lui	a5,0x81000
80002ac4:	6707a503          	lw	a0,1648(a5) # 81000670 <__heap_start+0xfbfff7c0>
80002ac8:	1bd030ef          	jal	ra,80006484 <__clzsi2>
80002acc:	01f00713          	li	a4,31
80002ad0:	40a70733          	sub	a4,a4,a0
80002ad4:	00271793          	slli	a5,a4,0x2
80002ad8:	00e78733          	add	a4,a5,a4
80002adc:	810007b7          	lui	a5,0x81000
80002ae0:	00078793          	mv	a5,a5
80002ae4:	00271713          	slli	a4,a4,0x2
80002ae8:	00e786b3          	add	a3,a5,a4
80002aec:	0146a603          	lw	a2,20(a3)
80002af0:	00061863          	bnez	a2,80002b00 <vTaskSwitchContext.part.4+0x88>
80002af4:	30047073          	csrci	mstatus,8
80002af8:	00100073          	ebreak
80002afc:	0000006f          	j	80002afc <vTaskSwitchContext.part.4+0x84>
80002b00:	0186a603          	lw	a2,24(a3)
80002b04:	00e787b3          	add	a5,a5,a4
80002b08:	01c78793          	addi	a5,a5,28 # 8100001c <__heap_start+0xfbfff16c>
80002b0c:	00462703          	lw	a4,4(a2)
80002b10:	00e6ac23          	sw	a4,24(a3)
80002b14:	02f70863          	beq	a4,a5,80002b44 <vTaskSwitchContext.part.4+0xcc>
80002b18:	00c72783          	lw	a5,12(a4)
80002b1c:	00c12083          	lw	ra,12(sp)
80002b20:	68f42423          	sw	a5,1672(s0)
80002b24:	00812403          	lw	s0,8(sp)
80002b28:	01010113          	addi	sp,sp,16
80002b2c:	00008067          	ret
80002b30:	0087a703          	lw	a4,8(a5)
80002b34:	f6d71ee3          	bne	a4,a3,80002ab0 <vTaskSwitchContext.part.4+0x38>
80002b38:	00c7a783          	lw	a5,12(a5)
80002b3c:	f6e79ae3          	bne	a5,a4,80002ab0 <vTaskSwitchContext.part.4+0x38>
80002b40:	f81ff06f          	j	80002ac0 <vTaskSwitchContext.part.4+0x48>
80002b44:	00472703          	lw	a4,4(a4)
80002b48:	00c12083          	lw	ra,12(sp)
80002b4c:	00c72783          	lw	a5,12(a4)
80002b50:	00e6ac23          	sw	a4,24(a3)
80002b54:	68f42423          	sw	a5,1672(s0)
80002b58:	00812403          	lw	s0,8(sp)
80002b5c:	01010113          	addi	sp,sp,16
80002b60:	00008067          	ret

80002b64 <vTaskEnterCritical.part.5>:
80002b64:	810007b7          	lui	a5,0x81000
80002b68:	6887a703          	lw	a4,1672(a5) # 81000688 <__heap_start+0xfbfff7d8>
80002b6c:	6887a783          	lw	a5,1672(a5)
80002b70:	04472783          	lw	a5,68(a4)
80002b74:	00178793          	addi	a5,a5,1
80002b78:	04f72223          	sw	a5,68(a4)
80002b7c:	00008067          	ret

80002b80 <vTaskExitCritical.part.6>:
80002b80:	810007b7          	lui	a5,0x81000
80002b84:	6887a703          	lw	a4,1672(a5) # 81000688 <__heap_start+0xfbfff7d8>
80002b88:	6887a683          	lw	a3,1672(a5)
80002b8c:	04472783          	lw	a5,68(a4)
80002b90:	fff78793          	addi	a5,a5,-1
80002b94:	04f72223          	sw	a5,68(a4)
80002b98:	0446a783          	lw	a5,68(a3)
80002b9c:	00079463          	bnez	a5,80002ba4 <vTaskExitCritical.part.6+0x24>
80002ba0:	30046073          	csrsi	mstatus,8
80002ba4:	00008067          	ret

80002ba8 <prvIdleTask>:
80002ba8:	fe010113          	addi	sp,sp,-32
80002bac:	01412423          	sw	s4,8(sp)
80002bb0:	81000a37          	lui	s4,0x81000
80002bb4:	00812c23          	sw	s0,24(sp)
80002bb8:	01212823          	sw	s2,16(sp)
80002bbc:	01312623          	sw	s3,12(sp)
80002bc0:	01512223          	sw	s5,4(sp)
80002bc4:	00112e23          	sw	ra,28(sp)
80002bc8:	00912a23          	sw	s1,20(sp)
80002bcc:	81000437          	lui	s0,0x81000
80002bd0:	810009b7          	lui	s3,0x81000
80002bd4:	000a0a13          	mv	s4,s4
80002bd8:	81000937          	lui	s2,0x81000
80002bdc:	81000ab7          	lui	s5,0x81000
80002be0:	67c42783          	lw	a5,1660(s0) # 8100067c <__heap_start+0xfbfff7cc>
80002be4:	fe078ee3          	beqz	a5,80002be0 <prvIdleTask+0x38>
80002be8:	30047073          	csrci	mstatus,8
80002bec:	66c9a783          	lw	a5,1644(s3) # 8100066c <__heap_start+0xfbfff7bc>
80002bf0:	00078463          	beqz	a5,80002bf8 <prvIdleTask+0x50>
80002bf4:	f71ff0ef          	jal	ra,80002b64 <vTaskEnterCritical.part.5>
80002bf8:	0aca2783          	lw	a5,172(s4) # 810000ac <__heap_start+0xfbfff1fc>
80002bfc:	00c7a483          	lw	s1,12(a5)
80002c00:	00448513          	addi	a0,s1,4
80002c04:	811fe0ef          	jal	ra,80001414 <uxListRemove>
80002c08:	67892783          	lw	a5,1656(s2) # 81000678 <__heap_start+0xfbfff7c8>
80002c0c:	fff78793          	addi	a5,a5,-1
80002c10:	66f92c23          	sw	a5,1656(s2)
80002c14:	67c42783          	lw	a5,1660(s0)
80002c18:	fff78793          	addi	a5,a5,-1
80002c1c:	66f42e23          	sw	a5,1660(s0)
80002c20:	66c9a783          	lw	a5,1644(s3)
80002c24:	00078a63          	beqz	a5,80002c38 <prvIdleTask+0x90>
80002c28:	688aa783          	lw	a5,1672(s5) # 81000688 <__heap_start+0xfbfff7d8>
80002c2c:	0447a783          	lw	a5,68(a5)
80002c30:	00078463          	beqz	a5,80002c38 <prvIdleTask+0x90>
80002c34:	f4dff0ef          	jal	ra,80002b80 <vTaskExitCritical.part.6>
80002c38:	0304a503          	lw	a0,48(s1)
80002c3c:	26d020ef          	jal	ra,800056a8 <vPortFree>
80002c40:	00048513          	mv	a0,s1
80002c44:	265020ef          	jal	ra,800056a8 <vPortFree>
80002c48:	67c42783          	lw	a5,1660(s0)
80002c4c:	f8079ee3          	bnez	a5,80002be8 <prvIdleTask+0x40>
80002c50:	f91ff06f          	j	80002be0 <prvIdleTask+0x38>

80002c54 <xTaskCreate>:
80002c54:	fd010113          	addi	sp,sp,-48
80002c58:	01312e23          	sw	s3,28(sp)
80002c5c:	00261993          	slli	s3,a2,0x2
80002c60:	01612823          	sw	s6,16(sp)
80002c64:	00050b13          	mv	s6,a0
80002c68:	00098513          	mv	a0,s3
80002c6c:	02812423          	sw	s0,40(sp)
80002c70:	01412c23          	sw	s4,24(sp)
80002c74:	01512a23          	sw	s5,20(sp)
80002c78:	01712623          	sw	s7,12(sp)
80002c7c:	02112623          	sw	ra,44(sp)
80002c80:	02912223          	sw	s1,36(sp)
80002c84:	03212023          	sw	s2,32(sp)
80002c88:	01812423          	sw	s8,8(sp)
80002c8c:	00058413          	mv	s0,a1
80002c90:	00068b93          	mv	s7,a3
80002c94:	00070a13          	mv	s4,a4
80002c98:	00078a93          	mv	s5,a5
80002c9c:	1b9020ef          	jal	ra,80005654 <pvPortMalloc>
80002ca0:	06050863          	beqz	a0,80002d10 <xTaskCreate+0xbc>
80002ca4:	00050913          	mv	s2,a0
80002ca8:	05800513          	li	a0,88
80002cac:	1a9020ef          	jal	ra,80005654 <pvPortMalloc>
80002cb0:	00050493          	mv	s1,a0
80002cb4:	20050663          	beqz	a0,80002ec0 <xTaskCreate+0x26c>
80002cb8:	03252823          	sw	s2,48(a0)
80002cbc:	00098613          	mv	a2,s3
80002cc0:	00090513          	mv	a0,s2
80002cc4:	0a500593          	li	a1,165
80002cc8:	d60fe0ef          	jal	ra,80001228 <memset>
80002ccc:	0304a903          	lw	s2,48(s1)
80002cd0:	20040063          	beqz	s0,80002ed0 <xTaskCreate+0x27c>
80002cd4:	00040593          	mv	a1,s0
80002cd8:	03448793          	addi	a5,s1,52
80002cdc:	01040693          	addi	a3,s0,16
80002ce0:	0005c703          	lbu	a4,0(a1)
80002ce4:	00178793          	addi	a5,a5,1
80002ce8:	00158593          	addi	a1,a1,1
80002cec:	fee78fa3          	sb	a4,-1(a5)
80002cf0:	00070463          	beqz	a4,80002cf8 <xTaskCreate+0xa4>
80002cf4:	fed596e3          	bne	a1,a3,80002ce0 <xTaskCreate+0x8c>
80002cf8:	040481a3          	sb	zero,67(s1)
80002cfc:	00600793          	li	a5,6
80002d00:	0547f263          	bleu	s4,a5,80002d44 <xTaskCreate+0xf0>
80002d04:	30047073          	csrci	mstatus,8
80002d08:	00100073          	ebreak
80002d0c:	0000006f          	j	80002d0c <xTaskCreate+0xb8>
80002d10:	fff00513          	li	a0,-1
80002d14:	02c12083          	lw	ra,44(sp)
80002d18:	02812403          	lw	s0,40(sp)
80002d1c:	02412483          	lw	s1,36(sp)
80002d20:	02012903          	lw	s2,32(sp)
80002d24:	01c12983          	lw	s3,28(sp)
80002d28:	01812a03          	lw	s4,24(sp)
80002d2c:	01412a83          	lw	s5,20(sp)
80002d30:	01012b03          	lw	s6,16(sp)
80002d34:	00c12b83          	lw	s7,12(sp)
80002d38:	00812c03          	lw	s8,8(sp)
80002d3c:	03010113          	addi	sp,sp,48
80002d40:	00008067          	ret
80002d44:	00448c13          	addi	s8,s1,4
80002d48:	000c0513          	mv	a0,s8
80002d4c:	0344a623          	sw	s4,44(s1)
80002d50:	0544a423          	sw	s4,72(s1)
80002d54:	0404a623          	sw	zero,76(s1)
80002d58:	e30fe0ef          	jal	ra,80001388 <vListInitialiseItem>
80002d5c:	01848513          	addi	a0,s1,24
80002d60:	e28fe0ef          	jal	ra,80001388 <vListInitialiseItem>
80002d64:	00700793          	li	a5,7
80002d68:	41478a33          	sub	s4,a5,s4
80002d6c:	00400613          	li	a2,4
80002d70:	00000593          	li	a1,0
80002d74:	0094a823          	sw	s1,16(s1)
80002d78:	0144ac23          	sw	s4,24(s1)
80002d7c:	0294a223          	sw	s1,36(s1)
80002d80:	0404a223          	sw	zero,68(s1)
80002d84:	05048513          	addi	a0,s1,80
80002d88:	ca0fe0ef          	jal	ra,80001228 <memset>
80002d8c:	00100613          	li	a2,1
80002d90:	00000593          	li	a1,0
80002d94:	05448513          	addi	a0,s1,84
80002d98:	ffc98993          	addi	s3,s3,-4
80002d9c:	c8cfe0ef          	jal	ra,80001228 <memset>
80002da0:	013909b3          	add	s3,s2,s3
80002da4:	04048aa3          	sb	zero,85(s1)
80002da8:	000b8613          	mv	a2,s7
80002dac:	000b0593          	mv	a1,s6
80002db0:	ff09f513          	andi	a0,s3,-16
80002db4:	64c030ef          	jal	ra,80006400 <pxPortInitialiseStack>
80002db8:	00a4a023          	sw	a0,0(s1)
80002dbc:	000a8463          	beqz	s5,80002dc4 <xTaskCreate+0x170>
80002dc0:	009aa023          	sw	s1,0(s5)
80002dc4:	30047073          	csrci	mstatus,8
80002dc8:	810009b7          	lui	s3,0x81000
80002dcc:	66c9a783          	lw	a5,1644(s3) # 8100066c <__heap_start+0xfbfff7bc>
80002dd0:	10079463          	bnez	a5,80002ed8 <xTaskCreate+0x284>
80002dd4:	81000737          	lui	a4,0x81000
80002dd8:	67872783          	lw	a5,1656(a4) # 81000678 <__heap_start+0xfbfff7c8>
80002ddc:	81000a37          	lui	s4,0x81000
80002de0:	00178793          	addi	a5,a5,1
80002de4:	66f72c23          	sw	a5,1656(a4)
80002de8:	688a2783          	lw	a5,1672(s4) # 81000688 <__heap_start+0xfbfff7d8>
80002dec:	0e078a63          	beqz	a5,80002ee0 <xTaskCreate+0x28c>
80002df0:	66c9a783          	lw	a5,1644(s3)
80002df4:	02c4a583          	lw	a1,44(s1)
80002df8:	00079a63          	bnez	a5,80002e0c <xTaskCreate+0x1b8>
80002dfc:	688a2783          	lw	a5,1672(s4)
80002e00:	02c7a783          	lw	a5,44(a5)
80002e04:	00f5e463          	bltu	a1,a5,80002e0c <xTaskCreate+0x1b8>
80002e08:	689a2423          	sw	s1,1672(s4)
80002e0c:	810007b7          	lui	a5,0x81000
80002e10:	81000937          	lui	s2,0x81000
80002e14:	00078413          	mv	s0,a5
80002e18:	01490913          	addi	s2,s2,20 # 81000014 <__heap_start+0xfbfff164>
80002e1c:	00259713          	slli	a4,a1,0x2
80002e20:	00b70733          	add	a4,a4,a1
80002e24:	00271713          	slli	a4,a4,0x2
80002e28:	00e407b3          	add	a5,s0,a4
80002e2c:	0187a603          	lw	a2,24(a5) # 81000018 <__heap_start+0xfbfff168>
80002e30:	81000537          	lui	a0,0x81000
80002e34:	67052883          	lw	a7,1648(a0) # 81000670 <__heap_start+0xfbfff7c0>
80002e38:	00862803          	lw	a6,8(a2)
80002e3c:	00100693          	li	a3,1
80002e40:	00b696b3          	sll	a3,a3,a1
80002e44:	0104a623          	sw	a6,12(s1)
80002e48:	00862803          	lw	a6,8(a2)
80002e4c:	0116e6b3          	or	a3,a3,a7
80002e50:	66d52823          	sw	a3,1648(a0)
80002e54:	0147a583          	lw	a1,20(a5)
80002e58:	00c4a423          	sw	a2,8(s1)
80002e5c:	01882223          	sw	s8,4(a6)
80002e60:	81000537          	lui	a0,0x81000
80002e64:	01862423          	sw	s8,8(a2)
80002e68:	00e90733          	add	a4,s2,a4
80002e6c:	65c52683          	lw	a3,1628(a0) # 8100065c <__heap_start+0xfbfff7ac>
80002e70:	00e4aa23          	sw	a4,20(s1)
80002e74:	00158713          	addi	a4,a1,1
80002e78:	00e7aa23          	sw	a4,20(a5)
80002e7c:	66c9a703          	lw	a4,1644(s3)
80002e80:	00168793          	addi	a5,a3,1
80002e84:	64f52e23          	sw	a5,1628(a0)
80002e88:	00070a63          	beqz	a4,80002e9c <xTaskCreate+0x248>
80002e8c:	688a2783          	lw	a5,1672(s4)
80002e90:	0447a783          	lw	a5,68(a5)
80002e94:	00078463          	beqz	a5,80002e9c <xTaskCreate+0x248>
80002e98:	ce9ff0ef          	jal	ra,80002b80 <vTaskExitCritical.part.6>
80002e9c:	66c9a783          	lw	a5,1644(s3)
80002ea0:	00100513          	li	a0,1
80002ea4:	e60788e3          	beqz	a5,80002d14 <xTaskCreate+0xc0>
80002ea8:	688a2703          	lw	a4,1672(s4)
80002eac:	02c4a783          	lw	a5,44(s1)
80002eb0:	02c72703          	lw	a4,44(a4)
80002eb4:	e6f770e3          	bleu	a5,a4,80002d14 <xTaskCreate+0xc0>
80002eb8:	00000073          	ecall
80002ebc:	e59ff06f          	j	80002d14 <xTaskCreate+0xc0>
80002ec0:	00090513          	mv	a0,s2
80002ec4:	7e4020ef          	jal	ra,800056a8 <vPortFree>
80002ec8:	fff00513          	li	a0,-1
80002ecc:	e49ff06f          	j	80002d14 <xTaskCreate+0xc0>
80002ed0:	02048a23          	sb	zero,52(s1)
80002ed4:	e29ff06f          	j	80002cfc <xTaskCreate+0xa8>
80002ed8:	c8dff0ef          	jal	ra,80002b64 <vTaskEnterCritical.part.5>
80002edc:	ef9ff06f          	j	80002dd4 <xTaskCreate+0x180>
80002ee0:	689a2423          	sw	s1,1672(s4)
80002ee4:	67872703          	lw	a4,1656(a4)
80002ee8:	00100793          	li	a5,1
80002eec:	00f70e63          	beq	a4,a5,80002f08 <xTaskCreate+0x2b4>
80002ef0:	810007b7          	lui	a5,0x81000
80002ef4:	81000937          	lui	s2,0x81000
80002ef8:	02c4a583          	lw	a1,44(s1)
80002efc:	00078413          	mv	s0,a5
80002f00:	01490913          	addi	s2,s2,20 # 81000014 <__heap_start+0xfbfff164>
80002f04:	f19ff06f          	j	80002e1c <xTaskCreate+0x1c8>
80002f08:	81000bb7          	lui	s7,0x81000
80002f0c:	000b8413          	mv	s0,s7
80002f10:	01440913          	addi	s2,s0,20
80002f14:	00090513          	mv	a0,s2
80002f18:	c50fe0ef          	jal	ra,80001368 <vListInitialise>
80002f1c:	02840513          	addi	a0,s0,40
80002f20:	c48fe0ef          	jal	ra,80001368 <vListInitialise>
80002f24:	03c40513          	addi	a0,s0,60
80002f28:	c40fe0ef          	jal	ra,80001368 <vListInitialise>
80002f2c:	05040513          	addi	a0,s0,80
80002f30:	c38fe0ef          	jal	ra,80001368 <vListInitialise>
80002f34:	06440513          	addi	a0,s0,100
80002f38:	c30fe0ef          	jal	ra,80001368 <vListInitialise>
80002f3c:	07840513          	addi	a0,s0,120
80002f40:	c28fe0ef          	jal	ra,80001368 <vListInitialise>
80002f44:	08c40513          	addi	a0,s0,140
80002f48:	c20fe0ef          	jal	ra,80001368 <vListInitialise>
80002f4c:	0b440b13          	addi	s6,s0,180
80002f50:	000b0513          	mv	a0,s6
80002f54:	c14fe0ef          	jal	ra,80001368 <vListInitialise>
80002f58:	0c840a93          	addi	s5,s0,200
80002f5c:	000a8513          	mv	a0,s5
80002f60:	c08fe0ef          	jal	ra,80001368 <vListInitialise>
80002f64:	0dc40513          	addi	a0,s0,220
80002f68:	c00fe0ef          	jal	ra,80001368 <vListInitialise>
80002f6c:	0a040513          	addi	a0,s0,160
80002f70:	bf8fe0ef          	jal	ra,80001368 <vListInitialise>
80002f74:	000b8513          	mv	a0,s7
80002f78:	bf0fe0ef          	jal	ra,80001368 <vListInitialise>
80002f7c:	810007b7          	lui	a5,0x81000
80002f80:	6967a223          	sw	s6,1668(a5) # 81000684 <__heap_start+0xfbfff7d4>
80002f84:	810007b7          	lui	a5,0x81000
80002f88:	6957a023          	sw	s5,1664(a5) # 81000680 <__heap_start+0xfbfff7d0>
80002f8c:	02c4a583          	lw	a1,44(s1)
80002f90:	e8dff06f          	j	80002e1c <xTaskCreate+0x1c8>

80002f94 <vTaskDelete>:
80002f94:	fe010113          	addi	sp,sp,-32
80002f98:	00812c23          	sw	s0,24(sp)
80002f9c:	00112e23          	sw	ra,28(sp)
80002fa0:	00912a23          	sw	s1,20(sp)
80002fa4:	01212823          	sw	s2,16(sp)
80002fa8:	01312623          	sw	s3,12(sp)
80002fac:	00050413          	mv	s0,a0
80002fb0:	30047073          	csrci	mstatus,8
80002fb4:	81000937          	lui	s2,0x81000
80002fb8:	66c92783          	lw	a5,1644(s2) # 8100066c <__heap_start+0xfbfff7bc>
80002fbc:	00078463          	beqz	a5,80002fc4 <vTaskDelete+0x30>
80002fc0:	ba5ff0ef          	jal	ra,80002b64 <vTaskEnterCritical.part.5>
80002fc4:	810004b7          	lui	s1,0x81000
80002fc8:	10040863          	beqz	s0,800030d8 <vTaskDelete+0x144>
80002fcc:	00440993          	addi	s3,s0,4
80002fd0:	00098513          	mv	a0,s3
80002fd4:	c40fe0ef          	jal	ra,80001414 <uxListRemove>
80002fd8:	02051463          	bnez	a0,80003000 <vTaskDelete+0x6c>
80002fdc:	02c42683          	lw	a3,44(s0)
80002fe0:	00269793          	slli	a5,a3,0x2
80002fe4:	00d787b3          	add	a5,a5,a3
80002fe8:	00279713          	slli	a4,a5,0x2
80002fec:	810007b7          	lui	a5,0x81000
80002ff0:	00078793          	mv	a5,a5
80002ff4:	00e787b3          	add	a5,a5,a4
80002ff8:	0147a783          	lw	a5,20(a5) # 81000014 <__heap_start+0xfbfff164>
80002ffc:	0a078e63          	beqz	a5,800030b8 <vTaskDelete+0x124>
80003000:	02842783          	lw	a5,40(s0)
80003004:	00078663          	beqz	a5,80003010 <vTaskDelete+0x7c>
80003008:	01840513          	addi	a0,s0,24
8000300c:	c08fe0ef          	jal	ra,80001414 <uxListRemove>
80003010:	81000737          	lui	a4,0x81000
80003014:	65c72783          	lw	a5,1628(a4) # 8100065c <__heap_start+0xfbfff7ac>
80003018:	6884a683          	lw	a3,1672(s1) # 81000688 <__heap_start+0xfbfff7d8>
8000301c:	00178793          	addi	a5,a5,1
80003020:	64f72e23          	sw	a5,1628(a4)
80003024:	0c868a63          	beq	a3,s0,800030f8 <vTaskDelete+0x164>
80003028:	81000737          	lui	a4,0x81000
8000302c:	67872783          	lw	a5,1656(a4) # 81000678 <__heap_start+0xfbfff7c8>
80003030:	fff78793          	addi	a5,a5,-1
80003034:	66f72c23          	sw	a5,1656(a4)
80003038:	810007b7          	lui	a5,0x81000
8000303c:	6847a783          	lw	a5,1668(a5) # 81000684 <__heap_start+0xfbfff7d4>
80003040:	0007a783          	lw	a5,0(a5)
80003044:	06078263          	beqz	a5,800030a8 <vTaskDelete+0x114>
80003048:	a15ff0ef          	jal	ra,80002a5c <prvResetNextTaskUnblockTime.part.1>
8000304c:	66c92783          	lw	a5,1644(s2)
80003050:	00078a63          	beqz	a5,80003064 <vTaskDelete+0xd0>
80003054:	6884a783          	lw	a5,1672(s1)
80003058:	0447a783          	lw	a5,68(a5)
8000305c:	00078463          	beqz	a5,80003064 <vTaskDelete+0xd0>
80003060:	b21ff0ef          	jal	ra,80002b80 <vTaskExitCritical.part.6>
80003064:	6884a783          	lw	a5,1672(s1)
80003068:	00878a63          	beq	a5,s0,8000307c <vTaskDelete+0xe8>
8000306c:	03042503          	lw	a0,48(s0)
80003070:	638020ef          	jal	ra,800056a8 <vPortFree>
80003074:	00040513          	mv	a0,s0
80003078:	630020ef          	jal	ra,800056a8 <vPortFree>
8000307c:	66c92783          	lw	a5,1644(s2)
80003080:	00078663          	beqz	a5,8000308c <vTaskDelete+0xf8>
80003084:	6884a783          	lw	a5,1672(s1)
80003088:	04878c63          	beq	a5,s0,800030e0 <vTaskDelete+0x14c>
8000308c:	01c12083          	lw	ra,28(sp)
80003090:	01812403          	lw	s0,24(sp)
80003094:	01412483          	lw	s1,20(sp)
80003098:	01012903          	lw	s2,16(sp)
8000309c:	00c12983          	lw	s3,12(sp)
800030a0:	02010113          	addi	sp,sp,32
800030a4:	00008067          	ret
800030a8:	810007b7          	lui	a5,0x81000
800030ac:	fff00713          	li	a4,-1
800030b0:	64e7ac23          	sw	a4,1624(a5) # 81000658 <__heap_start+0xfbfff7a8>
800030b4:	f99ff06f          	j	8000304c <vTaskDelete+0xb8>
800030b8:	81000737          	lui	a4,0x81000
800030bc:	67072603          	lw	a2,1648(a4) # 81000670 <__heap_start+0xfbfff7c0>
800030c0:	00100793          	li	a5,1
800030c4:	00d797b3          	sll	a5,a5,a3
800030c8:	fff7c793          	not	a5,a5
800030cc:	00c7f7b3          	and	a5,a5,a2
800030d0:	66f72823          	sw	a5,1648(a4)
800030d4:	f2dff06f          	j	80003000 <vTaskDelete+0x6c>
800030d8:	6884a403          	lw	s0,1672(s1)
800030dc:	ef1ff06f          	j	80002fcc <vTaskDelete+0x38>
800030e0:	810007b7          	lui	a5,0x81000
800030e4:	6507a783          	lw	a5,1616(a5) # 81000650 <__heap_start+0xfbfff7a0>
800030e8:	02078a63          	beqz	a5,8000311c <vTaskDelete+0x188>
800030ec:	30047073          	csrci	mstatus,8
800030f0:	00100073          	ebreak
800030f4:	0000006f          	j	800030f4 <vTaskDelete+0x160>
800030f8:	81000537          	lui	a0,0x81000
800030fc:	00098593          	mv	a1,s3
80003100:	0a050513          	addi	a0,a0,160 # 810000a0 <__heap_start+0xfbfff1f0>
80003104:	a8cfe0ef          	jal	ra,80001390 <vListInsertEnd>
80003108:	81000737          	lui	a4,0x81000
8000310c:	67c72783          	lw	a5,1660(a4) # 8100067c <__heap_start+0xfbfff7cc>
80003110:	00178793          	addi	a5,a5,1
80003114:	66f72e23          	sw	a5,1660(a4)
80003118:	f35ff06f          	j	8000304c <vTaskDelete+0xb8>
8000311c:	00000073          	ecall
80003120:	f6dff06f          	j	8000308c <vTaskDelete+0xf8>

80003124 <eTaskGetState>:
80003124:	0a050c63          	beqz	a0,800031dc <eTaskGetState+0xb8>
80003128:	fe010113          	addi	sp,sp,-32
8000312c:	01212823          	sw	s2,16(sp)
80003130:	81000937          	lui	s2,0x81000
80003134:	68892703          	lw	a4,1672(s2) # 81000688 <__heap_start+0xfbfff7d8>
80003138:	00112e23          	sw	ra,28(sp)
8000313c:	00812c23          	sw	s0,24(sp)
80003140:	00912a23          	sw	s1,20(sp)
80003144:	01312623          	sw	s3,12(sp)
80003148:	01412423          	sw	s4,8(sp)
8000314c:	00000793          	li	a5,0
80003150:	06a70463          	beq	a4,a0,800031b8 <eTaskGetState+0x94>
80003154:	00050413          	mv	s0,a0
80003158:	30047073          	csrci	mstatus,8
8000315c:	810004b7          	lui	s1,0x81000
80003160:	66c4a783          	lw	a5,1644(s1) # 8100066c <__heap_start+0xfbfff7bc>
80003164:	00078463          	beqz	a5,8000316c <eTaskGetState+0x48>
80003168:	9fdff0ef          	jal	ra,80002b64 <vTaskEnterCritical.part.5>
8000316c:	810007b7          	lui	a5,0x81000
80003170:	6847aa03          	lw	s4,1668(a5) # 81000684 <__heap_start+0xfbfff7d4>
80003174:	810007b7          	lui	a5,0x81000
80003178:	6807a983          	lw	s3,1664(a5) # 81000680 <__heap_start+0xfbfff7d0>
8000317c:	66c4a783          	lw	a5,1644(s1)
80003180:	01442483          	lw	s1,20(s0)
80003184:	00078863          	beqz	a5,80003194 <eTaskGetState+0x70>
80003188:	68892783          	lw	a5,1672(s2)
8000318c:	0447a783          	lw	a5,68(a5)
80003190:	06079063          	bnez	a5,800031f0 <eTaskGetState+0xcc>
80003194:	05448a63          	beq	s1,s4,800031e8 <eTaskGetState+0xc4>
80003198:	05348863          	beq	s1,s3,800031e8 <eTaskGetState+0xc4>
8000319c:	810007b7          	lui	a5,0x81000
800031a0:	00078793          	mv	a5,a5
800031a4:	04f48e63          	beq	s1,a5,80003200 <eTaskGetState+0xdc>
800031a8:	0a078793          	addi	a5,a5,160 # 810000a0 <__heap_start+0xfbfff1f0>
800031ac:	04f48663          	beq	s1,a5,800031f8 <eTaskGetState+0xd4>
800031b0:	04048463          	beqz	s1,800031f8 <eTaskGetState+0xd4>
800031b4:	00100793          	li	a5,1
800031b8:	01c12083          	lw	ra,28(sp)
800031bc:	01812403          	lw	s0,24(sp)
800031c0:	01412483          	lw	s1,20(sp)
800031c4:	01012903          	lw	s2,16(sp)
800031c8:	00c12983          	lw	s3,12(sp)
800031cc:	00812a03          	lw	s4,8(sp)
800031d0:	00078513          	mv	a0,a5
800031d4:	02010113          	addi	sp,sp,32
800031d8:	00008067          	ret
800031dc:	30047073          	csrci	mstatus,8
800031e0:	00100073          	ebreak
800031e4:	0000006f          	j	800031e4 <eTaskGetState+0xc0>
800031e8:	00200793          	li	a5,2
800031ec:	fcdff06f          	j	800031b8 <eTaskGetState+0x94>
800031f0:	991ff0ef          	jal	ra,80002b80 <vTaskExitCritical.part.6>
800031f4:	fa1ff06f          	j	80003194 <eTaskGetState+0x70>
800031f8:	00400793          	li	a5,4
800031fc:	fbdff06f          	j	800031b8 <eTaskGetState+0x94>
80003200:	02842703          	lw	a4,40(s0)
80003204:	00200793          	li	a5,2
80003208:	fa0718e3          	bnez	a4,800031b8 <eTaskGetState+0x94>
8000320c:	05444783          	lbu	a5,84(s0)
80003210:	fff78793          	addi	a5,a5,-1
80003214:	00f037b3          	snez	a5,a5
80003218:	00278793          	addi	a5,a5,2
8000321c:	f9dff06f          	j	800031b8 <eTaskGetState+0x94>

80003220 <uxTaskPriorityGet>:
80003220:	fe010113          	addi	sp,sp,-32
80003224:	00812c23          	sw	s0,24(sp)
80003228:	00112e23          	sw	ra,28(sp)
8000322c:	00912a23          	sw	s1,20(sp)
80003230:	00050413          	mv	s0,a0
80003234:	30047073          	csrci	mstatus,8
80003238:	810004b7          	lui	s1,0x81000
8000323c:	66c4a783          	lw	a5,1644(s1) # 8100066c <__heap_start+0xfbfff7bc>
80003240:	00078463          	beqz	a5,80003248 <uxTaskPriorityGet+0x28>
80003244:	921ff0ef          	jal	ra,80002b64 <vTaskEnterCritical.part.5>
80003248:	04040063          	beqz	s0,80003288 <uxTaskPriorityGet+0x68>
8000324c:	66c4a783          	lw	a5,1644(s1)
80003250:	02c42503          	lw	a0,44(s0)
80003254:	02078063          	beqz	a5,80003274 <uxTaskPriorityGet+0x54>
80003258:	810007b7          	lui	a5,0x81000
8000325c:	6887a783          	lw	a5,1672(a5) # 81000688 <__heap_start+0xfbfff7d8>
80003260:	0447a783          	lw	a5,68(a5)
80003264:	00078863          	beqz	a5,80003274 <uxTaskPriorityGet+0x54>
80003268:	00a12623          	sw	a0,12(sp)
8000326c:	915ff0ef          	jal	ra,80002b80 <vTaskExitCritical.part.6>
80003270:	00c12503          	lw	a0,12(sp)
80003274:	01c12083          	lw	ra,28(sp)
80003278:	01812403          	lw	s0,24(sp)
8000327c:	01412483          	lw	s1,20(sp)
80003280:	02010113          	addi	sp,sp,32
80003284:	00008067          	ret
80003288:	810007b7          	lui	a5,0x81000
8000328c:	6887a403          	lw	s0,1672(a5) # 81000688 <__heap_start+0xfbfff7d8>
80003290:	fbdff06f          	j	8000324c <uxTaskPriorityGet+0x2c>

80003294 <uxTaskPriorityGetFromISR>:
80003294:	00050663          	beqz	a0,800032a0 <uxTaskPriorityGetFromISR+0xc>
80003298:	02c52503          	lw	a0,44(a0)
8000329c:	00008067          	ret
800032a0:	810007b7          	lui	a5,0x81000
800032a4:	6887a503          	lw	a0,1672(a5) # 81000688 <__heap_start+0xfbfff7d8>
800032a8:	02c52503          	lw	a0,44(a0)
800032ac:	00008067          	ret

800032b0 <vTaskPrioritySet>:
800032b0:	00600793          	li	a5,6
800032b4:	00b7f863          	bleu	a1,a5,800032c4 <vTaskPrioritySet+0x14>
800032b8:	30047073          	csrci	mstatus,8
800032bc:	00100073          	ebreak
800032c0:	0000006f          	j	800032c0 <vTaskPrioritySet+0x10>
800032c4:	fe010113          	addi	sp,sp,-32
800032c8:	00812c23          	sw	s0,24(sp)
800032cc:	01212823          	sw	s2,16(sp)
800032d0:	00112e23          	sw	ra,28(sp)
800032d4:	00912a23          	sw	s1,20(sp)
800032d8:	01312623          	sw	s3,12(sp)
800032dc:	01412423          	sw	s4,8(sp)
800032e0:	01512223          	sw	s5,4(sp)
800032e4:	01612023          	sw	s6,0(sp)
800032e8:	00058913          	mv	s2,a1
800032ec:	00050413          	mv	s0,a0
800032f0:	30047073          	csrci	mstatus,8
800032f4:	810009b7          	lui	s3,0x81000
800032f8:	66c9a783          	lw	a5,1644(s3) # 8100066c <__heap_start+0xfbfff7bc>
800032fc:	00078463          	beqz	a5,80003304 <vTaskPrioritySet+0x54>
80003300:	865ff0ef          	jal	ra,80002b64 <vTaskEnterCritical.part.5>
80003304:	0c040c63          	beqz	s0,800033dc <vTaskPrioritySet+0x12c>
80003308:	04842783          	lw	a5,72(s0)
8000330c:	06f90463          	beq	s2,a5,80003374 <vTaskPrioritySet+0xc4>
80003310:	81000737          	lui	a4,0x81000
80003314:	1727e263          	bltu	a5,s2,80003478 <vTaskPrioritySet+0x1c8>
80003318:	68872483          	lw	s1,1672(a4) # 81000688 <__heap_start+0xfbfff7d8>
8000331c:	408484b3          	sub	s1,s1,s0
80003320:	0014b493          	seqz	s1,s1
80003324:	02c42a83          	lw	s5,44(s0)
80003328:	01579463          	bne	a5,s5,80003330 <vTaskPrioritySet+0x80>
8000332c:	03242623          	sw	s2,44(s0)
80003330:	01842783          	lw	a5,24(s0)
80003334:	05242423          	sw	s2,72(s0)
80003338:	0007c863          	bltz	a5,80003348 <vTaskPrioritySet+0x98>
8000333c:	00700793          	li	a5,7
80003340:	412787b3          	sub	a5,a5,s2
80003344:	00f42c23          	sw	a5,24(s0)
80003348:	002a9793          	slli	a5,s5,0x2
8000334c:	81000937          	lui	s2,0x81000
80003350:	00090913          	mv	s2,s2
80003354:	015787b3          	add	a5,a5,s5
80003358:	01442703          	lw	a4,20(s0)
8000335c:	01490a13          	addi	s4,s2,20 # 81000014 <__heap_start+0xfbfff164>
80003360:	00279793          	slli	a5,a5,0x2
80003364:	00fa07b3          	add	a5,s4,a5
80003368:	08f70463          	beq	a4,a5,800033f0 <vTaskPrioritySet+0x140>
8000336c:	00048463          	beqz	s1,80003374 <vTaskPrioritySet+0xc4>
80003370:	00000073          	ecall
80003374:	66c9a783          	lw	a5,1644(s3)
80003378:	02078e63          	beqz	a5,800033b4 <vTaskPrioritySet+0x104>
8000337c:	810007b7          	lui	a5,0x81000
80003380:	6887a783          	lw	a5,1672(a5) # 81000688 <__heap_start+0xfbfff7d8>
80003384:	0447a783          	lw	a5,68(a5)
80003388:	02078663          	beqz	a5,800033b4 <vTaskPrioritySet+0x104>
8000338c:	01812403          	lw	s0,24(sp)
80003390:	01c12083          	lw	ra,28(sp)
80003394:	01412483          	lw	s1,20(sp)
80003398:	01012903          	lw	s2,16(sp)
8000339c:	00c12983          	lw	s3,12(sp)
800033a0:	00812a03          	lw	s4,8(sp)
800033a4:	00412a83          	lw	s5,4(sp)
800033a8:	00012b03          	lw	s6,0(sp)
800033ac:	02010113          	addi	sp,sp,32
800033b0:	fd0ff06f          	j	80002b80 <vTaskExitCritical.part.6>
800033b4:	01c12083          	lw	ra,28(sp)
800033b8:	01812403          	lw	s0,24(sp)
800033bc:	01412483          	lw	s1,20(sp)
800033c0:	01012903          	lw	s2,16(sp)
800033c4:	00c12983          	lw	s3,12(sp)
800033c8:	00812a03          	lw	s4,8(sp)
800033cc:	00412a83          	lw	s5,4(sp)
800033d0:	00012b03          	lw	s6,0(sp)
800033d4:	02010113          	addi	sp,sp,32
800033d8:	00008067          	ret
800033dc:	810007b7          	lui	a5,0x81000
800033e0:	6887a403          	lw	s0,1672(a5) # 81000688 <__heap_start+0xfbfff7d8>
800033e4:	04842783          	lw	a5,72(s0)
800033e8:	f2f914e3          	bne	s2,a5,80003310 <vTaskPrioritySet+0x60>
800033ec:	f89ff06f          	j	80003374 <vTaskPrioritySet+0xc4>
800033f0:	00440b13          	addi	s6,s0,4
800033f4:	000b0513          	mv	a0,s6
800033f8:	81cfe0ef          	jal	ra,80001414 <uxListRemove>
800033fc:	810006b7          	lui	a3,0x81000
80003400:	00051e63          	bnez	a0,8000341c <vTaskPrioritySet+0x16c>
80003404:	6706a703          	lw	a4,1648(a3) # 81000670 <__heap_start+0xfbfff7c0>
80003408:	00100793          	li	a5,1
8000340c:	015797b3          	sll	a5,a5,s5
80003410:	fff7c793          	not	a5,a5
80003414:	00e7f7b3          	and	a5,a5,a4
80003418:	66f6a823          	sw	a5,1648(a3)
8000341c:	02c42503          	lw	a0,44(s0)
80003420:	00100613          	li	a2,1
80003424:	6706a803          	lw	a6,1648(a3)
80003428:	00251713          	slli	a4,a0,0x2
8000342c:	00a70733          	add	a4,a4,a0
80003430:	00271713          	slli	a4,a4,0x2
80003434:	00e907b3          	add	a5,s2,a4
80003438:	0187a583          	lw	a1,24(a5)
8000343c:	00a61633          	sll	a2,a2,a0
80003440:	01066633          	or	a2,a2,a6
80003444:	0085a503          	lw	a0,8(a1)
80003448:	66c6a823          	sw	a2,1648(a3)
8000344c:	0147a683          	lw	a3,20(a5)
80003450:	00a42623          	sw	a0,12(s0)
80003454:	0085a603          	lw	a2,8(a1)
80003458:	00b42423          	sw	a1,8(s0)
8000345c:	00ea0733          	add	a4,s4,a4
80003460:	01662223          	sw	s6,4(a2)
80003464:	0165a423          	sw	s6,8(a1)
80003468:	00e42a23          	sw	a4,20(s0)
8000346c:	00168713          	addi	a4,a3,1
80003470:	00e7aa23          	sw	a4,20(a5)
80003474:	ef9ff06f          	j	8000336c <vTaskPrioritySet+0xbc>
80003478:	68872683          	lw	a3,1672(a4)
8000347c:	00000493          	li	s1,0
80003480:	ea8682e3          	beq	a3,s0,80003324 <vTaskPrioritySet+0x74>
80003484:	68872703          	lw	a4,1672(a4)
80003488:	02c72483          	lw	s1,44(a4)
8000348c:	009934b3          	sltu	s1,s2,s1
80003490:	0014c493          	xori	s1,s1,1
80003494:	e91ff06f          	j	80003324 <vTaskPrioritySet+0x74>

80003498 <vTaskSuspend>:
80003498:	fd010113          	addi	sp,sp,-48
8000349c:	02812423          	sw	s0,40(sp)
800034a0:	02112623          	sw	ra,44(sp)
800034a4:	02912223          	sw	s1,36(sp)
800034a8:	03212023          	sw	s2,32(sp)
800034ac:	01312e23          	sw	s3,28(sp)
800034b0:	00050413          	mv	s0,a0
800034b4:	30047073          	csrci	mstatus,8
800034b8:	81000937          	lui	s2,0x81000
800034bc:	66c92783          	lw	a5,1644(s2) # 8100066c <__heap_start+0xfbfff7bc>
800034c0:	00078463          	beqz	a5,800034c8 <vTaskSuspend+0x30>
800034c4:	ea0ff0ef          	jal	ra,80002b64 <vTaskEnterCritical.part.5>
800034c8:	810009b7          	lui	s3,0x81000
800034cc:	14040463          	beqz	s0,80003614 <vTaskSuspend+0x17c>
800034d0:	00440593          	addi	a1,s0,4
800034d4:	00058513          	mv	a0,a1
800034d8:	00b12623          	sw	a1,12(sp)
800034dc:	f39fd0ef          	jal	ra,80001414 <uxListRemove>
800034e0:	00c12583          	lw	a1,12(sp)
800034e4:	0a050a63          	beqz	a0,80003598 <vTaskSuspend+0x100>
800034e8:	810004b7          	lui	s1,0x81000
800034ec:	02842783          	lw	a5,40(s0)
800034f0:	00078a63          	beqz	a5,80003504 <vTaskSuspend+0x6c>
800034f4:	01840513          	addi	a0,s0,24
800034f8:	00b12623          	sw	a1,12(sp)
800034fc:	f19fd0ef          	jal	ra,80001414 <uxListRemove>
80003500:	00c12583          	lw	a1,12(sp)
80003504:	00048513          	mv	a0,s1
80003508:	e89fd0ef          	jal	ra,80001390 <vListInsertEnd>
8000350c:	05444783          	lbu	a5,84(s0)
80003510:	00100713          	li	a4,1
80003514:	06f70e63          	beq	a4,a5,80003590 <vTaskSuspend+0xf8>
80003518:	66c92783          	lw	a5,1644(s2)
8000351c:	00078863          	beqz	a5,8000352c <vTaskSuspend+0x94>
80003520:	6889a783          	lw	a5,1672(s3) # 81000688 <__heap_start+0xfbfff7d8>
80003524:	0447a783          	lw	a5,68(a5)
80003528:	0c079263          	bnez	a5,800035ec <vTaskSuspend+0x154>
8000352c:	66c92783          	lw	a5,1644(s2)
80003530:	02078e63          	beqz	a5,8000356c <vTaskSuspend+0xd4>
80003534:	30047073          	csrci	mstatus,8
80003538:	66c92783          	lw	a5,1644(s2)
8000353c:	00078463          	beqz	a5,80003544 <vTaskSuspend+0xac>
80003540:	e24ff0ef          	jal	ra,80002b64 <vTaskEnterCritical.part.5>
80003544:	810007b7          	lui	a5,0x81000
80003548:	6847a783          	lw	a5,1668(a5) # 81000684 <__heap_start+0xfbfff7d4>
8000354c:	0007a783          	lw	a5,0(a5)
80003550:	08078663          	beqz	a5,800035dc <vTaskSuspend+0x144>
80003554:	d08ff0ef          	jal	ra,80002a5c <prvResetNextTaskUnblockTime.part.1>
80003558:	66c92783          	lw	a5,1644(s2)
8000355c:	00078863          	beqz	a5,8000356c <vTaskSuspend+0xd4>
80003560:	6889a783          	lw	a5,1672(s3)
80003564:	0447a783          	lw	a5,68(a5)
80003568:	0e079263          	bnez	a5,8000364c <vTaskSuspend+0x1b4>
8000356c:	6889a783          	lw	a5,1672(s3)
80003570:	08878263          	beq	a5,s0,800035f4 <vTaskSuspend+0x15c>
80003574:	02c12083          	lw	ra,44(sp)
80003578:	02812403          	lw	s0,40(sp)
8000357c:	02412483          	lw	s1,36(sp)
80003580:	02012903          	lw	s2,32(sp)
80003584:	01c12983          	lw	s3,28(sp)
80003588:	03010113          	addi	sp,sp,48
8000358c:	00008067          	ret
80003590:	04040a23          	sb	zero,84(s0)
80003594:	f85ff06f          	j	80003518 <vTaskSuspend+0x80>
80003598:	02c42703          	lw	a4,44(s0)
8000359c:	810004b7          	lui	s1,0x81000
800035a0:	00048693          	mv	a3,s1
800035a4:	00271793          	slli	a5,a4,0x2
800035a8:	00e787b3          	add	a5,a5,a4
800035ac:	00279793          	slli	a5,a5,0x2
800035b0:	00f687b3          	add	a5,a3,a5
800035b4:	0147a783          	lw	a5,20(a5)
800035b8:	f2079ae3          	bnez	a5,800034ec <vTaskSuspend+0x54>
800035bc:	810006b7          	lui	a3,0x81000
800035c0:	6706a603          	lw	a2,1648(a3) # 81000670 <__heap_start+0xfbfff7c0>
800035c4:	00100793          	li	a5,1
800035c8:	00e797b3          	sll	a5,a5,a4
800035cc:	fff7c793          	not	a5,a5
800035d0:	00c7f7b3          	and	a5,a5,a2
800035d4:	66f6a823          	sw	a5,1648(a3)
800035d8:	f15ff06f          	j	800034ec <vTaskSuspend+0x54>
800035dc:	810007b7          	lui	a5,0x81000
800035e0:	fff00713          	li	a4,-1
800035e4:	64e7ac23          	sw	a4,1624(a5) # 81000658 <__heap_start+0xfbfff7a8>
800035e8:	f71ff06f          	j	80003558 <vTaskSuspend+0xc0>
800035ec:	d94ff0ef          	jal	ra,80002b80 <vTaskExitCritical.part.6>
800035f0:	f3dff06f          	j	8000352c <vTaskSuspend+0x94>
800035f4:	66c92783          	lw	a5,1644(s2)
800035f8:	02078263          	beqz	a5,8000361c <vTaskSuspend+0x184>
800035fc:	810007b7          	lui	a5,0x81000
80003600:	6507a783          	lw	a5,1616(a5) # 81000650 <__heap_start+0xfbfff7a0>
80003604:	04078863          	beqz	a5,80003654 <vTaskSuspend+0x1bc>
80003608:	30047073          	csrci	mstatus,8
8000360c:	00100073          	ebreak
80003610:	0000006f          	j	80003610 <vTaskSuspend+0x178>
80003614:	6889a403          	lw	s0,1672(s3)
80003618:	eb9ff06f          	j	800034d0 <vTaskSuspend+0x38>
8000361c:	00048493          	mv	s1,s1
80003620:	810007b7          	lui	a5,0x81000
80003624:	0004a703          	lw	a4,0(s1) # 81000000 <__heap_start+0xfbfff150>
80003628:	6787a783          	lw	a5,1656(a5) # 81000678 <__heap_start+0xfbfff7c8>
8000362c:	02f70863          	beq	a4,a5,8000365c <vTaskSuspend+0x1c4>
80003630:	810007b7          	lui	a5,0x81000
80003634:	6507a783          	lw	a5,1616(a5) # 81000650 <__heap_start+0xfbfff7a0>
80003638:	02078663          	beqz	a5,80003664 <vTaskSuspend+0x1cc>
8000363c:	810007b7          	lui	a5,0x81000
80003640:	00100713          	li	a4,1
80003644:	66e7a223          	sw	a4,1636(a5) # 81000664 <__heap_start+0xfbfff7b4>
80003648:	f2dff06f          	j	80003574 <vTaskSuspend+0xdc>
8000364c:	d34ff0ef          	jal	ra,80002b80 <vTaskExitCritical.part.6>
80003650:	f1dff06f          	j	8000356c <vTaskSuspend+0xd4>
80003654:	00000073          	ecall
80003658:	f1dff06f          	j	80003574 <vTaskSuspend+0xdc>
8000365c:	6809a423          	sw	zero,1672(s3)
80003660:	f15ff06f          	j	80003574 <vTaskSuspend+0xdc>
80003664:	02812403          	lw	s0,40(sp)
80003668:	02c12083          	lw	ra,44(sp)
8000366c:	02412483          	lw	s1,36(sp)
80003670:	02012903          	lw	s2,32(sp)
80003674:	01c12983          	lw	s3,28(sp)
80003678:	03010113          	addi	sp,sp,48
8000367c:	bfcff06f          	j	80002a78 <vTaskSwitchContext.part.4>

80003680 <vTaskResume>:
80003680:	0a050463          	beqz	a0,80003728 <vTaskResume+0xa8>
80003684:	fe010113          	addi	sp,sp,-32
80003688:	01312623          	sw	s3,12(sp)
8000368c:	810009b7          	lui	s3,0x81000
80003690:	6889a783          	lw	a5,1672(s3) # 81000688 <__heap_start+0xfbfff7d8>
80003694:	00112e23          	sw	ra,28(sp)
80003698:	00812c23          	sw	s0,24(sp)
8000369c:	00912a23          	sw	s1,20(sp)
800036a0:	01212823          	sw	s2,16(sp)
800036a4:	01412423          	sw	s4,8(sp)
800036a8:	06a78063          	beq	a5,a0,80003708 <vTaskResume+0x88>
800036ac:	00050413          	mv	s0,a0
800036b0:	30047073          	csrci	mstatus,8
800036b4:	81000937          	lui	s2,0x81000
800036b8:	66c92783          	lw	a5,1644(s2) # 8100066c <__heap_start+0xfbfff7bc>
800036bc:	00078463          	beqz	a5,800036c4 <vTaskResume+0x44>
800036c0:	ca4ff0ef          	jal	ra,80002b64 <vTaskEnterCritical.part.5>
800036c4:	01442483          	lw	s1,20(s0)
800036c8:	810007b7          	lui	a5,0x81000
800036cc:	00078793          	mv	a5,a5
800036d0:	06f48263          	beq	s1,a5,80003734 <vTaskResume+0xb4>
800036d4:	66c92783          	lw	a5,1644(s2)
800036d8:	02078863          	beqz	a5,80003708 <vTaskResume+0x88>
800036dc:	6889a783          	lw	a5,1672(s3)
800036e0:	0447a783          	lw	a5,68(a5) # 81000044 <__heap_start+0xfbfff194>
800036e4:	02078263          	beqz	a5,80003708 <vTaskResume+0x88>
800036e8:	01812403          	lw	s0,24(sp)
800036ec:	01c12083          	lw	ra,28(sp)
800036f0:	01412483          	lw	s1,20(sp)
800036f4:	01012903          	lw	s2,16(sp)
800036f8:	00c12983          	lw	s3,12(sp)
800036fc:	00812a03          	lw	s4,8(sp)
80003700:	02010113          	addi	sp,sp,32
80003704:	c7cff06f          	j	80002b80 <vTaskExitCritical.part.6>
80003708:	01c12083          	lw	ra,28(sp)
8000370c:	01812403          	lw	s0,24(sp)
80003710:	01412483          	lw	s1,20(sp)
80003714:	01012903          	lw	s2,16(sp)
80003718:	00c12983          	lw	s3,12(sp)
8000371c:	00812a03          	lw	s4,8(sp)
80003720:	02010113          	addi	sp,sp,32
80003724:	00008067          	ret
80003728:	30047073          	csrci	mstatus,8
8000372c:	00100073          	ebreak
80003730:	0000006f          	j	80003730 <vTaskResume+0xb0>
80003734:	02842783          	lw	a5,40(s0)
80003738:	0dc48713          	addi	a4,s1,220
8000373c:	f8e78ce3          	beq	a5,a4,800036d4 <vTaskResume+0x54>
80003740:	f8079ae3          	bnez	a5,800036d4 <vTaskResume+0x54>
80003744:	00440a13          	addi	s4,s0,4
80003748:	000a0513          	mv	a0,s4
8000374c:	cc9fd0ef          	jal	ra,80001414 <uxListRemove>
80003750:	02c42683          	lw	a3,44(s0)
80003754:	81000537          	lui	a0,0x81000
80003758:	67052883          	lw	a7,1648(a0) # 81000670 <__heap_start+0xfbfff7c0>
8000375c:	00269793          	slli	a5,a3,0x2
80003760:	00d787b3          	add	a5,a5,a3
80003764:	00279713          	slli	a4,a5,0x2
80003768:	00e485b3          	add	a1,s1,a4
8000376c:	0185a603          	lw	a2,24(a1)
80003770:	00100793          	li	a5,1
80003774:	00d797b3          	sll	a5,a5,a3
80003778:	00862803          	lw	a6,8(a2)
8000377c:	0117e7b3          	or	a5,a5,a7
80003780:	66f52823          	sw	a5,1648(a0)
80003784:	01042623          	sw	a6,12(s0)
80003788:	00862783          	lw	a5,8(a2)
8000378c:	0145a503          	lw	a0,20(a1)
80003790:	00c42423          	sw	a2,8(s0)
80003794:	0147a223          	sw	s4,4(a5)
80003798:	01448793          	addi	a5,s1,20
8000379c:	01462423          	sw	s4,8(a2)
800037a0:	00e787b3          	add	a5,a5,a4
800037a4:	00f42a23          	sw	a5,20(s0)
800037a8:	00150793          	addi	a5,a0,1
800037ac:	00f5aa23          	sw	a5,20(a1)
800037b0:	6889a783          	lw	a5,1672(s3)
800037b4:	02c7a783          	lw	a5,44(a5)
800037b8:	f0f6eee3          	bltu	a3,a5,800036d4 <vTaskResume+0x54>
800037bc:	00000073          	ecall
800037c0:	f15ff06f          	j	800036d4 <vTaskResume+0x54>

800037c4 <xTaskResumeFromISR>:
800037c4:	10050263          	beqz	a0,800038c8 <xTaskResumeFromISR+0x104>
800037c8:	01452703          	lw	a4,20(a0)
800037cc:	fe010113          	addi	sp,sp,-32
800037d0:	810007b7          	lui	a5,0x81000
800037d4:	00812c23          	sw	s0,24(sp)
800037d8:	01212823          	sw	s2,16(sp)
800037dc:	01312623          	sw	s3,12(sp)
800037e0:	00112e23          	sw	ra,28(sp)
800037e4:	00912a23          	sw	s1,20(sp)
800037e8:	00078993          	mv	s3,a5
800037ec:	00050913          	mv	s2,a0
800037f0:	00000413          	li	s0,0
800037f4:	03370263          	beq	a4,s3,80003818 <xTaskResumeFromISR+0x54>
800037f8:	00040513          	mv	a0,s0
800037fc:	01c12083          	lw	ra,28(sp)
80003800:	01812403          	lw	s0,24(sp)
80003804:	01412483          	lw	s1,20(sp)
80003808:	01012903          	lw	s2,16(sp)
8000380c:	00c12983          	lw	s3,12(sp)
80003810:	02010113          	addi	sp,sp,32
80003814:	00008067          	ret
80003818:	02852703          	lw	a4,40(a0)
8000381c:	0dc98513          	addi	a0,s3,220
80003820:	fca70ce3          	beq	a4,a0,800037f8 <xTaskResumeFromISR+0x34>
80003824:	fc071ae3          	bnez	a4,800037f8 <xTaskResumeFromISR+0x34>
80003828:	81000737          	lui	a4,0x81000
8000382c:	65072703          	lw	a4,1616(a4) # 81000650 <__heap_start+0xfbfff7a0>
80003830:	0a071263          	bnez	a4,800038d4 <xTaskResumeFromISR+0x110>
80003834:	81000737          	lui	a4,0x81000
80003838:	68872703          	lw	a4,1672(a4) # 81000688 <__heap_start+0xfbfff7d8>
8000383c:	02c92683          	lw	a3,44(s2)
80003840:	02c72703          	lw	a4,44(a4)
80003844:	00e6ea63          	bltu	a3,a4,80003858 <xTaskResumeFromISR+0x94>
80003848:	81000737          	lui	a4,0x81000
8000384c:	00100693          	li	a3,1
80003850:	66d72223          	sw	a3,1636(a4) # 81000664 <__heap_start+0xfbfff7b4>
80003854:	00100413          	li	s0,1
80003858:	00490493          	addi	s1,s2,4
8000385c:	00048513          	mv	a0,s1
80003860:	bb5fd0ef          	jal	ra,80001414 <uxListRemove>
80003864:	02c92803          	lw	a6,44(s2)
80003868:	00100693          	li	a3,1
8000386c:	810008b7          	lui	a7,0x81000
80003870:	00281713          	slli	a4,a6,0x2
80003874:	01070733          	add	a4,a4,a6
80003878:	00271713          	slli	a4,a4,0x2
8000387c:	00e98533          	add	a0,s3,a4
80003880:	01852603          	lw	a2,24(a0)
80003884:	010696b3          	sll	a3,a3,a6
80003888:	6708a303          	lw	t1,1648(a7) # 81000670 <__heap_start+0xfbfff7c0>
8000388c:	00862803          	lw	a6,8(a2)
80003890:	01498793          	addi	a5,s3,20
80003894:	0066e6b3          	or	a3,a3,t1
80003898:	01092623          	sw	a6,12(s2)
8000389c:	00862803          	lw	a6,8(a2)
800038a0:	66d8a823          	sw	a3,1648(a7)
800038a4:	01452683          	lw	a3,20(a0)
800038a8:	00c92423          	sw	a2,8(s2)
800038ac:	00982223          	sw	s1,4(a6)
800038b0:	00962423          	sw	s1,8(a2)
800038b4:	00e787b3          	add	a5,a5,a4
800038b8:	00f92a23          	sw	a5,20(s2)
800038bc:	00168693          	addi	a3,a3,1
800038c0:	00d52a23          	sw	a3,20(a0)
800038c4:	f35ff06f          	j	800037f8 <xTaskResumeFromISR+0x34>
800038c8:	30047073          	csrci	mstatus,8
800038cc:	00100073          	ebreak
800038d0:	0000006f          	j	800038d0 <xTaskResumeFromISR+0x10c>
800038d4:	01890593          	addi	a1,s2,24
800038d8:	ab9fd0ef          	jal	ra,80001390 <vListInsertEnd>
800038dc:	f1dff06f          	j	800037f8 <xTaskResumeFromISR+0x34>

800038e0 <vTaskStartScheduler>:
800038e0:	810007b7          	lui	a5,0x81000
800038e4:	810005b7          	lui	a1,0x81000
800038e8:	80003537          	lui	a0,0x80003
800038ec:	ff010113          	addi	sp,sp,-16
800038f0:	65478793          	addi	a5,a5,1620 # 81000654 <__heap_start+0xfbfff7a4>
800038f4:	00000713          	li	a4,0
800038f8:	00000693          	li	a3,0
800038fc:	06400613          	li	a2,100
80003900:	48858593          	addi	a1,a1,1160 # 81000488 <__heap_start+0xfbfff5d8>
80003904:	ba850513          	addi	a0,a0,-1112 # 80002ba8 <__heap_start+0xfb001cf8>
80003908:	00812423          	sw	s0,8(sp)
8000390c:	00112623          	sw	ra,12(sp)
80003910:	00100413          	li	s0,1
80003914:	b40ff0ef          	jal	ra,80002c54 <xTaskCreate>
80003918:	02850263          	beq	a0,s0,8000393c <vTaskStartScheduler+0x5c>
8000391c:	fff00793          	li	a5,-1
80003920:	06f50063          	beq	a0,a5,80003980 <vTaskStartScheduler+0xa0>
80003924:	00c12083          	lw	ra,12(sp)
80003928:	00812403          	lw	s0,8(sp)
8000392c:	810007b7          	lui	a5,0x81000
80003930:	6347a783          	lw	a5,1588(a5) # 81000634 <__heap_start+0xfbfff784>
80003934:	01010113          	addi	sp,sp,16
80003938:	00008067          	ret
8000393c:	22c020ef          	jal	ra,80005b68 <xTimerCreateTimerTask>
80003940:	fc851ee3          	bne	a0,s0,8000391c <vTaskStartScheduler+0x3c>
80003944:	30047073          	csrci	mstatus,8
80003948:	810007b7          	lui	a5,0x81000
8000394c:	fff00713          	li	a4,-1
80003950:	64e7ac23          	sw	a4,1624(a5) # 81000658 <__heap_start+0xfbfff7a8>
80003954:	810007b7          	lui	a5,0x81000
80003958:	66a7a623          	sw	a0,1644(a5) # 8100066c <__heap_start+0xfbfff7bc>
8000395c:	810007b7          	lui	a5,0x81000
80003960:	6607aa23          	sw	zero,1652(a5) # 81000674 <__heap_start+0xfbfff7c4>
80003964:	6c4020ef          	jal	ra,80006028 <xPortStartScheduler>
80003968:	00c12083          	lw	ra,12(sp)
8000396c:	00812403          	lw	s0,8(sp)
80003970:	810007b7          	lui	a5,0x81000
80003974:	6347a783          	lw	a5,1588(a5) # 81000634 <__heap_start+0xfbfff784>
80003978:	01010113          	addi	sp,sp,16
8000397c:	00008067          	ret
80003980:	30047073          	csrci	mstatus,8
80003984:	00100073          	ebreak
80003988:	0000006f          	j	80003988 <vTaskStartScheduler+0xa8>

8000398c <vTaskEndScheduler>:
8000398c:	30047073          	csrci	mstatus,8
80003990:	810007b7          	lui	a5,0x81000
80003994:	6607a623          	sw	zero,1644(a5) # 8100066c <__heap_start+0xfbfff7bc>
80003998:	6fc0206f          	j	80006094 <vPortEndScheduler>

8000399c <vTaskSuspendAll>:
8000399c:	81000737          	lui	a4,0x81000
800039a0:	65072783          	lw	a5,1616(a4) # 81000650 <__heap_start+0xfbfff7a0>
800039a4:	00178793          	addi	a5,a5,1
800039a8:	64f72823          	sw	a5,1616(a4)
800039ac:	00008067          	ret

800039b0 <xTaskGetTickCount>:
800039b0:	810007b7          	lui	a5,0x81000
800039b4:	6747a503          	lw	a0,1652(a5) # 81000674 <__heap_start+0xfbfff7c4>
800039b8:	00008067          	ret

800039bc <xTaskGetTickCountFromISR>:
800039bc:	810007b7          	lui	a5,0x81000
800039c0:	6747a503          	lw	a0,1652(a5) # 81000674 <__heap_start+0xfbfff7c4>
800039c4:	00008067          	ret

800039c8 <uxTaskGetNumberOfTasks>:
800039c8:	810007b7          	lui	a5,0x81000
800039cc:	6787a503          	lw	a0,1656(a5) # 81000678 <__heap_start+0xfbfff7c8>
800039d0:	00008067          	ret

800039d4 <pcTaskGetName>:
800039d4:	00050663          	beqz	a0,800039e0 <pcTaskGetName+0xc>
800039d8:	03450513          	addi	a0,a0,52
800039dc:	00008067          	ret
800039e0:	810007b7          	lui	a5,0x81000
800039e4:	6887a503          	lw	a0,1672(a5) # 81000688 <__heap_start+0xfbfff7d8>
800039e8:	fe0518e3          	bnez	a0,800039d8 <pcTaskGetName+0x4>
800039ec:	30047073          	csrci	mstatus,8
800039f0:	00100073          	ebreak
800039f4:	0000006f          	j	800039f4 <pcTaskGetName+0x20>

800039f8 <xTaskIncrementTick>:
800039f8:	810007b7          	lui	a5,0x81000
800039fc:	6507a783          	lw	a5,1616(a5) # 81000650 <__heap_start+0xfbfff7a0>
80003a00:	ff010113          	addi	sp,sp,-16
80003a04:	00112623          	sw	ra,12(sp)
80003a08:	00812423          	sw	s0,8(sp)
80003a0c:	00912223          	sw	s1,4(sp)
80003a10:	20079a63          	bnez	a5,80003c24 <xTaskIncrementTick+0x22c>
80003a14:	810007b7          	lui	a5,0x81000
80003a18:	6747a483          	lw	s1,1652(a5) # 81000674 <__heap_start+0xfbfff7c4>
80003a1c:	00148493          	addi	s1,s1,1
80003a20:	6697aa23          	sw	s1,1652(a5)
80003a24:	06048e63          	beqz	s1,80003aa0 <xTaskIncrementTick+0xa8>
80003a28:	810005b7          	lui	a1,0x81000
80003a2c:	6585a783          	lw	a5,1624(a1) # 81000658 <__heap_start+0xfbfff7a8>
80003a30:	0cf4f063          	bleu	a5,s1,80003af0 <xTaskIncrementTick+0xf8>
80003a34:	81000737          	lui	a4,0x81000
80003a38:	00000413          	li	s0,0
80003a3c:	00070713          	mv	a4,a4
80003a40:	810008b7          	lui	a7,0x81000
80003a44:	6888a783          	lw	a5,1672(a7) # 81000688 <__heap_start+0xfbfff7d8>
80003a48:	00100613          	li	a2,1
80003a4c:	02c7a683          	lw	a3,44(a5)
80003a50:	00269793          	slli	a5,a3,0x2
80003a54:	00d787b3          	add	a5,a5,a3
80003a58:	00279793          	slli	a5,a5,0x2
80003a5c:	00f70733          	add	a4,a4,a5
80003a60:	01472783          	lw	a5,20(a4) # 81000014 <__heap_start+0xfbfff164>
80003a64:	00f67463          	bleu	a5,a2,80003a6c <xTaskIncrementTick+0x74>
80003a68:	00100413          	li	s0,1
80003a6c:	810007b7          	lui	a5,0x81000
80003a70:	6687a783          	lw	a5,1640(a5) # 81000668 <__heap_start+0xfbfff7b8>
80003a74:	1e078a63          	beqz	a5,80003c68 <xTaskIncrementTick+0x270>
80003a78:	810007b7          	lui	a5,0x81000
80003a7c:	6647a783          	lw	a5,1636(a5) # 81000664 <__heap_start+0xfbfff7b4>
80003a80:	00078463          	beqz	a5,80003a88 <xTaskIncrementTick+0x90>
80003a84:	00100413          	li	s0,1
80003a88:	00040513          	mv	a0,s0
80003a8c:	00c12083          	lw	ra,12(sp)
80003a90:	00812403          	lw	s0,8(sp)
80003a94:	00412483          	lw	s1,4(sp)
80003a98:	01010113          	addi	sp,sp,16
80003a9c:	00008067          	ret
80003aa0:	81000637          	lui	a2,0x81000
80003aa4:	68462783          	lw	a5,1668(a2) # 81000684 <__heap_start+0xfbfff7d4>
80003aa8:	0007a783          	lw	a5,0(a5)
80003aac:	1a079463          	bnez	a5,80003c54 <xTaskIncrementTick+0x25c>
80003ab0:	810007b7          	lui	a5,0x81000
80003ab4:	68462683          	lw	a3,1668(a2)
80003ab8:	6807a583          	lw	a1,1664(a5) # 81000680 <__heap_start+0xfbfff7d0>
80003abc:	81000737          	lui	a4,0x81000
80003ac0:	68b62223          	sw	a1,1668(a2)
80003ac4:	68d7a023          	sw	a3,1664(a5)
80003ac8:	66072783          	lw	a5,1632(a4) # 81000660 <__heap_start+0xfbfff7b0>
80003acc:	00178793          	addi	a5,a5,1
80003ad0:	66f72023          	sw	a5,1632(a4)
80003ad4:	68462783          	lw	a5,1668(a2)
80003ad8:	0007a783          	lw	a5,0(a5)
80003adc:	18079a63          	bnez	a5,80003c70 <xTaskIncrementTick+0x278>
80003ae0:	810005b7          	lui	a1,0x81000
80003ae4:	fff00793          	li	a5,-1
80003ae8:	64f5ac23          	sw	a5,1624(a1) # 81000658 <__heap_start+0xfbfff7a8>
80003aec:	f41ff06f          	j	80003a2c <xTaskIncrementTick+0x34>
80003af0:	81000737          	lui	a4,0x81000
80003af4:	00070713          	mv	a4,a4
80003af8:	00000413          	li	s0,0
80003afc:	81000637          	lui	a2,0x81000
80003b00:	810008b7          	lui	a7,0x81000
80003b04:	81000f37          	lui	t5,0x81000
80003b08:	00100293          	li	t0,1
80003b0c:	01470f93          	addi	t6,a4,20 # 81000014 <__heap_start+0xfbfff164>
80003b10:	68462783          	lw	a5,1668(a2) # 81000684 <__heap_start+0xfbfff7d4>
80003b14:	0007a783          	lw	a5,0(a5)
80003b18:	0e078863          	beqz	a5,80003c08 <xTaskIncrementTick+0x210>
80003b1c:	68462783          	lw	a5,1668(a2)
80003b20:	00c7a783          	lw	a5,12(a5)
80003b24:	00c7a783          	lw	a5,12(a5)
80003b28:	0047a683          	lw	a3,4(a5)
80003b2c:	00478e93          	addi	t4,a5,4
80003b30:	01878313          	addi	t1,a5,24
80003b34:	12d4e663          	bltu	s1,a3,80003c60 <xTaskIncrementTick+0x268>
80003b38:	0147a503          	lw	a0,20(a5)
80003b3c:	0087a803          	lw	a6,8(a5)
80003b40:	00c7a683          	lw	a3,12(a5)
80003b44:	00452e03          	lw	t3,4(a0)
80003b48:	00d82423          	sw	a3,8(a6)
80003b4c:	0106a223          	sw	a6,4(a3)
80003b50:	0dde0263          	beq	t3,t4,80003c14 <xTaskIncrementTick+0x21c>
80003b54:	00052803          	lw	a6,0(a0)
80003b58:	0287a683          	lw	a3,40(a5)
80003b5c:	0007aa23          	sw	zero,20(a5)
80003b60:	fff80813          	addi	a6,a6,-1
80003b64:	01052023          	sw	a6,0(a0)
80003b68:	02068863          	beqz	a3,80003b98 <xTaskIncrementTick+0x1a0>
80003b6c:	0207a503          	lw	a0,32(a5)
80003b70:	01c7a803          	lw	a6,28(a5)
80003b74:	0046ae03          	lw	t3,4(a3)
80003b78:	00a82423          	sw	a0,8(a6)
80003b7c:	0207a503          	lw	a0,32(a5)
80003b80:	01052223          	sw	a6,4(a0)
80003b84:	086e0c63          	beq	t3,t1,80003c1c <xTaskIncrementTick+0x224>
80003b88:	0006a503          	lw	a0,0(a3)
80003b8c:	0207a423          	sw	zero,40(a5)
80003b90:	fff50513          	addi	a0,a0,-1
80003b94:	00a6a023          	sw	a0,0(a3)
80003b98:	02c7a503          	lw	a0,44(a5)
80003b9c:	670f2383          	lw	t2,1648(t5) # 81000670 <__heap_start+0xfbfff7c0>
80003ba0:	00251693          	slli	a3,a0,0x2
80003ba4:	00a686b3          	add	a3,a3,a0
80003ba8:	00269693          	slli	a3,a3,0x2
80003bac:	00d70333          	add	t1,a4,a3
80003bb0:	01832803          	lw	a6,24(t1)
80003bb4:	00a29e33          	sll	t3,t0,a0
80003bb8:	007e6e33          	or	t3,t3,t2
80003bbc:	00882383          	lw	t2,8(a6)
80003bc0:	67cf2823          	sw	t3,1648(t5)
80003bc4:	01432e03          	lw	t3,20(t1)
80003bc8:	0077a623          	sw	t2,12(a5)
80003bcc:	00882383          	lw	t2,8(a6)
80003bd0:	0107a423          	sw	a6,8(a5)
80003bd4:	00df86b3          	add	a3,t6,a3
80003bd8:	01d3a223          	sw	t4,4(t2)
80003bdc:	01d82423          	sw	t4,8(a6)
80003be0:	00d7aa23          	sw	a3,20(a5)
80003be4:	001e0793          	addi	a5,t3,1
80003be8:	00f32a23          	sw	a5,20(t1)
80003bec:	6888a783          	lw	a5,1672(a7) # 81000688 <__heap_start+0xfbfff7d8>
80003bf0:	02c7a783          	lw	a5,44(a5)
80003bf4:	f0f56ee3          	bltu	a0,a5,80003b10 <xTaskIncrementTick+0x118>
80003bf8:	68462783          	lw	a5,1668(a2)
80003bfc:	00100413          	li	s0,1
80003c00:	0007a783          	lw	a5,0(a5)
80003c04:	f0079ce3          	bnez	a5,80003b1c <xTaskIncrementTick+0x124>
80003c08:	fff00793          	li	a5,-1
80003c0c:	64f5ac23          	sw	a5,1624(a1)
80003c10:	e35ff06f          	j	80003a44 <xTaskIncrementTick+0x4c>
80003c14:	00d52223          	sw	a3,4(a0)
80003c18:	f3dff06f          	j	80003b54 <xTaskIncrementTick+0x15c>
80003c1c:	00a6a223          	sw	a0,4(a3)
80003c20:	f69ff06f          	j	80003b88 <xTaskIncrementTick+0x190>
80003c24:	81000737          	lui	a4,0x81000
80003c28:	66872783          	lw	a5,1640(a4) # 81000668 <__heap_start+0xfbfff7b8>
80003c2c:	00000413          	li	s0,0
80003c30:	00178793          	addi	a5,a5,1
80003c34:	66f72423          	sw	a5,1640(a4)
80003c38:	f80fc0ef          	jal	ra,800003b8 <vApplicationTickHook>
80003c3c:	00040513          	mv	a0,s0
80003c40:	00c12083          	lw	ra,12(sp)
80003c44:	00812403          	lw	s0,8(sp)
80003c48:	00412483          	lw	s1,4(sp)
80003c4c:	01010113          	addi	sp,sp,16
80003c50:	00008067          	ret
80003c54:	30047073          	csrci	mstatus,8
80003c58:	00100073          	ebreak
80003c5c:	0000006f          	j	80003c5c <xTaskIncrementTick+0x264>
80003c60:	64d5ac23          	sw	a3,1624(a1)
80003c64:	de1ff06f          	j	80003a44 <xTaskIncrementTick+0x4c>
80003c68:	f50fc0ef          	jal	ra,800003b8 <vApplicationTickHook>
80003c6c:	e0dff06f          	j	80003a78 <xTaskIncrementTick+0x80>
80003c70:	dedfe0ef          	jal	ra,80002a5c <prvResetNextTaskUnblockTime.part.1>
80003c74:	db5ff06f          	j	80003a28 <xTaskIncrementTick+0x30>

80003c78 <xTaskResumeAll.part.8>:
80003c78:	fd010113          	addi	sp,sp,-48
80003c7c:	02112623          	sw	ra,44(sp)
80003c80:	02812423          	sw	s0,40(sp)
80003c84:	02912223          	sw	s1,36(sp)
80003c88:	03212023          	sw	s2,32(sp)
80003c8c:	01312e23          	sw	s3,28(sp)
80003c90:	01412c23          	sw	s4,24(sp)
80003c94:	30047073          	csrci	mstatus,8
80003c98:	81000437          	lui	s0,0x81000
80003c9c:	66c42783          	lw	a5,1644(s0) # 8100066c <__heap_start+0xfbfff7bc>
80003ca0:	00078463          	beqz	a5,80003ca8 <xTaskResumeAll.part.8+0x30>
80003ca4:	ec1fe0ef          	jal	ra,80002b64 <vTaskEnterCritical.part.5>
80003ca8:	810007b7          	lui	a5,0x81000
80003cac:	6507a703          	lw	a4,1616(a5) # 81000650 <__heap_start+0xfbfff7a0>
80003cb0:	fff70713          	addi	a4,a4,-1
80003cb4:	64e7a823          	sw	a4,1616(a5)
80003cb8:	6507a783          	lw	a5,1616(a5)
80003cbc:	14079e63          	bnez	a5,80003e18 <xTaskResumeAll.part.8+0x1a0>
80003cc0:	810007b7          	lui	a5,0x81000
80003cc4:	6787a783          	lw	a5,1656(a5) # 81000678 <__heap_start+0xfbfff7c8>
80003cc8:	14078863          	beqz	a5,80003e18 <xTaskResumeAll.part.8+0x1a0>
80003ccc:	81000337          	lui	t1,0x81000
80003cd0:	00030313          	mv	t1,t1
80003cd4:	00000793          	li	a5,0
80003cd8:	810004b7          	lui	s1,0x81000
80003cdc:	81000e37          	lui	t3,0x81000
80003ce0:	00100e93          	li	t4,1
80003ce4:	01430f93          	addi	t6,t1,20 # 81000014 <__heap_start+0xfbfff164>
80003ce8:	81000f37          	lui	t5,0x81000
80003cec:	0dc32703          	lw	a4,220(t1)
80003cf0:	0c070c63          	beqz	a4,80003dc8 <xTaskResumeAll.part.8+0x150>
80003cf4:	0e832783          	lw	a5,232(t1)
80003cf8:	00c7a783          	lw	a5,12(a5)
80003cfc:	01c7a683          	lw	a3,28(a5)
80003d00:	0207a603          	lw	a2,32(a5)
80003d04:	0287a703          	lw	a4,40(a5)
80003d08:	01878593          	addi	a1,a5,24
80003d0c:	00c6a423          	sw	a2,8(a3)
80003d10:	0207a803          	lw	a6,32(a5)
80003d14:	00472503          	lw	a0,4(a4)
80003d18:	00d82223          	sw	a3,4(a6)
80003d1c:	14b50663          	beq	a0,a1,80003e68 <xTaskResumeAll.part.8+0x1f0>
80003d20:	00072683          	lw	a3,0(a4)
80003d24:	0207a423          	sw	zero,40(a5)
80003d28:	fff68693          	addi	a3,a3,-1
80003d2c:	00d72023          	sw	a3,0(a4)
80003d30:	0147a583          	lw	a1,20(a5)
80003d34:	0087a683          	lw	a3,8(a5)
80003d38:	00c7a703          	lw	a4,12(a5)
80003d3c:	0045a603          	lw	a2,4(a1)
80003d40:	00478813          	addi	a6,a5,4
80003d44:	00e6a423          	sw	a4,8(a3)
80003d48:	00d72223          	sw	a3,4(a4)
80003d4c:	11060a63          	beq	a2,a6,80003e60 <xTaskResumeAll.part.8+0x1e8>
80003d50:	02c7a683          	lw	a3,44(a5)
80003d54:	0005a883          	lw	a7,0(a1)
80003d58:	00269713          	slli	a4,a3,0x2
80003d5c:	00d70733          	add	a4,a4,a3
80003d60:	00271713          	slli	a4,a4,0x2
80003d64:	00e30533          	add	a0,t1,a4
80003d68:	01852603          	lw	a2,24(a0)
80003d6c:	fff88893          	addi	a7,a7,-1
80003d70:	0115a023          	sw	a7,0(a1)
80003d74:	00862883          	lw	a7,8(a2)
80003d78:	670e2283          	lw	t0,1648(t3) # 81000670 <__heap_start+0xfbfff7c0>
80003d7c:	00de95b3          	sll	a1,t4,a3
80003d80:	0117a623          	sw	a7,12(a5)
80003d84:	00862883          	lw	a7,8(a2)
80003d88:	0055e5b3          	or	a1,a1,t0
80003d8c:	66be2823          	sw	a1,1648(t3)
80003d90:	01452583          	lw	a1,20(a0)
80003d94:	00c7a423          	sw	a2,8(a5)
80003d98:	0108a223          	sw	a6,4(a7)
80003d9c:	01062423          	sw	a6,8(a2)
80003da0:	00ef8733          	add	a4,t6,a4
80003da4:	00e7aa23          	sw	a4,20(a5)
80003da8:	00158713          	addi	a4,a1,1
80003dac:	00e52a23          	sw	a4,20(a0)
80003db0:	688f2703          	lw	a4,1672(t5) # 81000688 <__heap_start+0xfbfff7d8>
80003db4:	02c72703          	lw	a4,44(a4)
80003db8:	f2e6eae3          	bltu	a3,a4,80003cec <xTaskResumeAll.part.8+0x74>
80003dbc:	67d4a223          	sw	t4,1636(s1) # 81000664 <__heap_start+0xfbfff7b4>
80003dc0:	0dc32703          	lw	a4,220(t1)
80003dc4:	f20718e3          	bnez	a4,80003cf4 <xTaskResumeAll.part.8+0x7c>
80003dc8:	02078063          	beqz	a5,80003de8 <xTaskResumeAll.part.8+0x170>
80003dcc:	810007b7          	lui	a5,0x81000
80003dd0:	6847a783          	lw	a5,1668(a5) # 81000684 <__heap_start+0xfbfff7d4>
80003dd4:	0007a783          	lw	a5,0(a5)
80003dd8:	0a079263          	bnez	a5,80003e7c <xTaskResumeAll.part.8+0x204>
80003ddc:	810007b7          	lui	a5,0x81000
80003de0:	fff00713          	li	a4,-1
80003de4:	64e7ac23          	sw	a4,1624(a5) # 81000658 <__heap_start+0xfbfff7a8>
80003de8:	81000a37          	lui	s4,0x81000
80003dec:	668a2903          	lw	s2,1640(s4) # 81000668 <__heap_start+0xfbfff7b8>
80003df0:	02090063          	beqz	s2,80003e10 <xTaskResumeAll.part.8+0x198>
80003df4:	00100993          	li	s3,1
80003df8:	c01ff0ef          	jal	ra,800039f8 <xTaskIncrementTick>
80003dfc:	fff90913          	addi	s2,s2,-1
80003e00:	00050463          	beqz	a0,80003e08 <xTaskResumeAll.part.8+0x190>
80003e04:	6734a223          	sw	s3,1636(s1)
80003e08:	fe0918e3          	bnez	s2,80003df8 <xTaskResumeAll.part.8+0x180>
80003e0c:	660a2423          	sw	zero,1640(s4)
80003e10:	6644a783          	lw	a5,1636(s1)
80003e14:	04079e63          	bnez	a5,80003e70 <xTaskResumeAll.part.8+0x1f8>
80003e18:	00000513          	li	a0,0
80003e1c:	66c42783          	lw	a5,1644(s0)
80003e20:	02078063          	beqz	a5,80003e40 <xTaskResumeAll.part.8+0x1c8>
80003e24:	810007b7          	lui	a5,0x81000
80003e28:	6887a783          	lw	a5,1672(a5) # 81000688 <__heap_start+0xfbfff7d8>
80003e2c:	0447a783          	lw	a5,68(a5)
80003e30:	00078863          	beqz	a5,80003e40 <xTaskResumeAll.part.8+0x1c8>
80003e34:	00a12623          	sw	a0,12(sp)
80003e38:	d49fe0ef          	jal	ra,80002b80 <vTaskExitCritical.part.6>
80003e3c:	00c12503          	lw	a0,12(sp)
80003e40:	02c12083          	lw	ra,44(sp)
80003e44:	02812403          	lw	s0,40(sp)
80003e48:	02412483          	lw	s1,36(sp)
80003e4c:	02012903          	lw	s2,32(sp)
80003e50:	01c12983          	lw	s3,28(sp)
80003e54:	01812a03          	lw	s4,24(sp)
80003e58:	03010113          	addi	sp,sp,48
80003e5c:	00008067          	ret
80003e60:	00e5a223          	sw	a4,4(a1)
80003e64:	eedff06f          	j	80003d50 <xTaskResumeAll.part.8+0xd8>
80003e68:	00c72223          	sw	a2,4(a4)
80003e6c:	eb5ff06f          	j	80003d20 <xTaskResumeAll.part.8+0xa8>
80003e70:	00000073          	ecall
80003e74:	00100513          	li	a0,1
80003e78:	fa5ff06f          	j	80003e1c <xTaskResumeAll.part.8+0x1a4>
80003e7c:	be1fe0ef          	jal	ra,80002a5c <prvResetNextTaskUnblockTime.part.1>
80003e80:	f69ff06f          	j	80003de8 <xTaskResumeAll.part.8+0x170>

80003e84 <xTaskResumeAll>:
80003e84:	810007b7          	lui	a5,0x81000
80003e88:	6507a783          	lw	a5,1616(a5) # 81000650 <__heap_start+0xfbfff7a0>
80003e8c:	00079863          	bnez	a5,80003e9c <xTaskResumeAll+0x18>
80003e90:	30047073          	csrci	mstatus,8
80003e94:	00100073          	ebreak
80003e98:	0000006f          	j	80003e98 <xTaskResumeAll+0x14>
80003e9c:	dddff06f          	j	80003c78 <xTaskResumeAll.part.8>

80003ea0 <xTaskDelayUntil>:
80003ea0:	06050a63          	beqz	a0,80003f14 <xTaskDelayUntil+0x74>
80003ea4:	00059863          	bnez	a1,80003eb4 <xTaskDelayUntil+0x14>
80003ea8:	30047073          	csrci	mstatus,8
80003eac:	00100073          	ebreak
80003eb0:	0000006f          	j	80003eb0 <xTaskDelayUntil+0x10>
80003eb4:	ff010113          	addi	sp,sp,-16
80003eb8:	00912223          	sw	s1,4(sp)
80003ebc:	810004b7          	lui	s1,0x81000
80003ec0:	6504a783          	lw	a5,1616(s1) # 81000650 <__heap_start+0xfbfff7a0>
80003ec4:	00112623          	sw	ra,12(sp)
80003ec8:	00812423          	sw	s0,8(sp)
80003ecc:	04079a63          	bnez	a5,80003f20 <xTaskDelayUntil+0x80>
80003ed0:	6504a683          	lw	a3,1616(s1)
80003ed4:	00050713          	mv	a4,a0
80003ed8:	00168693          	addi	a3,a3,1
80003edc:	64d4a823          	sw	a3,1616(s1)
80003ee0:	00052683          	lw	a3,0(a0)
80003ee4:	81000637          	lui	a2,0x81000
80003ee8:	67462503          	lw	a0,1652(a2) # 81000674 <__heap_start+0xfbfff7c4>
80003eec:	00b687b3          	add	a5,a3,a1
80003ef0:	00f72023          	sw	a5,0(a4)
80003ef4:	04d57e63          	bleu	a3,a0,80003f50 <xTaskDelayUntil+0xb0>
80003ef8:	04d7ee63          	bltu	a5,a3,80003f54 <xTaskDelayUntil+0xb4>
80003efc:	00000413          	li	s0,0
80003f00:	6504a783          	lw	a5,1616(s1)
80003f04:	02079463          	bnez	a5,80003f2c <xTaskDelayUntil+0x8c>
80003f08:	30047073          	csrci	mstatus,8
80003f0c:	00100073          	ebreak
80003f10:	0000006f          	j	80003f10 <xTaskDelayUntil+0x70>
80003f14:	30047073          	csrci	mstatus,8
80003f18:	00100073          	ebreak
80003f1c:	0000006f          	j	80003f1c <xTaskDelayUntil+0x7c>
80003f20:	30047073          	csrci	mstatus,8
80003f24:	00100073          	ebreak
80003f28:	0000006f          	j	80003f28 <xTaskDelayUntil+0x88>
80003f2c:	d4dff0ef          	jal	ra,80003c78 <xTaskResumeAll.part.8>
80003f30:	00051463          	bnez	a0,80003f38 <xTaskDelayUntil+0x98>
80003f34:	00000073          	ecall
80003f38:	00040513          	mv	a0,s0
80003f3c:	00c12083          	lw	ra,12(sp)
80003f40:	00812403          	lw	s0,8(sp)
80003f44:	00412483          	lw	s1,4(sp)
80003f48:	01010113          	addi	sp,sp,16
80003f4c:	00008067          	ret
80003f50:	00d7e463          	bltu	a5,a3,80003f58 <xTaskDelayUntil+0xb8>
80003f54:	faf574e3          	bleu	a5,a0,80003efc <xTaskDelayUntil+0x5c>
80003f58:	00000593          	li	a1,0
80003f5c:	40a78533          	sub	a0,a5,a0
80003f60:	9a1fe0ef          	jal	ra,80002900 <prvAddCurrentTaskToDelayedList>
80003f64:	00100413          	li	s0,1
80003f68:	f99ff06f          	j	80003f00 <xTaskDelayUntil+0x60>

80003f6c <vTaskDelay>:
80003f6c:	00051663          	bnez	a0,80003f78 <vTaskDelay+0xc>
80003f70:	00000073          	ecall
80003f74:	00008067          	ret
80003f78:	ff010113          	addi	sp,sp,-16
80003f7c:	00812423          	sw	s0,8(sp)
80003f80:	81000437          	lui	s0,0x81000
80003f84:	65042783          	lw	a5,1616(s0) # 81000650 <__heap_start+0xfbfff7a0>
80003f88:	00112623          	sw	ra,12(sp)
80003f8c:	00078863          	beqz	a5,80003f9c <vTaskDelay+0x30>
80003f90:	30047073          	csrci	mstatus,8
80003f94:	00100073          	ebreak
80003f98:	0000006f          	j	80003f98 <vTaskDelay+0x2c>
80003f9c:	65042783          	lw	a5,1616(s0)
80003fa0:	00178793          	addi	a5,a5,1
80003fa4:	64f42823          	sw	a5,1616(s0)
80003fa8:	00000593          	li	a1,0
80003fac:	955fe0ef          	jal	ra,80002900 <prvAddCurrentTaskToDelayedList>
80003fb0:	65042783          	lw	a5,1616(s0)
80003fb4:	00079863          	bnez	a5,80003fc4 <vTaskDelay+0x58>
80003fb8:	30047073          	csrci	mstatus,8
80003fbc:	00100073          	ebreak
80003fc0:	0000006f          	j	80003fc0 <vTaskDelay+0x54>
80003fc4:	cb5ff0ef          	jal	ra,80003c78 <xTaskResumeAll.part.8>
80003fc8:	00051463          	bnez	a0,80003fd0 <vTaskDelay+0x64>
80003fcc:	00000073          	ecall
80003fd0:	00c12083          	lw	ra,12(sp)
80003fd4:	00812403          	lw	s0,8(sp)
80003fd8:	01010113          	addi	sp,sp,16
80003fdc:	00008067          	ret

80003fe0 <xTaskGetHandle>:
80003fe0:	fe010113          	addi	sp,sp,-32
80003fe4:	00912a23          	sw	s1,20(sp)
80003fe8:	00112e23          	sw	ra,28(sp)
80003fec:	00812c23          	sw	s0,24(sp)
80003ff0:	01212823          	sw	s2,16(sp)
80003ff4:	01312623          	sw	s3,12(sp)
80003ff8:	01412423          	sw	s4,8(sp)
80003ffc:	01512223          	sw	s5,4(sp)
80004000:	01612023          	sw	s6,0(sp)
80004004:	00050493          	mv	s1,a0
80004008:	a40fd0ef          	jal	ra,80001248 <strlen>
8000400c:	00f00793          	li	a5,15
80004010:	00a7f863          	bleu	a0,a5,80004020 <xTaskGetHandle+0x40>
80004014:	30047073          	csrci	mstatus,8
80004018:	00100073          	ebreak
8000401c:	0000006f          	j	8000401c <xTaskGetHandle+0x3c>
80004020:	810009b7          	lui	s3,0x81000
80004024:	6509a783          	lw	a5,1616(s3) # 81000650 <__heap_start+0xfbfff7a0>
80004028:	00178793          	addi	a5,a5,1
8000402c:	64f9a823          	sw	a5,1616(s3)
80004030:	81000ab7          	lui	s5,0x81000
80004034:	000a8a13          	mv	s4,s5
80004038:	014a0b13          	addi	s6,s4,20
8000403c:	08ca0913          	addi	s2,s4,140
80004040:	0080006f          	j	80004048 <xTaskGetHandle+0x68>
80004044:	00078913          	mv	s2,a5
80004048:	00090513          	mv	a0,s2
8000404c:	00048593          	mv	a1,s1
80004050:	831fe0ef          	jal	ra,80002880 <prvSearchForNameWithinSingleList>
80004054:	00050413          	mv	s0,a0
80004058:	06051063          	bnez	a0,800040b8 <xTaskGetHandle+0xd8>
8000405c:	fec90793          	addi	a5,s2,-20
80004060:	ff2b12e3          	bne	s6,s2,80004044 <xTaskGetHandle+0x64>
80004064:	810007b7          	lui	a5,0x81000
80004068:	6847a503          	lw	a0,1668(a5) # 81000684 <__heap_start+0xfbfff7d4>
8000406c:	00048593          	mv	a1,s1
80004070:	811fe0ef          	jal	ra,80002880 <prvSearchForNameWithinSingleList>
80004074:	00050413          	mv	s0,a0
80004078:	04051063          	bnez	a0,800040b8 <xTaskGetHandle+0xd8>
8000407c:	810007b7          	lui	a5,0x81000
80004080:	6807a503          	lw	a0,1664(a5) # 81000680 <__heap_start+0xfbfff7d0>
80004084:	00048593          	mv	a1,s1
80004088:	ff8fe0ef          	jal	ra,80002880 <prvSearchForNameWithinSingleList>
8000408c:	00050413          	mv	s0,a0
80004090:	02051463          	bnez	a0,800040b8 <xTaskGetHandle+0xd8>
80004094:	00048593          	mv	a1,s1
80004098:	000a8513          	mv	a0,s5
8000409c:	fe4fe0ef          	jal	ra,80002880 <prvSearchForNameWithinSingleList>
800040a0:	00050413          	mv	s0,a0
800040a4:	00051a63          	bnez	a0,800040b8 <xTaskGetHandle+0xd8>
800040a8:	00048593          	mv	a1,s1
800040ac:	0a0a0513          	addi	a0,s4,160
800040b0:	fd0fe0ef          	jal	ra,80002880 <prvSearchForNameWithinSingleList>
800040b4:	00050413          	mv	s0,a0
800040b8:	6509a783          	lw	a5,1616(s3)
800040bc:	00079863          	bnez	a5,800040cc <xTaskGetHandle+0xec>
800040c0:	30047073          	csrci	mstatus,8
800040c4:	00100073          	ebreak
800040c8:	0000006f          	j	800040c8 <xTaskGetHandle+0xe8>
800040cc:	badff0ef          	jal	ra,80003c78 <xTaskResumeAll.part.8>
800040d0:	00040513          	mv	a0,s0
800040d4:	01c12083          	lw	ra,28(sp)
800040d8:	01812403          	lw	s0,24(sp)
800040dc:	01412483          	lw	s1,20(sp)
800040e0:	01012903          	lw	s2,16(sp)
800040e4:	00c12983          	lw	s3,12(sp)
800040e8:	00812a03          	lw	s4,8(sp)
800040ec:	00412a83          	lw	s5,4(sp)
800040f0:	00012b03          	lw	s6,0(sp)
800040f4:	02010113          	addi	sp,sp,32
800040f8:	00008067          	ret

800040fc <xTaskCatchUpTicks>:
800040fc:	810007b7          	lui	a5,0x81000
80004100:	6507a703          	lw	a4,1616(a5) # 81000650 <__heap_start+0xfbfff7a0>
80004104:	00070863          	beqz	a4,80004114 <xTaskCatchUpTicks+0x18>
80004108:	30047073          	csrci	mstatus,8
8000410c:	00100073          	ebreak
80004110:	0000006f          	j	80004110 <xTaskCatchUpTicks+0x14>
80004114:	6507a703          	lw	a4,1616(a5)
80004118:	00170713          	addi	a4,a4,1
8000411c:	64e7a823          	sw	a4,1616(a5)
80004120:	810006b7          	lui	a3,0x81000
80004124:	6686a703          	lw	a4,1640(a3) # 81000668 <__heap_start+0xfbfff7b8>
80004128:	00a70733          	add	a4,a4,a0
8000412c:	66e6a423          	sw	a4,1640(a3)
80004130:	6507a783          	lw	a5,1616(a5)
80004134:	00079863          	bnez	a5,80004144 <xTaskCatchUpTicks+0x48>
80004138:	30047073          	csrci	mstatus,8
8000413c:	00100073          	ebreak
80004140:	0000006f          	j	80004140 <xTaskCatchUpTicks+0x44>
80004144:	b35ff06f          	j	80003c78 <xTaskResumeAll.part.8>

80004148 <xTaskAbortDelay>:
80004148:	06050c63          	beqz	a0,800041c0 <xTaskAbortDelay+0x78>
8000414c:	fe010113          	addi	sp,sp,-32
80004150:	00912a23          	sw	s1,20(sp)
80004154:	810004b7          	lui	s1,0x81000
80004158:	6504a783          	lw	a5,1616(s1) # 81000650 <__heap_start+0xfbfff7a0>
8000415c:	00812c23          	sw	s0,24(sp)
80004160:	00112e23          	sw	ra,28(sp)
80004164:	00178793          	addi	a5,a5,1
80004168:	01212823          	sw	s2,16(sp)
8000416c:	01312623          	sw	s3,12(sp)
80004170:	00050413          	mv	s0,a0
80004174:	64f4a823          	sw	a5,1616(s1)
80004178:	fadfe0ef          	jal	ra,80003124 <eTaskGetState>
8000417c:	00200793          	li	a5,2
80004180:	00000913          	li	s2,0
80004184:	04f50463          	beq	a0,a5,800041cc <xTaskAbortDelay+0x84>
80004188:	6504a783          	lw	a5,1616(s1)
8000418c:	00079863          	bnez	a5,8000419c <xTaskAbortDelay+0x54>
80004190:	30047073          	csrci	mstatus,8
80004194:	00100073          	ebreak
80004198:	0000006f          	j	80004198 <xTaskAbortDelay+0x50>
8000419c:	addff0ef          	jal	ra,80003c78 <xTaskResumeAll.part.8>
800041a0:	01c12083          	lw	ra,28(sp)
800041a4:	01812403          	lw	s0,24(sp)
800041a8:	00090513          	mv	a0,s2
800041ac:	01412483          	lw	s1,20(sp)
800041b0:	01012903          	lw	s2,16(sp)
800041b4:	00c12983          	lw	s3,12(sp)
800041b8:	02010113          	addi	sp,sp,32
800041bc:	00008067          	ret
800041c0:	30047073          	csrci	mstatus,8
800041c4:	00100073          	ebreak
800041c8:	0000006f          	j	800041c8 <xTaskAbortDelay+0x80>
800041cc:	00440913          	addi	s2,s0,4
800041d0:	00090513          	mv	a0,s2
800041d4:	a40fd0ef          	jal	ra,80001414 <uxListRemove>
800041d8:	30047073          	csrci	mstatus,8
800041dc:	810009b7          	lui	s3,0x81000
800041e0:	66c9a783          	lw	a5,1644(s3) # 8100066c <__heap_start+0xfbfff7bc>
800041e4:	00078463          	beqz	a5,800041ec <xTaskAbortDelay+0xa4>
800041e8:	97dfe0ef          	jal	ra,80002b64 <vTaskEnterCritical.part.5>
800041ec:	02842783          	lw	a5,40(s0)
800041f0:	00078a63          	beqz	a5,80004204 <xTaskAbortDelay+0xbc>
800041f4:	01840513          	addi	a0,s0,24
800041f8:	a1cfd0ef          	jal	ra,80001414 <uxListRemove>
800041fc:	00100793          	li	a5,1
80004200:	04f40aa3          	sb	a5,85(s0)
80004204:	66c9a783          	lw	a5,1644(s3)
80004208:	810009b7          	lui	s3,0x81000
8000420c:	00078863          	beqz	a5,8000421c <xTaskAbortDelay+0xd4>
80004210:	6889a783          	lw	a5,1672(s3) # 81000688 <__heap_start+0xfbfff7d8>
80004214:	0447a783          	lw	a5,68(a5)
80004218:	08079463          	bnez	a5,800042a0 <xTaskAbortDelay+0x158>
8000421c:	02c42603          	lw	a2,44(s0)
80004220:	810007b7          	lui	a5,0x81000
80004224:	00078793          	mv	a5,a5
80004228:	00261713          	slli	a4,a2,0x2
8000422c:	00c70733          	add	a4,a4,a2
80004230:	00271713          	slli	a4,a4,0x2
80004234:	00e78533          	add	a0,a5,a4
80004238:	01852583          	lw	a1,24(a0)
8000423c:	81000837          	lui	a6,0x81000
80004240:	67082303          	lw	t1,1648(a6) # 81000670 <__heap_start+0xfbfff7c0>
80004244:	0085a883          	lw	a7,8(a1)
80004248:	00100693          	li	a3,1
8000424c:	00c696b3          	sll	a3,a3,a2
80004250:	01142623          	sw	a7,12(s0)
80004254:	0085a883          	lw	a7,8(a1)
80004258:	0066e6b3          	or	a3,a3,t1
8000425c:	66d82823          	sw	a3,1648(a6)
80004260:	01452683          	lw	a3,20(a0)
80004264:	00b42423          	sw	a1,8(s0)
80004268:	0128a223          	sw	s2,4(a7)
8000426c:	01478793          	addi	a5,a5,20 # 81000014 <__heap_start+0xfbfff164>
80004270:	0125a423          	sw	s2,8(a1)
80004274:	00e787b3          	add	a5,a5,a4
80004278:	00f42a23          	sw	a5,20(s0)
8000427c:	00168793          	addi	a5,a3,1
80004280:	00f52a23          	sw	a5,20(a0)
80004284:	6889a783          	lw	a5,1672(s3)
80004288:	00100913          	li	s2,1
8000428c:	02c7a783          	lw	a5,44(a5)
80004290:	eec7fce3          	bleu	a2,a5,80004188 <xTaskAbortDelay+0x40>
80004294:	810007b7          	lui	a5,0x81000
80004298:	6727a223          	sw	s2,1636(a5) # 81000664 <__heap_start+0xfbfff7b4>
8000429c:	eedff06f          	j	80004188 <xTaskAbortDelay+0x40>
800042a0:	8e1fe0ef          	jal	ra,80002b80 <vTaskExitCritical.part.6>
800042a4:	f79ff06f          	j	8000421c <xTaskAbortDelay+0xd4>

800042a8 <vTaskSwitchContext>:
800042a8:	810007b7          	lui	a5,0x81000
800042ac:	6507a783          	lw	a5,1616(a5) # 81000650 <__heap_start+0xfbfff7a0>
800042b0:	00078a63          	beqz	a5,800042c4 <vTaskSwitchContext+0x1c>
800042b4:	810007b7          	lui	a5,0x81000
800042b8:	00100713          	li	a4,1
800042bc:	66e7a223          	sw	a4,1636(a5) # 81000664 <__heap_start+0xfbfff7b4>
800042c0:	00008067          	ret
800042c4:	fb4fe06f          	j	80002a78 <vTaskSwitchContext.part.4>

800042c8 <vTaskPlaceOnEventList>:
800042c8:	02050e63          	beqz	a0,80004304 <vTaskPlaceOnEventList+0x3c>
800042cc:	ff010113          	addi	sp,sp,-16
800042d0:	810007b7          	lui	a5,0x81000
800042d4:	00812423          	sw	s0,8(sp)
800042d8:	00058413          	mv	s0,a1
800042dc:	6887a583          	lw	a1,1672(a5) # 81000688 <__heap_start+0xfbfff7d8>
800042e0:	00112623          	sw	ra,12(sp)
800042e4:	01858593          	addi	a1,a1,24
800042e8:	8d8fd0ef          	jal	ra,800013c0 <vListInsert>
800042ec:	00040513          	mv	a0,s0
800042f0:	00812403          	lw	s0,8(sp)
800042f4:	00c12083          	lw	ra,12(sp)
800042f8:	00100593          	li	a1,1
800042fc:	01010113          	addi	sp,sp,16
80004300:	e00fe06f          	j	80002900 <prvAddCurrentTaskToDelayedList>
80004304:	30047073          	csrci	mstatus,8
80004308:	00100073          	ebreak
8000430c:	0000006f          	j	8000430c <vTaskPlaceOnEventList+0x44>

80004310 <vTaskPlaceOnUnorderedEventList>:
80004310:	00050713          	mv	a4,a0
80004314:	00050e63          	beqz	a0,80004330 <vTaskPlaceOnUnorderedEventList+0x20>
80004318:	810007b7          	lui	a5,0x81000
8000431c:	6507a783          	lw	a5,1616(a5) # 81000650 <__heap_start+0xfbfff7a0>
80004320:	00079e63          	bnez	a5,8000433c <vTaskPlaceOnUnorderedEventList+0x2c>
80004324:	30047073          	csrci	mstatus,8
80004328:	00100073          	ebreak
8000432c:	0000006f          	j	8000432c <vTaskPlaceOnUnorderedEventList+0x1c>
80004330:	30047073          	csrci	mstatus,8
80004334:	00100073          	ebreak
80004338:	0000006f          	j	80004338 <vTaskPlaceOnUnorderedEventList+0x28>
8000433c:	00452683          	lw	a3,4(a0)
80004340:	810007b7          	lui	a5,0x81000
80004344:	6887a303          	lw	t1,1672(a5) # 81000688 <__heap_start+0xfbfff7d8>
80004348:	80000e37          	lui	t3,0x80000
8000434c:	6887a883          	lw	a7,1672(a5)
80004350:	0086a803          	lw	a6,8(a3)
80004354:	6887a503          	lw	a0,1672(a5)
80004358:	01c5e5b3          	or	a1,a1,t3
8000435c:	00b32c23          	sw	a1,24(t1)
80004360:	00d8ae23          	sw	a3,28(a7)
80004364:	03052023          	sw	a6,32(a0)
80004368:	6887a803          	lw	a6,1672(a5)
8000436c:	0086a883          	lw	a7,8(a3)
80004370:	6887a583          	lw	a1,1672(a5)
80004374:	01880813          	addi	a6,a6,24
80004378:	6887a503          	lw	a0,1672(a5)
8000437c:	00072783          	lw	a5,0(a4)
80004380:	01858593          	addi	a1,a1,24
80004384:	0108a223          	sw	a6,4(a7)
80004388:	00b6a423          	sw	a1,8(a3)
8000438c:	02e52423          	sw	a4,40(a0)
80004390:	00178793          	addi	a5,a5,1
80004394:	00f72023          	sw	a5,0(a4)
80004398:	00100593          	li	a1,1
8000439c:	00060513          	mv	a0,a2
800043a0:	d60fe06f          	j	80002900 <prvAddCurrentTaskToDelayedList>

800043a4 <vTaskPlaceOnEventListRestricted>:
800043a4:	00050793          	mv	a5,a0
800043a8:	00058513          	mv	a0,a1
800043ac:	06078063          	beqz	a5,8000440c <vTaskPlaceOnEventListRestricted+0x68>
800043b0:	0047a683          	lw	a3,4(a5)
800043b4:	81000737          	lui	a4,0x81000
800043b8:	68872883          	lw	a7,1672(a4) # 81000688 <__heap_start+0xfbfff7d8>
800043bc:	0086a803          	lw	a6,8(a3)
800043c0:	68872583          	lw	a1,1672(a4)
800043c4:	00d8ae23          	sw	a3,28(a7)
800043c8:	68872883          	lw	a7,1672(a4)
800043cc:	0305a023          	sw	a6,32(a1)
800043d0:	0086a303          	lw	t1,8(a3)
800043d4:	68872803          	lw	a6,1672(a4)
800043d8:	01888893          	addi	a7,a7,24
800043dc:	68872583          	lw	a1,1672(a4)
800043e0:	0007a703          	lw	a4,0(a5)
800043e4:	01880813          	addi	a6,a6,24
800043e8:	01132223          	sw	a7,4(t1)
800043ec:	0106a423          	sw	a6,8(a3)
800043f0:	02f5a423          	sw	a5,40(a1)
800043f4:	00170713          	addi	a4,a4,1
800043f8:	00e7a023          	sw	a4,0(a5)
800043fc:	00060463          	beqz	a2,80004404 <vTaskPlaceOnEventListRestricted+0x60>
80004400:	fff00513          	li	a0,-1
80004404:	00060593          	mv	a1,a2
80004408:	cf8fe06f          	j	80002900 <prvAddCurrentTaskToDelayedList>
8000440c:	30047073          	csrci	mstatus,8
80004410:	00100073          	ebreak
80004414:	0000006f          	j	80004414 <vTaskPlaceOnEventListRestricted+0x70>

80004418 <xTaskRemoveFromEventList>:
80004418:	00c52783          	lw	a5,12(a0)
8000441c:	00c7a783          	lw	a5,12(a5)
80004420:	14078263          	beqz	a5,80004564 <xTaskRemoveFromEventList+0x14c>
80004424:	0287a703          	lw	a4,40(a5)
80004428:	01c7a583          	lw	a1,28(a5)
8000442c:	0207a683          	lw	a3,32(a5)
80004430:	00472503          	lw	a0,4(a4)
80004434:	01878613          	addi	a2,a5,24
80004438:	00d5a423          	sw	a3,8(a1)
8000443c:	00b6a223          	sw	a1,4(a3)
80004440:	10c50e63          	beq	a0,a2,8000455c <xTaskRemoveFromEventList+0x144>
80004444:	00072683          	lw	a3,0(a4)
80004448:	0207a423          	sw	zero,40(a5)
8000444c:	02c7a583          	lw	a1,44(a5)
80004450:	fff68693          	addi	a3,a3,-1
80004454:	00d72023          	sw	a3,0(a4)
80004458:	81000737          	lui	a4,0x81000
8000445c:	65072703          	lw	a4,1616(a4) # 81000650 <__heap_start+0xfbfff7a0>
80004460:	06070263          	beqz	a4,800044c4 <xTaskRemoveFromEventList+0xac>
80004464:	81000737          	lui	a4,0x81000
80004468:	00070713          	mv	a4,a4
8000446c:	0e072683          	lw	a3,224(a4) # 810000e0 <__heap_start+0xfbfff230>
80004470:	0dc72503          	lw	a0,220(a4)
80004474:	0dc70813          	addi	a6,a4,220
80004478:	0086a883          	lw	a7,8(a3)
8000447c:	00d7ae23          	sw	a3,28(a5)
80004480:	00150513          	addi	a0,a0,1
80004484:	0317a023          	sw	a7,32(a5)
80004488:	0086a883          	lw	a7,8(a3)
8000448c:	0ca72e23          	sw	a0,220(a4)
80004490:	00c8a223          	sw	a2,4(a7)
80004494:	00c6a423          	sw	a2,8(a3)
80004498:	0307a423          	sw	a6,40(a5)
8000449c:	810007b7          	lui	a5,0x81000
800044a0:	6887a783          	lw	a5,1672(a5) # 81000688 <__heap_start+0xfbfff7d8>
800044a4:	00000513          	li	a0,0
800044a8:	02c7a783          	lw	a5,44(a5)
800044ac:	00b7fa63          	bleu	a1,a5,800044c0 <xTaskRemoveFromEventList+0xa8>
800044b0:	810007b7          	lui	a5,0x81000
800044b4:	00100713          	li	a4,1
800044b8:	66e7a223          	sw	a4,1636(a5) # 81000664 <__heap_start+0xfbfff7b4>
800044bc:	00100513          	li	a0,1
800044c0:	00008067          	ret
800044c4:	00c7a703          	lw	a4,12(a5)
800044c8:	0087a683          	lw	a3,8(a5)
800044cc:	0147a603          	lw	a2,20(a5)
800044d0:	00478893          	addi	a7,a5,4
800044d4:	00e6a423          	sw	a4,8(a3)
800044d8:	00c7a703          	lw	a4,12(a5)
800044dc:	00462503          	lw	a0,4(a2)
800044e0:	00d72223          	sw	a3,4(a4)
800044e4:	09150663          	beq	a0,a7,80004570 <xTaskRemoveFromEventList+0x158>
800044e8:	00259693          	slli	a3,a1,0x2
800044ec:	00b686b3          	add	a3,a3,a1
800044f0:	81000737          	lui	a4,0x81000
800044f4:	00070713          	mv	a4,a4
800044f8:	00269693          	slli	a3,a3,0x2
800044fc:	00062303          	lw	t1,0(a2)
80004500:	00d70833          	add	a6,a4,a3
80004504:	01882503          	lw	a0,24(a6)
80004508:	fff30313          	addi	t1,t1,-1
8000450c:	00662023          	sw	t1,0(a2)
80004510:	00852603          	lw	a2,8(a0)
80004514:	81000337          	lui	t1,0x81000
80004518:	67032e83          	lw	t4,1648(t1) # 81000670 <__heap_start+0xfbfff7c0>
8000451c:	00c7a623          	sw	a2,12(a5)
80004520:	00100613          	li	a2,1
80004524:	00b61633          	sll	a2,a2,a1
80004528:	00852e03          	lw	t3,8(a0)
8000452c:	01d66633          	or	a2,a2,t4
80004530:	66c32823          	sw	a2,1648(t1)
80004534:	01482603          	lw	a2,20(a6)
80004538:	00a7a423          	sw	a0,8(a5)
8000453c:	011e2223          	sw	a7,4(t3) # 80000004 <__heap_start+0xfafff154>
80004540:	01470713          	addi	a4,a4,20 # 81000014 <__heap_start+0xfbfff164>
80004544:	01152423          	sw	a7,8(a0)
80004548:	00d70733          	add	a4,a4,a3
8000454c:	00e7aa23          	sw	a4,20(a5)
80004550:	00160793          	addi	a5,a2,1
80004554:	00f82a23          	sw	a5,20(a6)
80004558:	f45ff06f          	j	8000449c <xTaskRemoveFromEventList+0x84>
8000455c:	00d72223          	sw	a3,4(a4)
80004560:	ee5ff06f          	j	80004444 <xTaskRemoveFromEventList+0x2c>
80004564:	30047073          	csrci	mstatus,8
80004568:	00100073          	ebreak
8000456c:	0000006f          	j	8000456c <xTaskRemoveFromEventList+0x154>
80004570:	00e62223          	sw	a4,4(a2)
80004574:	f75ff06f          	j	800044e8 <xTaskRemoveFromEventList+0xd0>

80004578 <vTaskRemoveFromUnorderedEventList>:
80004578:	810007b7          	lui	a5,0x81000
8000457c:	6507a783          	lw	a5,1616(a5) # 81000650 <__heap_start+0xfbfff7a0>
80004580:	00079863          	bnez	a5,80004590 <vTaskRemoveFromUnorderedEventList+0x18>
80004584:	30047073          	csrci	mstatus,8
80004588:	00100073          	ebreak
8000458c:	0000006f          	j	8000458c <vTaskRemoveFromUnorderedEventList+0x14>
80004590:	80000737          	lui	a4,0x80000
80004594:	00c52783          	lw	a5,12(a0)
80004598:	00e5e733          	or	a4,a1,a4
8000459c:	00e52023          	sw	a4,0(a0)
800045a0:	0e078863          	beqz	a5,80004690 <vTaskRemoveFromUnorderedEventList+0x118>
800045a4:	00852683          	lw	a3,8(a0)
800045a8:	00452603          	lw	a2,4(a0)
800045ac:	01052703          	lw	a4,16(a0)
800045b0:	00d62423          	sw	a3,8(a2)
800045b4:	00852683          	lw	a3,8(a0)
800045b8:	00472583          	lw	a1,4(a4) # 80000004 <__heap_start+0xfafff154>
800045bc:	00c6a223          	sw	a2,4(a3)
800045c0:	0ca58463          	beq	a1,a0,80004688 <vTaskRemoveFromUnorderedEventList+0x110>
800045c4:	00072683          	lw	a3,0(a4)
800045c8:	0087a603          	lw	a2,8(a5)
800045cc:	00c7a583          	lw	a1,12(a5)
800045d0:	fff68693          	addi	a3,a3,-1
800045d4:	00052823          	sw	zero,16(a0)
800045d8:	0147a503          	lw	a0,20(a5)
800045dc:	00d72023          	sw	a3,0(a4)
800045e0:	00b62423          	sw	a1,8(a2)
800045e4:	00c7a703          	lw	a4,12(a5)
800045e8:	00452683          	lw	a3,4(a0)
800045ec:	00478893          	addi	a7,a5,4
800045f0:	00c72223          	sw	a2,4(a4)
800045f4:	0b168463          	beq	a3,a7,8000469c <vTaskRemoveFromUnorderedEventList+0x124>
800045f8:	02c7a603          	lw	a2,44(a5)
800045fc:	81000737          	lui	a4,0x81000
80004600:	00070713          	mv	a4,a4
80004604:	00261693          	slli	a3,a2,0x2
80004608:	00c686b3          	add	a3,a3,a2
8000460c:	00269693          	slli	a3,a3,0x2
80004610:	00052303          	lw	t1,0(a0)
80004614:	00d70833          	add	a6,a4,a3
80004618:	01882583          	lw	a1,24(a6)
8000461c:	fff30313          	addi	t1,t1,-1
80004620:	00652023          	sw	t1,0(a0)
80004624:	81000e37          	lui	t3,0x81000
80004628:	0085a503          	lw	a0,8(a1)
8000462c:	670e2f03          	lw	t5,1648(t3) # 81000670 <__heap_start+0xfbfff7c0>
80004630:	00100313          	li	t1,1
80004634:	00a7a623          	sw	a0,12(a5)
80004638:	00c31533          	sll	a0,t1,a2
8000463c:	0085ae83          	lw	t4,8(a1)
80004640:	01e56533          	or	a0,a0,t5
80004644:	66ae2823          	sw	a0,1648(t3)
80004648:	01482503          	lw	a0,20(a6)
8000464c:	00b7a423          	sw	a1,8(a5)
80004650:	011ea223          	sw	a7,4(t4)
80004654:	01470713          	addi	a4,a4,20 # 81000014 <__heap_start+0xfbfff164>
80004658:	0115a423          	sw	a7,8(a1)
8000465c:	00d70733          	add	a4,a4,a3
80004660:	00e7aa23          	sw	a4,20(a5)
80004664:	00150793          	addi	a5,a0,1
80004668:	00f82a23          	sw	a5,20(a6)
8000466c:	810007b7          	lui	a5,0x81000
80004670:	6887a783          	lw	a5,1672(a5) # 81000688 <__heap_start+0xfbfff7d8>
80004674:	02c7a783          	lw	a5,44(a5)
80004678:	00c7f663          	bleu	a2,a5,80004684 <vTaskRemoveFromUnorderedEventList+0x10c>
8000467c:	810007b7          	lui	a5,0x81000
80004680:	6667a223          	sw	t1,1636(a5) # 81000664 <__heap_start+0xfbfff7b4>
80004684:	00008067          	ret
80004688:	00d72223          	sw	a3,4(a4)
8000468c:	f39ff06f          	j	800045c4 <vTaskRemoveFromUnorderedEventList+0x4c>
80004690:	30047073          	csrci	mstatus,8
80004694:	00100073          	ebreak
80004698:	0000006f          	j	80004698 <vTaskRemoveFromUnorderedEventList+0x120>
8000469c:	00e52223          	sw	a4,4(a0)
800046a0:	f59ff06f          	j	800045f8 <vTaskRemoveFromUnorderedEventList+0x80>

800046a4 <vTaskSetTimeOutState>:
800046a4:	08050263          	beqz	a0,80004728 <vTaskSetTimeOutState+0x84>
800046a8:	ff010113          	addi	sp,sp,-16
800046ac:	00812423          	sw	s0,8(sp)
800046b0:	00112623          	sw	ra,12(sp)
800046b4:	00912223          	sw	s1,4(sp)
800046b8:	00050413          	mv	s0,a0
800046bc:	30047073          	csrci	mstatus,8
800046c0:	810004b7          	lui	s1,0x81000
800046c4:	66c4a783          	lw	a5,1644(s1) # 8100066c <__heap_start+0xfbfff7bc>
800046c8:	00078463          	beqz	a5,800046d0 <vTaskSetTimeOutState+0x2c>
800046cc:	c98fe0ef          	jal	ra,80002b64 <vTaskEnterCritical.part.5>
800046d0:	810007b7          	lui	a5,0x81000
800046d4:	6607a683          	lw	a3,1632(a5) # 81000660 <__heap_start+0xfbfff7b0>
800046d8:	810007b7          	lui	a5,0x81000
800046dc:	6747a703          	lw	a4,1652(a5) # 81000674 <__heap_start+0xfbfff7c4>
800046e0:	66c4a783          	lw	a5,1644(s1)
800046e4:	00d42023          	sw	a3,0(s0)
800046e8:	00e42223          	sw	a4,4(s0)
800046ec:	02078463          	beqz	a5,80004714 <vTaskSetTimeOutState+0x70>
800046f0:	810007b7          	lui	a5,0x81000
800046f4:	6887a783          	lw	a5,1672(a5) # 81000688 <__heap_start+0xfbfff7d8>
800046f8:	0447a783          	lw	a5,68(a5)
800046fc:	00078c63          	beqz	a5,80004714 <vTaskSetTimeOutState+0x70>
80004700:	00812403          	lw	s0,8(sp)
80004704:	00c12083          	lw	ra,12(sp)
80004708:	00412483          	lw	s1,4(sp)
8000470c:	01010113          	addi	sp,sp,16
80004710:	c70fe06f          	j	80002b80 <vTaskExitCritical.part.6>
80004714:	00c12083          	lw	ra,12(sp)
80004718:	00812403          	lw	s0,8(sp)
8000471c:	00412483          	lw	s1,4(sp)
80004720:	01010113          	addi	sp,sp,16
80004724:	00008067          	ret
80004728:	30047073          	csrci	mstatus,8
8000472c:	00100073          	ebreak
80004730:	0000006f          	j	80004730 <vTaskSetTimeOutState+0x8c>

80004734 <vTaskInternalSetTimeOutState>:
80004734:	810007b7          	lui	a5,0x81000
80004738:	6607a703          	lw	a4,1632(a5) # 81000660 <__heap_start+0xfbfff7b0>
8000473c:	810007b7          	lui	a5,0x81000
80004740:	6747a783          	lw	a5,1652(a5) # 81000674 <__heap_start+0xfbfff7c4>
80004744:	00e52023          	sw	a4,0(a0)
80004748:	00f52223          	sw	a5,4(a0)
8000474c:	00008067          	ret

80004750 <xTaskCheckForTimeOut>:
80004750:	0a050263          	beqz	a0,800047f4 <xTaskCheckForTimeOut+0xa4>
80004754:	08058a63          	beqz	a1,800047e8 <xTaskCheckForTimeOut+0x98>
80004758:	fe010113          	addi	sp,sp,-32
8000475c:	00812c23          	sw	s0,24(sp)
80004760:	00912a23          	sw	s1,20(sp)
80004764:	00112e23          	sw	ra,28(sp)
80004768:	01212823          	sw	s2,16(sp)
8000476c:	01312623          	sw	s3,12(sp)
80004770:	00058493          	mv	s1,a1
80004774:	00050413          	mv	s0,a0
80004778:	30047073          	csrci	mstatus,8
8000477c:	81000937          	lui	s2,0x81000
80004780:	66c92783          	lw	a5,1644(s2) # 8100066c <__heap_start+0xfbfff7bc>
80004784:	00078463          	beqz	a5,8000478c <xTaskCheckForTimeOut+0x3c>
80004788:	bdcfe0ef          	jal	ra,80002b64 <vTaskEnterCritical.part.5>
8000478c:	810005b7          	lui	a1,0x81000
80004790:	81000737          	lui	a4,0x81000
80004794:	6745a603          	lw	a2,1652(a1) # 81000674 <__heap_start+0xfbfff7c4>
80004798:	68872783          	lw	a5,1672(a4) # 81000688 <__heap_start+0xfbfff7d8>
8000479c:	0557c783          	lbu	a5,85(a5)
800047a0:	06078063          	beqz	a5,80004800 <xTaskCheckForTimeOut+0xb0>
800047a4:	68872783          	lw	a5,1672(a4)
800047a8:	00100993          	li	s3,1
800047ac:	04078aa3          	sb	zero,85(a5)
800047b0:	66c92783          	lw	a5,1644(s2)
800047b4:	00078a63          	beqz	a5,800047c8 <xTaskCheckForTimeOut+0x78>
800047b8:	68872783          	lw	a5,1672(a4)
800047bc:	0447a783          	lw	a5,68(a5)
800047c0:	00078463          	beqz	a5,800047c8 <xTaskCheckForTimeOut+0x78>
800047c4:	bbcfe0ef          	jal	ra,80002b80 <vTaskExitCritical.part.6>
800047c8:	01c12083          	lw	ra,28(sp)
800047cc:	01812403          	lw	s0,24(sp)
800047d0:	00098513          	mv	a0,s3
800047d4:	01412483          	lw	s1,20(sp)
800047d8:	01012903          	lw	s2,16(sp)
800047dc:	00c12983          	lw	s3,12(sp)
800047e0:	02010113          	addi	sp,sp,32
800047e4:	00008067          	ret
800047e8:	30047073          	csrci	mstatus,8
800047ec:	00100073          	ebreak
800047f0:	0000006f          	j	800047f0 <xTaskCheckForTimeOut+0xa0>
800047f4:	30047073          	csrci	mstatus,8
800047f8:	00100073          	ebreak
800047fc:	0000006f          	j	800047fc <xTaskCheckForTimeOut+0xac>
80004800:	0004a783          	lw	a5,0(s1)
80004804:	fff00693          	li	a3,-1
80004808:	00000993          	li	s3,0
8000480c:	fad782e3          	beq	a5,a3,800047b0 <xTaskCheckForTimeOut+0x60>
80004810:	81000537          	lui	a0,0x81000
80004814:	66052803          	lw	a6,1632(a0) # 81000660 <__heap_start+0xfbfff7b0>
80004818:	00042883          	lw	a7,0(s0)
8000481c:	00442683          	lw	a3,4(s0)
80004820:	01088a63          	beq	a7,a6,80004834 <xTaskCheckForTimeOut+0xe4>
80004824:	00d66863          	bltu	a2,a3,80004834 <xTaskCheckForTimeOut+0xe4>
80004828:	0004a023          	sw	zero,0(s1)
8000482c:	00100993          	li	s3,1
80004830:	f81ff06f          	j	800047b0 <xTaskCheckForTimeOut+0x60>
80004834:	40d60833          	sub	a6,a2,a3
80004838:	fef878e3          	bleu	a5,a6,80004828 <xTaskCheckForTimeOut+0xd8>
8000483c:	66052503          	lw	a0,1632(a0)
80004840:	40c787b3          	sub	a5,a5,a2
80004844:	6745a603          	lw	a2,1652(a1)
80004848:	00d787b3          	add	a5,a5,a3
8000484c:	00f4a023          	sw	a5,0(s1)
80004850:	00a42023          	sw	a0,0(s0)
80004854:	00c42223          	sw	a2,4(s0)
80004858:	00000993          	li	s3,0
8000485c:	f55ff06f          	j	800047b0 <xTaskCheckForTimeOut+0x60>

80004860 <vTaskMissedYield>:
80004860:	810007b7          	lui	a5,0x81000
80004864:	00100713          	li	a4,1
80004868:	66e7a223          	sw	a4,1636(a5) # 81000664 <__heap_start+0xfbfff7b4>
8000486c:	00008067          	ret

80004870 <xTaskGetCurrentTaskHandle>:
80004870:	810007b7          	lui	a5,0x81000
80004874:	6887a503          	lw	a0,1672(a5) # 81000688 <__heap_start+0xfbfff7d8>
80004878:	00008067          	ret

8000487c <xTaskGetSchedulerState>:
8000487c:	810007b7          	lui	a5,0x81000
80004880:	66c7a783          	lw	a5,1644(a5) # 8100066c <__heap_start+0xfbfff7bc>
80004884:	00100513          	li	a0,1
80004888:	00078a63          	beqz	a5,8000489c <xTaskGetSchedulerState+0x20>
8000488c:	810007b7          	lui	a5,0x81000
80004890:	6507a503          	lw	a0,1616(a5) # 81000650 <__heap_start+0xfbfff7a0>
80004894:	00153513          	seqz	a0,a0
80004898:	00151513          	slli	a0,a0,0x1
8000489c:	00008067          	ret

800048a0 <xTaskPriorityInherit>:
800048a0:	0c050c63          	beqz	a0,80004978 <xTaskPriorityInherit+0xd8>
800048a4:	fe010113          	addi	sp,sp,-32
800048a8:	00912a23          	sw	s1,20(sp)
800048ac:	810004b7          	lui	s1,0x81000
800048b0:	6884a703          	lw	a4,1672(s1) # 81000688 <__heap_start+0xfbfff7d8>
800048b4:	02c52683          	lw	a3,44(a0)
800048b8:	00812c23          	sw	s0,24(sp)
800048bc:	02c72703          	lw	a4,44(a4)
800048c0:	00112e23          	sw	ra,28(sp)
800048c4:	01212823          	sw	s2,16(sp)
800048c8:	01312623          	sw	s3,12(sp)
800048cc:	01412423          	sw	s4,8(sp)
800048d0:	00050413          	mv	s0,a0
800048d4:	06e6fa63          	bleu	a4,a3,80004948 <xTaskPriorityInherit+0xa8>
800048d8:	01852703          	lw	a4,24(a0)
800048dc:	00074c63          	bltz	a4,800048f4 <xTaskPriorityInherit+0x54>
800048e0:	6884a703          	lw	a4,1672(s1)
800048e4:	02c72603          	lw	a2,44(a4)
800048e8:	00700713          	li	a4,7
800048ec:	40c70733          	sub	a4,a4,a2
800048f0:	00e52c23          	sw	a4,24(a0)
800048f4:	00269713          	slli	a4,a3,0x2
800048f8:	81000937          	lui	s2,0x81000
800048fc:	00d70733          	add	a4,a4,a3
80004900:	00090913          	mv	s2,s2
80004904:	01442683          	lw	a3,20(s0)
80004908:	01490993          	addi	s3,s2,20 # 81000014 <__heap_start+0xfbfff164>
8000490c:	00271713          	slli	a4,a4,0x2
80004910:	00e98733          	add	a4,s3,a4
80004914:	06e68663          	beq	a3,a4,80004980 <xTaskPriorityInherit+0xe0>
80004918:	6884a703          	lw	a4,1672(s1)
8000491c:	01c12083          	lw	ra,28(sp)
80004920:	01412483          	lw	s1,20(sp)
80004924:	02c72703          	lw	a4,44(a4)
80004928:	01012903          	lw	s2,16(sp)
8000492c:	00c12983          	lw	s3,12(sp)
80004930:	02e42623          	sw	a4,44(s0)
80004934:	01812403          	lw	s0,24(sp)
80004938:	00812a03          	lw	s4,8(sp)
8000493c:	00100513          	li	a0,1
80004940:	02010113          	addi	sp,sp,32
80004944:	00008067          	ret
80004948:	6884a703          	lw	a4,1672(s1)
8000494c:	04852503          	lw	a0,72(a0)
80004950:	02c72783          	lw	a5,44(a4)
80004954:	00f53533          	sltu	a0,a0,a5
80004958:	01c12083          	lw	ra,28(sp)
8000495c:	01812403          	lw	s0,24(sp)
80004960:	01412483          	lw	s1,20(sp)
80004964:	01012903          	lw	s2,16(sp)
80004968:	00c12983          	lw	s3,12(sp)
8000496c:	00812a03          	lw	s4,8(sp)
80004970:	02010113          	addi	sp,sp,32
80004974:	00008067          	ret
80004978:	00000513          	li	a0,0
8000497c:	00008067          	ret
80004980:	00440a13          	addi	s4,s0,4
80004984:	000a0513          	mv	a0,s4
80004988:	a8dfc0ef          	jal	ra,80001414 <uxListRemove>
8000498c:	06050863          	beqz	a0,800049fc <xTaskPriorityInherit+0x15c>
80004990:	810005b7          	lui	a1,0x81000
80004994:	6884a783          	lw	a5,1672(s1)
80004998:	6705a803          	lw	a6,1648(a1) # 81000670 <__heap_start+0xfbfff7c0>
8000499c:	00100713          	li	a4,1
800049a0:	02c7a603          	lw	a2,44(a5)
800049a4:	00100513          	li	a0,1
800049a8:	00261793          	slli	a5,a2,0x2
800049ac:	00c787b3          	add	a5,a5,a2
800049b0:	00279793          	slli	a5,a5,0x2
800049b4:	00f90933          	add	s2,s2,a5
800049b8:	01892683          	lw	a3,24(s2)
800049bc:	00c71733          	sll	a4,a4,a2
800049c0:	01076733          	or	a4,a4,a6
800049c4:	0086a803          	lw	a6,8(a3)
800049c8:	02c42623          	sw	a2,44(s0)
800049cc:	66e5a823          	sw	a4,1648(a1)
800049d0:	01042623          	sw	a6,12(s0)
800049d4:	0086a603          	lw	a2,8(a3)
800049d8:	01492703          	lw	a4,20(s2)
800049dc:	00d42423          	sw	a3,8(s0)
800049e0:	01462223          	sw	s4,4(a2)
800049e4:	0146a423          	sw	s4,8(a3)
800049e8:	00f989b3          	add	s3,s3,a5
800049ec:	01342a23          	sw	s3,20(s0)
800049f0:	00170793          	addi	a5,a4,1
800049f4:	00f92a23          	sw	a5,20(s2)
800049f8:	f61ff06f          	j	80004958 <xTaskPriorityInherit+0xb8>
800049fc:	02c42683          	lw	a3,44(s0)
80004a00:	810005b7          	lui	a1,0x81000
80004a04:	6705a703          	lw	a4,1648(a1) # 81000670 <__heap_start+0xfbfff7c0>
80004a08:	00100793          	li	a5,1
80004a0c:	00d797b3          	sll	a5,a5,a3
80004a10:	fff7c793          	not	a5,a5
80004a14:	00e7f7b3          	and	a5,a5,a4
80004a18:	66f5a823          	sw	a5,1648(a1)
80004a1c:	f79ff06f          	j	80004994 <xTaskPriorityInherit+0xf4>

80004a20 <xTaskPriorityDisinherit>:
80004a20:	02050e63          	beqz	a0,80004a5c <xTaskPriorityDisinherit+0x3c>
80004a24:	810007b7          	lui	a5,0x81000
80004a28:	6887a783          	lw	a5,1672(a5) # 81000688 <__heap_start+0xfbfff7d8>
80004a2c:	00a78863          	beq	a5,a0,80004a3c <xTaskPriorityDisinherit+0x1c>
80004a30:	30047073          	csrci	mstatus,8
80004a34:	00100073          	ebreak
80004a38:	0000006f          	j	80004a38 <xTaskPriorityDisinherit+0x18>
80004a3c:	04c7a783          	lw	a5,76(a5)
80004a40:	02078263          	beqz	a5,80004a64 <xTaskPriorityDisinherit+0x44>
80004a44:	02c52683          	lw	a3,44(a0)
80004a48:	04852703          	lw	a4,72(a0)
80004a4c:	fff78793          	addi	a5,a5,-1
80004a50:	04f52623          	sw	a5,76(a0)
80004a54:	00e68463          	beq	a3,a4,80004a5c <xTaskPriorityDisinherit+0x3c>
80004a58:	00078c63          	beqz	a5,80004a70 <xTaskPriorityDisinherit+0x50>
80004a5c:	00000513          	li	a0,0
80004a60:	00008067          	ret
80004a64:	30047073          	csrci	mstatus,8
80004a68:	00100073          	ebreak
80004a6c:	0000006f          	j	80004a6c <xTaskPriorityDisinherit+0x4c>
80004a70:	ff010113          	addi	sp,sp,-16
80004a74:	00912223          	sw	s1,4(sp)
80004a78:	00450493          	addi	s1,a0,4
80004a7c:	00812423          	sw	s0,8(sp)
80004a80:	00050413          	mv	s0,a0
80004a84:	00048513          	mv	a0,s1
80004a88:	00112623          	sw	ra,12(sp)
80004a8c:	989fc0ef          	jal	ra,80001414 <uxListRemove>
80004a90:	08050a63          	beqz	a0,80004b24 <xTaskPriorityDisinherit+0x104>
80004a94:	81000637          	lui	a2,0x81000
80004a98:	04842683          	lw	a3,72(s0)
80004a9c:	810007b7          	lui	a5,0x81000
80004aa0:	00078793          	mv	a5,a5
80004aa4:	00269713          	slli	a4,a3,0x2
80004aa8:	00d70733          	add	a4,a4,a3
80004aac:	00271713          	slli	a4,a4,0x2
80004ab0:	00e78833          	add	a6,a5,a4
80004ab4:	01882503          	lw	a0,24(a6)
80004ab8:	67062303          	lw	t1,1648(a2) # 81000670 <__heap_start+0xfbfff7c0>
80004abc:	00100593          	li	a1,1
80004ac0:	00852883          	lw	a7,8(a0)
80004ac4:	00d595b3          	sll	a1,a1,a3
80004ac8:	0065e5b3          	or	a1,a1,t1
80004acc:	01142623          	sw	a7,12(s0)
80004ad0:	00852883          	lw	a7,8(a0)
80004ad4:	66b62823          	sw	a1,1648(a2)
80004ad8:	00700613          	li	a2,7
80004adc:	40d60633          	sub	a2,a2,a3
80004ae0:	02d42623          	sw	a3,44(s0)
80004ae4:	00a42423          	sw	a0,8(s0)
80004ae8:	00c42c23          	sw	a2,24(s0)
80004aec:	01482683          	lw	a3,20(a6)
80004af0:	01478793          	addi	a5,a5,20 # 81000014 <__heap_start+0xfbfff164>
80004af4:	0098a223          	sw	s1,4(a7)
80004af8:	00952423          	sw	s1,8(a0)
80004afc:	00e787b3          	add	a5,a5,a4
80004b00:	00f42a23          	sw	a5,20(s0)
80004b04:	00c12083          	lw	ra,12(sp)
80004b08:	00812403          	lw	s0,8(sp)
80004b0c:	00168793          	addi	a5,a3,1
80004b10:	00f82a23          	sw	a5,20(a6)
80004b14:	00412483          	lw	s1,4(sp)
80004b18:	00100513          	li	a0,1
80004b1c:	01010113          	addi	sp,sp,16
80004b20:	00008067          	ret
80004b24:	02c42683          	lw	a3,44(s0)
80004b28:	81000637          	lui	a2,0x81000
80004b2c:	67062703          	lw	a4,1648(a2) # 81000670 <__heap_start+0xfbfff7c0>
80004b30:	00100793          	li	a5,1
80004b34:	00d797b3          	sll	a5,a5,a3
80004b38:	fff7c793          	not	a5,a5
80004b3c:	00e7f7b3          	and	a5,a5,a4
80004b40:	66f62823          	sw	a5,1648(a2)
80004b44:	f55ff06f          	j	80004a98 <xTaskPriorityDisinherit+0x78>

80004b48 <vTaskPriorityDisinheritAfterTimeout>:
80004b48:	02050863          	beqz	a0,80004b78 <vTaskPriorityDisinheritAfterTimeout+0x30>
80004b4c:	04c52703          	lw	a4,76(a0)
80004b50:	00071863          	bnez	a4,80004b60 <vTaskPriorityDisinheritAfterTimeout+0x18>
80004b54:	30047073          	csrci	mstatus,8
80004b58:	00100073          	ebreak
80004b5c:	0000006f          	j	80004b5c <vTaskPriorityDisinheritAfterTimeout+0x14>
80004b60:	04852783          	lw	a5,72(a0)
80004b64:	00b7ec63          	bltu	a5,a1,80004b7c <vTaskPriorityDisinheritAfterTimeout+0x34>
80004b68:	02c52683          	lw	a3,44(a0)
80004b6c:	00f68663          	beq	a3,a5,80004b78 <vTaskPriorityDisinheritAfterTimeout+0x30>
80004b70:	00100613          	li	a2,1
80004b74:	00c70863          	beq	a4,a2,80004b84 <vTaskPriorityDisinheritAfterTimeout+0x3c>
80004b78:	00008067          	ret
80004b7c:	00058793          	mv	a5,a1
80004b80:	fe9ff06f          	j	80004b68 <vTaskPriorityDisinheritAfterTimeout+0x20>
80004b84:	81000737          	lui	a4,0x81000
80004b88:	68872703          	lw	a4,1672(a4) # 81000688 <__heap_start+0xfbfff7d8>
80004b8c:	06a70a63          	beq	a4,a0,80004c00 <vTaskPriorityDisinheritAfterTimeout+0xb8>
80004b90:	fe010113          	addi	sp,sp,-32
80004b94:	01852703          	lw	a4,24(a0)
80004b98:	00112e23          	sw	ra,28(sp)
80004b9c:	00812c23          	sw	s0,24(sp)
80004ba0:	00912a23          	sw	s1,20(sp)
80004ba4:	01212823          	sw	s2,16(sp)
80004ba8:	01312623          	sw	s3,12(sp)
80004bac:	02f52623          	sw	a5,44(a0)
80004bb0:	00074863          	bltz	a4,80004bc0 <vTaskPriorityDisinheritAfterTimeout+0x78>
80004bb4:	00700713          	li	a4,7
80004bb8:	40f707b3          	sub	a5,a4,a5
80004bbc:	00f52c23          	sw	a5,24(a0)
80004bc0:	00269713          	slli	a4,a3,0x2
80004bc4:	810007b7          	lui	a5,0x81000
80004bc8:	00d70733          	add	a4,a4,a3
80004bcc:	00078993          	mv	s3,a5
80004bd0:	01452683          	lw	a3,20(a0)
80004bd4:	01498493          	addi	s1,s3,20
80004bd8:	00271713          	slli	a4,a4,0x2
80004bdc:	00e48733          	add	a4,s1,a4
80004be0:	02e68663          	beq	a3,a4,80004c0c <vTaskPriorityDisinheritAfterTimeout+0xc4>
80004be4:	01c12083          	lw	ra,28(sp)
80004be8:	01812403          	lw	s0,24(sp)
80004bec:	01412483          	lw	s1,20(sp)
80004bf0:	01012903          	lw	s2,16(sp)
80004bf4:	00c12983          	lw	s3,12(sp)
80004bf8:	02010113          	addi	sp,sp,32
80004bfc:	00008067          	ret
80004c00:	30047073          	csrci	mstatus,8
80004c04:	00100073          	ebreak
80004c08:	0000006f          	j	80004c08 <vTaskPriorityDisinheritAfterTimeout+0xc0>
80004c0c:	00450913          	addi	s2,a0,4
80004c10:	00050413          	mv	s0,a0
80004c14:	00090513          	mv	a0,s2
80004c18:	ffcfc0ef          	jal	ra,80001414 <uxListRemove>
80004c1c:	02c42583          	lw	a1,44(s0)
80004c20:	81000637          	lui	a2,0x81000
80004c24:	04050e63          	beqz	a0,80004c80 <vTaskPriorityDisinheritAfterTimeout+0x138>
80004c28:	00100713          	li	a4,1
80004c2c:	00b71733          	sll	a4,a4,a1
80004c30:	00259693          	slli	a3,a1,0x2
80004c34:	00b686b3          	add	a3,a3,a1
80004c38:	00269693          	slli	a3,a3,0x2
80004c3c:	00d987b3          	add	a5,s3,a3
80004c40:	0187a583          	lw	a1,24(a5) # 81000018 <__heap_start+0xfbfff168>
80004c44:	67062503          	lw	a0,1648(a2) # 81000670 <__heap_start+0xfbfff7c0>
80004c48:	00d486b3          	add	a3,s1,a3
80004c4c:	0085a803          	lw	a6,8(a1)
80004c50:	00e56733          	or	a4,a0,a4
80004c54:	66e62823          	sw	a4,1648(a2)
80004c58:	01042623          	sw	a6,12(s0)
80004c5c:	0085a603          	lw	a2,8(a1)
80004c60:	0147a703          	lw	a4,20(a5)
80004c64:	00b42423          	sw	a1,8(s0)
80004c68:	01262223          	sw	s2,4(a2)
80004c6c:	0125a423          	sw	s2,8(a1)
80004c70:	00d42a23          	sw	a3,20(s0)
80004c74:	00170713          	addi	a4,a4,1
80004c78:	00e7aa23          	sw	a4,20(a5)
80004c7c:	f69ff06f          	j	80004be4 <vTaskPriorityDisinheritAfterTimeout+0x9c>
80004c80:	67062503          	lw	a0,1648(a2)
80004c84:	00100713          	li	a4,1
80004c88:	00b71733          	sll	a4,a4,a1
80004c8c:	fff74693          	not	a3,a4
80004c90:	00a6f6b3          	and	a3,a3,a0
80004c94:	66d62823          	sw	a3,1648(a2)
80004c98:	f99ff06f          	j	80004c30 <vTaskPriorityDisinheritAfterTimeout+0xe8>

80004c9c <vTaskEnterCritical>:
80004c9c:	30047073          	csrci	mstatus,8
80004ca0:	810007b7          	lui	a5,0x81000
80004ca4:	66c7a783          	lw	a5,1644(a5) # 8100066c <__heap_start+0xfbfff7bc>
80004ca8:	00078463          	beqz	a5,80004cb0 <vTaskEnterCritical+0x14>
80004cac:	eb9fd06f          	j	80002b64 <vTaskEnterCritical.part.5>
80004cb0:	00008067          	ret

80004cb4 <vTaskExitCritical>:
80004cb4:	810007b7          	lui	a5,0x81000
80004cb8:	66c7a783          	lw	a5,1644(a5) # 8100066c <__heap_start+0xfbfff7bc>
80004cbc:	00078c63          	beqz	a5,80004cd4 <vTaskExitCritical+0x20>
80004cc0:	810007b7          	lui	a5,0x81000
80004cc4:	6887a783          	lw	a5,1672(a5) # 81000688 <__heap_start+0xfbfff7d8>
80004cc8:	0447a783          	lw	a5,68(a5)
80004ccc:	00078463          	beqz	a5,80004cd4 <vTaskExitCritical+0x20>
80004cd0:	eb1fd06f          	j	80002b80 <vTaskExitCritical.part.6>
80004cd4:	00008067          	ret

80004cd8 <uxTaskResetEventItemValue>:
80004cd8:	810007b7          	lui	a5,0x81000
80004cdc:	6887a603          	lw	a2,1672(a5) # 81000688 <__heap_start+0xfbfff7d8>
80004ce0:	6887a683          	lw	a3,1672(a5)
80004ce4:	6887a703          	lw	a4,1672(a5)
80004ce8:	00700793          	li	a5,7
80004cec:	02c6a683          	lw	a3,44(a3)
80004cf0:	01862503          	lw	a0,24(a2)
80004cf4:	40d787b3          	sub	a5,a5,a3
80004cf8:	00f72c23          	sw	a5,24(a4)
80004cfc:	00008067          	ret

80004d00 <pvTaskIncrementMutexHeldCount>:
80004d00:	810007b7          	lui	a5,0x81000
80004d04:	6887a703          	lw	a4,1672(a5) # 81000688 <__heap_start+0xfbfff7d8>
80004d08:	00070a63          	beqz	a4,80004d1c <pvTaskIncrementMutexHeldCount+0x1c>
80004d0c:	6887a683          	lw	a3,1672(a5)
80004d10:	04c6a703          	lw	a4,76(a3)
80004d14:	00170713          	addi	a4,a4,1
80004d18:	04e6a623          	sw	a4,76(a3)
80004d1c:	6887a503          	lw	a0,1672(a5)
80004d20:	00008067          	ret

80004d24 <ulTaskGenericNotifyTake>:
80004d24:	00050863          	beqz	a0,80004d34 <ulTaskGenericNotifyTake+0x10>
80004d28:	30047073          	csrci	mstatus,8
80004d2c:	00100073          	ebreak
80004d30:	0000006f          	j	80004d30 <ulTaskGenericNotifyTake+0xc>
80004d34:	fe010113          	addi	sp,sp,-32
80004d38:	01212823          	sw	s2,16(sp)
80004d3c:	01312623          	sw	s3,12(sp)
80004d40:	00112e23          	sw	ra,28(sp)
80004d44:	00812c23          	sw	s0,24(sp)
80004d48:	00912a23          	sw	s1,20(sp)
80004d4c:	00060993          	mv	s3,a2
80004d50:	00058913          	mv	s2,a1
80004d54:	30047073          	csrci	mstatus,8
80004d58:	810004b7          	lui	s1,0x81000
80004d5c:	66c4a783          	lw	a5,1644(s1) # 8100066c <__heap_start+0xfbfff7bc>
80004d60:	00078463          	beqz	a5,80004d68 <ulTaskGenericNotifyTake+0x44>
80004d64:	e01fd0ef          	jal	ra,80002b64 <vTaskEnterCritical.part.5>
80004d68:	81000437          	lui	s0,0x81000
80004d6c:	68842783          	lw	a5,1672(s0) # 81000688 <__heap_start+0xfbfff7d8>
80004d70:	0507a783          	lw	a5,80(a5)
80004d74:	00079a63          	bnez	a5,80004d88 <ulTaskGenericNotifyTake+0x64>
80004d78:	68842783          	lw	a5,1672(s0)
80004d7c:	00100713          	li	a4,1
80004d80:	04e78a23          	sb	a4,84(a5)
80004d84:	08099263          	bnez	s3,80004e08 <ulTaskGenericNotifyTake+0xe4>
80004d88:	66c4a783          	lw	a5,1644(s1)
80004d8c:	00078a63          	beqz	a5,80004da0 <ulTaskGenericNotifyTake+0x7c>
80004d90:	68842783          	lw	a5,1672(s0)
80004d94:	0447a783          	lw	a5,68(a5)
80004d98:	00078463          	beqz	a5,80004da0 <ulTaskGenericNotifyTake+0x7c>
80004d9c:	de5fd0ef          	jal	ra,80002b80 <vTaskExitCritical.part.6>
80004da0:	30047073          	csrci	mstatus,8
80004da4:	66c4a783          	lw	a5,1644(s1)
80004da8:	00078463          	beqz	a5,80004db0 <ulTaskGenericNotifyTake+0x8c>
80004dac:	db9fd0ef          	jal	ra,80002b64 <vTaskEnterCritical.part.5>
80004db0:	68842783          	lw	a5,1672(s0)
80004db4:	0507a983          	lw	s3,80(a5)
80004db8:	00098863          	beqz	s3,80004dc8 <ulTaskGenericNotifyTake+0xa4>
80004dbc:	68842783          	lw	a5,1672(s0)
80004dc0:	04090e63          	beqz	s2,80004e1c <ulTaskGenericNotifyTake+0xf8>
80004dc4:	0407a823          	sw	zero,80(a5)
80004dc8:	68842783          	lw	a5,1672(s0)
80004dcc:	04078a23          	sb	zero,84(a5)
80004dd0:	66c4a783          	lw	a5,1644(s1)
80004dd4:	00078a63          	beqz	a5,80004de8 <ulTaskGenericNotifyTake+0xc4>
80004dd8:	68842783          	lw	a5,1672(s0)
80004ddc:	0447a783          	lw	a5,68(a5)
80004de0:	00078463          	beqz	a5,80004de8 <ulTaskGenericNotifyTake+0xc4>
80004de4:	d9dfd0ef          	jal	ra,80002b80 <vTaskExitCritical.part.6>
80004de8:	01c12083          	lw	ra,28(sp)
80004dec:	01812403          	lw	s0,24(sp)
80004df0:	00098513          	mv	a0,s3
80004df4:	01412483          	lw	s1,20(sp)
80004df8:	01012903          	lw	s2,16(sp)
80004dfc:	00c12983          	lw	s3,12(sp)
80004e00:	02010113          	addi	sp,sp,32
80004e04:	00008067          	ret
80004e08:	00100593          	li	a1,1
80004e0c:	00098513          	mv	a0,s3
80004e10:	af1fd0ef          	jal	ra,80002900 <prvAddCurrentTaskToDelayedList>
80004e14:	00000073          	ecall
80004e18:	f71ff06f          	j	80004d88 <ulTaskGenericNotifyTake+0x64>
80004e1c:	fff98713          	addi	a4,s3,-1
80004e20:	04e7a823          	sw	a4,80(a5)
80004e24:	68842783          	lw	a5,1672(s0)
80004e28:	04078a23          	sb	zero,84(a5)
80004e2c:	66c4a783          	lw	a5,1644(s1)
80004e30:	fa078ce3          	beqz	a5,80004de8 <ulTaskGenericNotifyTake+0xc4>
80004e34:	fa5ff06f          	j	80004dd8 <ulTaskGenericNotifyTake+0xb4>

80004e38 <xTaskGenericNotifyWait>:
80004e38:	00050863          	beqz	a0,80004e48 <xTaskGenericNotifyWait+0x10>
80004e3c:	30047073          	csrci	mstatus,8
80004e40:	00100073          	ebreak
80004e44:	0000006f          	j	80004e44 <xTaskGenericNotifyWait+0xc>
80004e48:	fe010113          	addi	sp,sp,-32
80004e4c:	00912a23          	sw	s1,20(sp)
80004e50:	01312623          	sw	s3,12(sp)
80004e54:	01412423          	sw	s4,8(sp)
80004e58:	01512223          	sw	s5,4(sp)
80004e5c:	00112e23          	sw	ra,28(sp)
80004e60:	00812c23          	sw	s0,24(sp)
80004e64:	01212823          	sw	s2,16(sp)
80004e68:	00070a13          	mv	s4,a4
80004e6c:	00068993          	mv	s3,a3
80004e70:	00060493          	mv	s1,a2
80004e74:	00058a93          	mv	s5,a1
80004e78:	30047073          	csrci	mstatus,8
80004e7c:	81000937          	lui	s2,0x81000
80004e80:	66c92703          	lw	a4,1644(s2) # 8100066c <__heap_start+0xfbfff7bc>
80004e84:	00070463          	beqz	a4,80004e8c <xTaskGenericNotifyWait+0x54>
80004e88:	cddfd0ef          	jal	ra,80002b64 <vTaskEnterCritical.part.5>
80004e8c:	81000437          	lui	s0,0x81000
80004e90:	68842703          	lw	a4,1672(s0) # 81000688 <__heap_start+0xfbfff7d8>
80004e94:	00200693          	li	a3,2
80004e98:	05474703          	lbu	a4,84(a4)
80004e9c:	02e68463          	beq	a3,a4,80004ec4 <xTaskGenericNotifyWait+0x8c>
80004ea0:	68842703          	lw	a4,1672(s0)
80004ea4:	fffac793          	not	a5,s5
80004ea8:	05072683          	lw	a3,80(a4)
80004eac:	00d7f7b3          	and	a5,a5,a3
80004eb0:	04f72823          	sw	a5,80(a4)
80004eb4:	68842783          	lw	a5,1672(s0)
80004eb8:	00100713          	li	a4,1
80004ebc:	04e78a23          	sb	a4,84(a5)
80004ec0:	0c0a1263          	bnez	s4,80004f84 <xTaskGenericNotifyWait+0x14c>
80004ec4:	66c92783          	lw	a5,1644(s2)
80004ec8:	00078a63          	beqz	a5,80004edc <xTaskGenericNotifyWait+0xa4>
80004ecc:	68842783          	lw	a5,1672(s0)
80004ed0:	0447a783          	lw	a5,68(a5)
80004ed4:	00078463          	beqz	a5,80004edc <xTaskGenericNotifyWait+0xa4>
80004ed8:	ca9fd0ef          	jal	ra,80002b80 <vTaskExitCritical.part.6>
80004edc:	30047073          	csrci	mstatus,8
80004ee0:	66c92783          	lw	a5,1644(s2)
80004ee4:	00078463          	beqz	a5,80004eec <xTaskGenericNotifyWait+0xb4>
80004ee8:	c7dfd0ef          	jal	ra,80002b64 <vTaskEnterCritical.part.5>
80004eec:	00098863          	beqz	s3,80004efc <xTaskGenericNotifyWait+0xc4>
80004ef0:	68842783          	lw	a5,1672(s0)
80004ef4:	0507a783          	lw	a5,80(a5)
80004ef8:	00f9a023          	sw	a5,0(s3)
80004efc:	68842783          	lw	a5,1672(s0)
80004f00:	00200713          	li	a4,2
80004f04:	00000993          	li	s3,0
80004f08:	0547c783          	lbu	a5,84(a5)
80004f0c:	04f70663          	beq	a4,a5,80004f58 <xTaskGenericNotifyWait+0x120>
80004f10:	68842783          	lw	a5,1672(s0)
80004f14:	04078a23          	sb	zero,84(a5)
80004f18:	66c92783          	lw	a5,1644(s2)
80004f1c:	00078a63          	beqz	a5,80004f30 <xTaskGenericNotifyWait+0xf8>
80004f20:	68842783          	lw	a5,1672(s0)
80004f24:	0447a783          	lw	a5,68(a5)
80004f28:	00078463          	beqz	a5,80004f30 <xTaskGenericNotifyWait+0xf8>
80004f2c:	c55fd0ef          	jal	ra,80002b80 <vTaskExitCritical.part.6>
80004f30:	01c12083          	lw	ra,28(sp)
80004f34:	01812403          	lw	s0,24(sp)
80004f38:	00098513          	mv	a0,s3
80004f3c:	01412483          	lw	s1,20(sp)
80004f40:	01012903          	lw	s2,16(sp)
80004f44:	00c12983          	lw	s3,12(sp)
80004f48:	00812a03          	lw	s4,8(sp)
80004f4c:	00412a83          	lw	s5,4(sp)
80004f50:	02010113          	addi	sp,sp,32
80004f54:	00008067          	ret
80004f58:	68842703          	lw	a4,1672(s0)
80004f5c:	fff4c793          	not	a5,s1
80004f60:	00100993          	li	s3,1
80004f64:	05072683          	lw	a3,80(a4)
80004f68:	00d7f7b3          	and	a5,a5,a3
80004f6c:	04f72823          	sw	a5,80(a4)
80004f70:	68842783          	lw	a5,1672(s0)
80004f74:	04078a23          	sb	zero,84(a5)
80004f78:	66c92783          	lw	a5,1644(s2)
80004f7c:	fa078ae3          	beqz	a5,80004f30 <xTaskGenericNotifyWait+0xf8>
80004f80:	fa1ff06f          	j	80004f20 <xTaskGenericNotifyWait+0xe8>
80004f84:	00100593          	li	a1,1
80004f88:	000a0513          	mv	a0,s4
80004f8c:	975fd0ef          	jal	ra,80002900 <prvAddCurrentTaskToDelayedList>
80004f90:	00000073          	ecall
80004f94:	66c92783          	lw	a5,1644(s2)
80004f98:	f40782e3          	beqz	a5,80004edc <xTaskGenericNotifyWait+0xa4>
80004f9c:	f31ff06f          	j	80004ecc <xTaskGenericNotifyWait+0x94>

80004fa0 <xTaskGenericNotify>:
80004fa0:	00058863          	beqz	a1,80004fb0 <xTaskGenericNotify+0x10>
80004fa4:	30047073          	csrci	mstatus,8
80004fa8:	00100073          	ebreak
80004fac:	0000006f          	j	80004fac <xTaskGenericNotify+0xc>
80004fb0:	0c050e63          	beqz	a0,8000508c <xTaskGenericNotify+0xec>
80004fb4:	fe010113          	addi	sp,sp,-32
80004fb8:	00812c23          	sw	s0,24(sp)
80004fbc:	00912a23          	sw	s1,20(sp)
80004fc0:	01212823          	sw	s2,16(sp)
80004fc4:	01312623          	sw	s3,12(sp)
80004fc8:	00112e23          	sw	ra,28(sp)
80004fcc:	01412423          	sw	s4,8(sp)
80004fd0:	00070993          	mv	s3,a4
80004fd4:	00068493          	mv	s1,a3
80004fd8:	00060913          	mv	s2,a2
80004fdc:	00050413          	mv	s0,a0
80004fe0:	30047073          	csrci	mstatus,8
80004fe4:	81000a37          	lui	s4,0x81000
80004fe8:	66ca2783          	lw	a5,1644(s4) # 8100066c <__heap_start+0xfbfff7bc>
80004fec:	08079c63          	bnez	a5,80005084 <xTaskGenericNotify+0xe4>
80004ff0:	00098663          	beqz	s3,80004ffc <xTaskGenericNotify+0x5c>
80004ff4:	05042783          	lw	a5,80(s0)
80004ff8:	00f9a023          	sw	a5,0(s3)
80004ffc:	05444703          	lbu	a4,84(s0)
80005000:	00200793          	li	a5,2
80005004:	04f40a23          	sb	a5,84(s0)
80005008:	00400793          	li	a5,4
8000500c:	0ff77713          	andi	a4,a4,255
80005010:	1497ea63          	bltu	a5,s1,80005164 <xTaskGenericNotify+0x1c4>
80005014:	810006b7          	lui	a3,0x81000
80005018:	00249793          	slli	a5,s1,0x2
8000501c:	46068693          	addi	a3,a3,1120 # 81000460 <__heap_start+0xfbfff5b0>
80005020:	00d787b3          	add	a5,a5,a3
80005024:	0007a783          	lw	a5,0(a5)
80005028:	00078067          	jr	a5
8000502c:	05042783          	lw	a5,80(s0)
80005030:	0127e933          	or	s2,a5,s2
80005034:	05242823          	sw	s2,80(s0)
80005038:	00100793          	li	a5,1
8000503c:	04f70e63          	beq	a4,a5,80005098 <xTaskGenericNotify+0xf8>
80005040:	00100413          	li	s0,1
80005044:	66ca2783          	lw	a5,1644(s4)
80005048:	00078c63          	beqz	a5,80005060 <xTaskGenericNotify+0xc0>
8000504c:	810007b7          	lui	a5,0x81000
80005050:	6887a783          	lw	a5,1672(a5) # 81000688 <__heap_start+0xfbfff7d8>
80005054:	0447a783          	lw	a5,68(a5)
80005058:	00078463          	beqz	a5,80005060 <xTaskGenericNotify+0xc0>
8000505c:	b25fd0ef          	jal	ra,80002b80 <vTaskExitCritical.part.6>
80005060:	00040513          	mv	a0,s0
80005064:	01c12083          	lw	ra,28(sp)
80005068:	01812403          	lw	s0,24(sp)
8000506c:	01412483          	lw	s1,20(sp)
80005070:	01012903          	lw	s2,16(sp)
80005074:	00c12983          	lw	s3,12(sp)
80005078:	00812a03          	lw	s4,8(sp)
8000507c:	02010113          	addi	sp,sp,32
80005080:	00008067          	ret
80005084:	ae1fd0ef          	jal	ra,80002b64 <vTaskEnterCritical.part.5>
80005088:	f69ff06f          	j	80004ff0 <xTaskGenericNotify+0x50>
8000508c:	30047073          	csrci	mstatus,8
80005090:	00100073          	ebreak
80005094:	0000006f          	j	80005094 <xTaskGenericNotify+0xf4>
80005098:	00c42783          	lw	a5,12(s0)
8000509c:	00842703          	lw	a4,8(s0)
800050a0:	01442683          	lw	a3,20(s0)
800050a4:	00440813          	addi	a6,s0,4
800050a8:	00f72423          	sw	a5,8(a4)
800050ac:	00c42783          	lw	a5,12(s0)
800050b0:	0046a603          	lw	a2,4(a3)
800050b4:	00e7a223          	sw	a4,4(a5)
800050b8:	0d060263          	beq	a2,a6,8000517c <xTaskGenericNotify+0x1dc>
800050bc:	02c42603          	lw	a2,44(s0)
800050c0:	810007b7          	lui	a5,0x81000
800050c4:	00078793          	mv	a5,a5
800050c8:	00261713          	slli	a4,a2,0x2
800050cc:	00c70733          	add	a4,a4,a2
800050d0:	00271713          	slli	a4,a4,0x2
800050d4:	0006a883          	lw	a7,0(a3)
800050d8:	00e78533          	add	a0,a5,a4
800050dc:	01852583          	lw	a1,24(a0)
800050e0:	fff88893          	addi	a7,a7,-1
800050e4:	0116a023          	sw	a7,0(a3)
800050e8:	0085a683          	lw	a3,8(a1)
800050ec:	810008b7          	lui	a7,0x81000
800050f0:	6708ae03          	lw	t3,1648(a7) # 81000670 <__heap_start+0xfbfff7c0>
800050f4:	00d42623          	sw	a3,12(s0)
800050f8:	00100693          	li	a3,1
800050fc:	00c696b3          	sll	a3,a3,a2
80005100:	0085a303          	lw	t1,8(a1)
80005104:	01c6e6b3          	or	a3,a3,t3
80005108:	66d8a823          	sw	a3,1648(a7)
8000510c:	01452683          	lw	a3,20(a0)
80005110:	00b42423          	sw	a1,8(s0)
80005114:	01032223          	sw	a6,4(t1)
80005118:	01478793          	addi	a5,a5,20 # 81000014 <__heap_start+0xfbfff164>
8000511c:	00e787b3          	add	a5,a5,a4
80005120:	0105a423          	sw	a6,8(a1)
80005124:	02842703          	lw	a4,40(s0)
80005128:	00f42a23          	sw	a5,20(s0)
8000512c:	00168793          	addi	a5,a3,1
80005130:	00f52a23          	sw	a5,20(a0)
80005134:	04070c63          	beqz	a4,8000518c <xTaskGenericNotify+0x1ec>
80005138:	30047073          	csrci	mstatus,8
8000513c:	00100073          	ebreak
80005140:	0000006f          	j	80005140 <xTaskGenericNotify+0x1a0>
80005144:	00200793          	li	a5,2
80005148:	02f70e63          	beq	a4,a5,80005184 <xTaskGenericNotify+0x1e4>
8000514c:	05242823          	sw	s2,80(s0)
80005150:	ee9ff06f          	j	80005038 <xTaskGenericNotify+0x98>
80005154:	05042783          	lw	a5,80(s0)
80005158:	00178793          	addi	a5,a5,1
8000515c:	04f42823          	sw	a5,80(s0)
80005160:	ed9ff06f          	j	80005038 <xTaskGenericNotify+0x98>
80005164:	810007b7          	lui	a5,0x81000
80005168:	6747a783          	lw	a5,1652(a5) # 81000674 <__heap_start+0xfbfff7c4>
8000516c:	ec0786e3          	beqz	a5,80005038 <xTaskGenericNotify+0x98>
80005170:	30047073          	csrci	mstatus,8
80005174:	00100073          	ebreak
80005178:	0000006f          	j	80005178 <xTaskGenericNotify+0x1d8>
8000517c:	00f6a223          	sw	a5,4(a3)
80005180:	f3dff06f          	j	800050bc <xTaskGenericNotify+0x11c>
80005184:	00000413          	li	s0,0
80005188:	ebdff06f          	j	80005044 <xTaskGenericNotify+0xa4>
8000518c:	810007b7          	lui	a5,0x81000
80005190:	6887a783          	lw	a5,1672(a5) # 81000688 <__heap_start+0xfbfff7d8>
80005194:	02c7a783          	lw	a5,44(a5)
80005198:	eac7f4e3          	bleu	a2,a5,80005040 <xTaskGenericNotify+0xa0>
8000519c:	00000073          	ecall
800051a0:	ea1ff06f          	j	80005040 <xTaskGenericNotify+0xa0>

800051a4 <xTaskGenericNotifyFromISR>:
800051a4:	04050863          	beqz	a0,800051f4 <xTaskGenericNotifyFromISR+0x50>
800051a8:	04059063          	bnez	a1,800051e8 <xTaskGenericNotifyFromISR+0x44>
800051ac:	00070663          	beqz	a4,800051b8 <xTaskGenericNotifyFromISR+0x14>
800051b0:	05052583          	lw	a1,80(a0)
800051b4:	00b72023          	sw	a1,0(a4)
800051b8:	05454583          	lbu	a1,84(a0)
800051bc:	00200713          	li	a4,2
800051c0:	04e50a23          	sb	a4,84(a0)
800051c4:	00400713          	li	a4,4
800051c8:	0ff5f593          	andi	a1,a1,255
800051cc:	04d76863          	bltu	a4,a3,8000521c <xTaskGenericNotifyFromISR+0x78>
800051d0:	00269713          	slli	a4,a3,0x2
800051d4:	810006b7          	lui	a3,0x81000
800051d8:	47468693          	addi	a3,a3,1140 # 81000474 <__heap_start+0xfbfff5c4>
800051dc:	00d70733          	add	a4,a4,a3
800051e0:	00072703          	lw	a4,0(a4)
800051e4:	00070067          	jr	a4
800051e8:	30047073          	csrci	mstatus,8
800051ec:	00100073          	ebreak
800051f0:	0000006f          	j	800051f0 <xTaskGenericNotifyFromISR+0x4c>
800051f4:	30047073          	csrci	mstatus,8
800051f8:	00100073          	ebreak
800051fc:	0000006f          	j	800051fc <xTaskGenericNotifyFromISR+0x58>
80005200:	05052703          	lw	a4,80(a0)
80005204:	00c76733          	or	a4,a4,a2
80005208:	04e52823          	sw	a4,80(a0)
8000520c:	00100713          	li	a4,1
80005210:	02e58263          	beq	a1,a4,80005234 <xTaskGenericNotifyFromISR+0x90>
80005214:	00100513          	li	a0,1
80005218:	00008067          	ret
8000521c:	81000737          	lui	a4,0x81000
80005220:	67472703          	lw	a4,1652(a4) # 81000674 <__heap_start+0xfbfff7c4>
80005224:	fe0704e3          	beqz	a4,8000520c <xTaskGenericNotifyFromISR+0x68>
80005228:	30047073          	csrci	mstatus,8
8000522c:	00100073          	ebreak
80005230:	0000006f          	j	80005230 <xTaskGenericNotifyFromISR+0x8c>
80005234:	02852703          	lw	a4,40(a0)
80005238:	02070c63          	beqz	a4,80005270 <xTaskGenericNotifyFromISR+0xcc>
8000523c:	30047073          	csrci	mstatus,8
80005240:	00100073          	ebreak
80005244:	0000006f          	j	80005244 <xTaskGenericNotifyFromISR+0xa0>
80005248:	00200713          	li	a4,2
8000524c:	00e58e63          	beq	a1,a4,80005268 <xTaskGenericNotifyFromISR+0xc4>
80005250:	04c52823          	sw	a2,80(a0)
80005254:	fb9ff06f          	j	8000520c <xTaskGenericNotifyFromISR+0x68>
80005258:	05052703          	lw	a4,80(a0)
8000525c:	00170713          	addi	a4,a4,1
80005260:	04e52823          	sw	a4,80(a0)
80005264:	fa9ff06f          	j	8000520c <xTaskGenericNotifyFromISR+0x68>
80005268:	00000513          	li	a0,0
8000526c:	00008067          	ret
80005270:	81000737          	lui	a4,0x81000
80005274:	65072703          	lw	a4,1616(a4) # 81000650 <__heap_start+0xfbfff7a0>
80005278:	02c52583          	lw	a1,44(a0)
8000527c:	0c071663          	bnez	a4,80005348 <xTaskGenericNotifyFromISR+0x1a4>
80005280:	00c52703          	lw	a4,12(a0)
80005284:	00852683          	lw	a3,8(a0)
80005288:	01452603          	lw	a2,20(a0)
8000528c:	00450313          	addi	t1,a0,4
80005290:	00e6a423          	sw	a4,8(a3)
80005294:	00c52703          	lw	a4,12(a0)
80005298:	00462803          	lw	a6,4(a2)
8000529c:	00d72223          	sw	a3,4(a4)
800052a0:	0a680063          	beq	a6,t1,80005340 <xTaskGenericNotifyFromISR+0x19c>
800052a4:	00259693          	slli	a3,a1,0x2
800052a8:	00b686b3          	add	a3,a3,a1
800052ac:	81000737          	lui	a4,0x81000
800052b0:	00070713          	mv	a4,a4
800052b4:	00269693          	slli	a3,a3,0x2
800052b8:	00062e03          	lw	t3,0(a2)
800052bc:	00d708b3          	add	a7,a4,a3
800052c0:	0188a803          	lw	a6,24(a7)
800052c4:	fffe0e13          	addi	t3,t3,-1
800052c8:	01c62023          	sw	t3,0(a2)
800052cc:	00882603          	lw	a2,8(a6)
800052d0:	81000e37          	lui	t3,0x81000
800052d4:	670e2f03          	lw	t5,1648(t3) # 81000670 <__heap_start+0xfbfff7c0>
800052d8:	00c52623          	sw	a2,12(a0)
800052dc:	00100613          	li	a2,1
800052e0:	00b61633          	sll	a2,a2,a1
800052e4:	00882e83          	lw	t4,8(a6)
800052e8:	01e66633          	or	a2,a2,t5
800052ec:	66ce2823          	sw	a2,1648(t3)
800052f0:	0148a603          	lw	a2,20(a7)
800052f4:	01052423          	sw	a6,8(a0)
800052f8:	006ea223          	sw	t1,4(t4)
800052fc:	01470713          	addi	a4,a4,20 # 81000014 <__heap_start+0xfbfff164>
80005300:	00682423          	sw	t1,8(a6)
80005304:	00d70733          	add	a4,a4,a3
80005308:	00e52a23          	sw	a4,20(a0)
8000530c:	00160613          	addi	a2,a2,1
80005310:	00c8aa23          	sw	a2,20(a7)
80005314:	81000737          	lui	a4,0x81000
80005318:	68872703          	lw	a4,1672(a4) # 81000688 <__heap_start+0xfbfff7d8>
8000531c:	02c72703          	lw	a4,44(a4)
80005320:	eeb77ae3          	bleu	a1,a4,80005214 <xTaskGenericNotifyFromISR+0x70>
80005324:	00078663          	beqz	a5,80005330 <xTaskGenericNotifyFromISR+0x18c>
80005328:	00100713          	li	a4,1
8000532c:	00e7a023          	sw	a4,0(a5)
80005330:	810007b7          	lui	a5,0x81000
80005334:	00100713          	li	a4,1
80005338:	66e7a223          	sw	a4,1636(a5) # 81000664 <__heap_start+0xfbfff7b4>
8000533c:	ed9ff06f          	j	80005214 <xTaskGenericNotifyFromISR+0x70>
80005340:	00e62223          	sw	a4,4(a2)
80005344:	f61ff06f          	j	800052a4 <xTaskGenericNotifyFromISR+0x100>
80005348:	81000737          	lui	a4,0x81000
8000534c:	00070713          	mv	a4,a4
80005350:	0e072683          	lw	a3,224(a4) # 810000e0 <__heap_start+0xfbfff230>
80005354:	0dc72603          	lw	a2,220(a4)
80005358:	01850813          	addi	a6,a0,24
8000535c:	0086a303          	lw	t1,8(a3)
80005360:	00d52e23          	sw	a3,28(a0)
80005364:	0dc70893          	addi	a7,a4,220
80005368:	02652023          	sw	t1,32(a0)
8000536c:	0086a303          	lw	t1,8(a3)
80005370:	00160613          	addi	a2,a2,1
80005374:	0cc72e23          	sw	a2,220(a4)
80005378:	01032223          	sw	a6,4(t1)
8000537c:	0106a423          	sw	a6,8(a3)
80005380:	03152423          	sw	a7,40(a0)
80005384:	f91ff06f          	j	80005314 <xTaskGenericNotifyFromISR+0x170>

80005388 <vTaskGenericNotifyGiveFromISR>:
80005388:	02050c63          	beqz	a0,800053c0 <vTaskGenericNotifyGiveFromISR+0x38>
8000538c:	00058863          	beqz	a1,8000539c <vTaskGenericNotifyGiveFromISR+0x14>
80005390:	30047073          	csrci	mstatus,8
80005394:	00100073          	ebreak
80005398:	0000006f          	j	80005398 <vTaskGenericNotifyGiveFromISR+0x10>
8000539c:	00200793          	li	a5,2
800053a0:	05454703          	lbu	a4,84(a0)
800053a4:	04f50a23          	sb	a5,84(a0)
800053a8:	05052783          	lw	a5,80(a0)
800053ac:	00100693          	li	a3,1
800053b0:	00178793          	addi	a5,a5,1
800053b4:	04f52823          	sw	a5,80(a0)
800053b8:	00e68a63          	beq	a3,a4,800053cc <vTaskGenericNotifyGiveFromISR+0x44>
800053bc:	00008067          	ret
800053c0:	30047073          	csrci	mstatus,8
800053c4:	00100073          	ebreak
800053c8:	0000006f          	j	800053c8 <vTaskGenericNotifyGiveFromISR+0x40>
800053cc:	02852783          	lw	a5,40(a0)
800053d0:	00078863          	beqz	a5,800053e0 <vTaskGenericNotifyGiveFromISR+0x58>
800053d4:	30047073          	csrci	mstatus,8
800053d8:	00100073          	ebreak
800053dc:	0000006f          	j	800053dc <vTaskGenericNotifyGiveFromISR+0x54>
800053e0:	810007b7          	lui	a5,0x81000
800053e4:	6507a783          	lw	a5,1616(a5) # 81000650 <__heap_start+0xfbfff7a0>
800053e8:	02c52583          	lw	a1,44(a0)
800053ec:	0c079663          	bnez	a5,800054b8 <vTaskGenericNotifyGiveFromISR+0x130>
800053f0:	00c52783          	lw	a5,12(a0)
800053f4:	00852703          	lw	a4,8(a0)
800053f8:	01452683          	lw	a3,20(a0)
800053fc:	00450313          	addi	t1,a0,4
80005400:	00f72423          	sw	a5,8(a4)
80005404:	00c52783          	lw	a5,12(a0)
80005408:	0046a803          	lw	a6,4(a3)
8000540c:	00e7a223          	sw	a4,4(a5)
80005410:	0a680063          	beq	a6,t1,800054b0 <vTaskGenericNotifyGiveFromISR+0x128>
80005414:	00259713          	slli	a4,a1,0x2
80005418:	00b70733          	add	a4,a4,a1
8000541c:	810007b7          	lui	a5,0x81000
80005420:	00078793          	mv	a5,a5
80005424:	00271713          	slli	a4,a4,0x2
80005428:	0006ae03          	lw	t3,0(a3)
8000542c:	00e788b3          	add	a7,a5,a4
80005430:	0188a803          	lw	a6,24(a7)
80005434:	fffe0e13          	addi	t3,t3,-1
80005438:	01c6a023          	sw	t3,0(a3)
8000543c:	00882683          	lw	a3,8(a6)
80005440:	81000e37          	lui	t3,0x81000
80005444:	670e2f03          	lw	t5,1648(t3) # 81000670 <__heap_start+0xfbfff7c0>
80005448:	00d52623          	sw	a3,12(a0)
8000544c:	00100693          	li	a3,1
80005450:	00b696b3          	sll	a3,a3,a1
80005454:	00882e83          	lw	t4,8(a6)
80005458:	01e6e6b3          	or	a3,a3,t5
8000545c:	66de2823          	sw	a3,1648(t3)
80005460:	0148a683          	lw	a3,20(a7)
80005464:	01052423          	sw	a6,8(a0)
80005468:	006ea223          	sw	t1,4(t4)
8000546c:	01478793          	addi	a5,a5,20 # 81000014 <__heap_start+0xfbfff164>
80005470:	00682423          	sw	t1,8(a6)
80005474:	00e787b3          	add	a5,a5,a4
80005478:	00f52a23          	sw	a5,20(a0)
8000547c:	00168693          	addi	a3,a3,1
80005480:	00d8aa23          	sw	a3,20(a7)
80005484:	810007b7          	lui	a5,0x81000
80005488:	6887a783          	lw	a5,1672(a5) # 81000688 <__heap_start+0xfbfff7d8>
8000548c:	02c7a783          	lw	a5,44(a5)
80005490:	f2b7f6e3          	bleu	a1,a5,800053bc <vTaskGenericNotifyGiveFromISR+0x34>
80005494:	00060663          	beqz	a2,800054a0 <vTaskGenericNotifyGiveFromISR+0x118>
80005498:	00100793          	li	a5,1
8000549c:	00f62023          	sw	a5,0(a2)
800054a0:	810007b7          	lui	a5,0x81000
800054a4:	00100713          	li	a4,1
800054a8:	66e7a223          	sw	a4,1636(a5) # 81000664 <__heap_start+0xfbfff7b4>
800054ac:	00008067          	ret
800054b0:	00f6a223          	sw	a5,4(a3)
800054b4:	f61ff06f          	j	80005414 <vTaskGenericNotifyGiveFromISR+0x8c>
800054b8:	810007b7          	lui	a5,0x81000
800054bc:	00078793          	mv	a5,a5
800054c0:	0e07a703          	lw	a4,224(a5) # 810000e0 <__heap_start+0xfbfff230>
800054c4:	0dc7a683          	lw	a3,220(a5)
800054c8:	01850813          	addi	a6,a0,24
800054cc:	00872303          	lw	t1,8(a4)
800054d0:	00e52e23          	sw	a4,28(a0)
800054d4:	0dc78893          	addi	a7,a5,220
800054d8:	02652023          	sw	t1,32(a0)
800054dc:	00872303          	lw	t1,8(a4)
800054e0:	00168693          	addi	a3,a3,1
800054e4:	0cd7ae23          	sw	a3,220(a5)
800054e8:	01032223          	sw	a6,4(t1)
800054ec:	01072423          	sw	a6,8(a4)
800054f0:	03152423          	sw	a7,40(a0)
800054f4:	f91ff06f          	j	80005484 <vTaskGenericNotifyGiveFromISR+0xfc>

800054f8 <xTaskGenericNotifyStateClear>:
800054f8:	00058863          	beqz	a1,80005508 <xTaskGenericNotifyStateClear+0x10>
800054fc:	30047073          	csrci	mstatus,8
80005500:	00100073          	ebreak
80005504:	0000006f          	j	80005504 <xTaskGenericNotifyStateClear+0xc>
80005508:	ff010113          	addi	sp,sp,-16
8000550c:	00812423          	sw	s0,8(sp)
80005510:	00112623          	sw	ra,12(sp)
80005514:	00912223          	sw	s1,4(sp)
80005518:	01212023          	sw	s2,0(sp)
8000551c:	00050413          	mv	s0,a0
80005520:	06050063          	beqz	a0,80005580 <xTaskGenericNotifyStateClear+0x88>
80005524:	30047073          	csrci	mstatus,8
80005528:	810004b7          	lui	s1,0x81000
8000552c:	66c4a783          	lw	a5,1644(s1) # 8100066c <__heap_start+0xfbfff7bc>
80005530:	00078463          	beqz	a5,80005538 <xTaskGenericNotifyStateClear+0x40>
80005534:	e30fd0ef          	jal	ra,80002b64 <vTaskEnterCritical.part.5>
80005538:	05444783          	lbu	a5,84(s0)
8000553c:	00200713          	li	a4,2
80005540:	00000913          	li	s2,0
80005544:	04f70c63          	beq	a4,a5,8000559c <xTaskGenericNotifyStateClear+0xa4>
80005548:	66c4a783          	lw	a5,1644(s1)
8000554c:	00078c63          	beqz	a5,80005564 <xTaskGenericNotifyStateClear+0x6c>
80005550:	810007b7          	lui	a5,0x81000
80005554:	6887a783          	lw	a5,1672(a5) # 81000688 <__heap_start+0xfbfff7d8>
80005558:	0447a783          	lw	a5,68(a5)
8000555c:	00078463          	beqz	a5,80005564 <xTaskGenericNotifyStateClear+0x6c>
80005560:	e20fd0ef          	jal	ra,80002b80 <vTaskExitCritical.part.6>
80005564:	00c12083          	lw	ra,12(sp)
80005568:	00812403          	lw	s0,8(sp)
8000556c:	00090513          	mv	a0,s2
80005570:	00412483          	lw	s1,4(sp)
80005574:	00012903          	lw	s2,0(sp)
80005578:	01010113          	addi	sp,sp,16
8000557c:	00008067          	ret
80005580:	810007b7          	lui	a5,0x81000
80005584:	6887a403          	lw	s0,1672(a5) # 81000688 <__heap_start+0xfbfff7d8>
80005588:	30047073          	csrci	mstatus,8
8000558c:	810004b7          	lui	s1,0x81000
80005590:	66c4a783          	lw	a5,1644(s1) # 8100066c <__heap_start+0xfbfff7bc>
80005594:	fa0782e3          	beqz	a5,80005538 <xTaskGenericNotifyStateClear+0x40>
80005598:	f9dff06f          	j	80005534 <xTaskGenericNotifyStateClear+0x3c>
8000559c:	04040a23          	sb	zero,84(s0)
800055a0:	66c4a783          	lw	a5,1644(s1)
800055a4:	00100913          	li	s2,1
800055a8:	fa078ee3          	beqz	a5,80005564 <xTaskGenericNotifyStateClear+0x6c>
800055ac:	fa5ff06f          	j	80005550 <xTaskGenericNotifyStateClear+0x58>

800055b0 <ulTaskGenericNotifyValueClear>:
800055b0:	fd010113          	addi	sp,sp,-48
800055b4:	02812423          	sw	s0,40(sp)
800055b8:	02912223          	sw	s1,36(sp)
800055bc:	03212023          	sw	s2,32(sp)
800055c0:	02112623          	sw	ra,44(sp)
800055c4:	01312e23          	sw	s3,28(sp)
800055c8:	00058913          	mv	s2,a1
800055cc:	00060493          	mv	s1,a2
800055d0:	00050413          	mv	s0,a0
800055d4:	06050a63          	beqz	a0,80005648 <ulTaskGenericNotifyValueClear+0x98>
800055d8:	30047073          	csrci	mstatus,8
800055dc:	810009b7          	lui	s3,0x81000
800055e0:	66c9a783          	lw	a5,1644(s3) # 8100066c <__heap_start+0xfbfff7bc>
800055e4:	00078463          	beqz	a5,800055ec <ulTaskGenericNotifyValueClear+0x3c>
800055e8:	d7cfd0ef          	jal	ra,80002b64 <vTaskEnterCritical.part.5>
800055ec:	00291593          	slli	a1,s2,0x2
800055f0:	00b405b3          	add	a1,s0,a1
800055f4:	0505a503          	lw	a0,80(a1)
800055f8:	0505a603          	lw	a2,80(a1)
800055fc:	fff4c493          	not	s1,s1
80005600:	00c4f4b3          	and	s1,s1,a2
80005604:	0495a823          	sw	s1,80(a1)
80005608:	66c9a783          	lw	a5,1644(s3)
8000560c:	02078063          	beqz	a5,8000562c <ulTaskGenericNotifyValueClear+0x7c>
80005610:	810007b7          	lui	a5,0x81000
80005614:	6887a783          	lw	a5,1672(a5) # 81000688 <__heap_start+0xfbfff7d8>
80005618:	0447a783          	lw	a5,68(a5)
8000561c:	00078863          	beqz	a5,8000562c <ulTaskGenericNotifyValueClear+0x7c>
80005620:	00a12623          	sw	a0,12(sp)
80005624:	d5cfd0ef          	jal	ra,80002b80 <vTaskExitCritical.part.6>
80005628:	00c12503          	lw	a0,12(sp)
8000562c:	02c12083          	lw	ra,44(sp)
80005630:	02812403          	lw	s0,40(sp)
80005634:	02412483          	lw	s1,36(sp)
80005638:	02012903          	lw	s2,32(sp)
8000563c:	01c12983          	lw	s3,28(sp)
80005640:	03010113          	addi	sp,sp,48
80005644:	00008067          	ret
80005648:	810007b7          	lui	a5,0x81000
8000564c:	6887a403          	lw	s0,1672(a5) # 81000688 <__heap_start+0xfbfff7d8>
80005650:	f89ff06f          	j	800055d8 <ulTaskGenericNotifyValueClear+0x28>

80005654 <pvPortMalloc>:
80005654:	ff010113          	addi	sp,sp,-16
80005658:	00112623          	sw	ra,12(sp)
8000565c:	00812423          	sw	s0,8(sp)
80005660:	00050413          	mv	s0,a0
80005664:	b38fe0ef          	jal	ra,8000399c <vTaskSuspendAll>
80005668:	00040513          	mv	a0,s0
8000566c:	d7cfb0ef          	jal	ra,80000be8 <malloc>
80005670:	00050413          	mv	s0,a0
80005674:	811fe0ef          	jal	ra,80003e84 <xTaskResumeAll>
80005678:	00040c63          	beqz	s0,80005690 <pvPortMalloc+0x3c>
8000567c:	00040513          	mv	a0,s0
80005680:	00c12083          	lw	ra,12(sp)
80005684:	00812403          	lw	s0,8(sp)
80005688:	01010113          	addi	sp,sp,16
8000568c:	00008067          	ret
80005690:	d01fa0ef          	jal	ra,80000390 <vApplicationMallocFailedHook>
80005694:	00040513          	mv	a0,s0
80005698:	00c12083          	lw	ra,12(sp)
8000569c:	00812403          	lw	s0,8(sp)
800056a0:	01010113          	addi	sp,sp,16
800056a4:	00008067          	ret

800056a8 <vPortFree>:
800056a8:	02050863          	beqz	a0,800056d8 <vPortFree+0x30>
800056ac:	ff010113          	addi	sp,sp,-16
800056b0:	00112623          	sw	ra,12(sp)
800056b4:	00812423          	sw	s0,8(sp)
800056b8:	00050413          	mv	s0,a0
800056bc:	ae0fe0ef          	jal	ra,8000399c <vTaskSuspendAll>
800056c0:	00040513          	mv	a0,s0
800056c4:	e54fb0ef          	jal	ra,80000d18 <free>
800056c8:	00812403          	lw	s0,8(sp)
800056cc:	00c12083          	lw	ra,12(sp)
800056d0:	01010113          	addi	sp,sp,16
800056d4:	fb0fe06f          	j	80003e84 <xTaskResumeAll>
800056d8:	00008067          	ret

800056dc <prvCheckForValidListAndQueue>:
800056dc:	ff010113          	addi	sp,sp,-16
800056e0:	00812423          	sw	s0,8(sp)
800056e4:	00112623          	sw	ra,12(sp)
800056e8:	00912223          	sw	s1,4(sp)
800056ec:	01212023          	sw	s2,0(sp)
800056f0:	81000437          	lui	s0,0x81000
800056f4:	da8ff0ef          	jal	ra,80004c9c <vTaskEnterCritical>
800056f8:	69442783          	lw	a5,1684(s0) # 81000694 <__heap_start+0xfbfff7e4>
800056fc:	00078e63          	beqz	a5,80005718 <prvCheckForValidListAndQueue+0x3c>
80005700:	00812403          	lw	s0,8(sp)
80005704:	00c12083          	lw	ra,12(sp)
80005708:	00412483          	lw	s1,4(sp)
8000570c:	00012903          	lw	s2,0(sp)
80005710:	01010113          	addi	sp,sp,16
80005714:	da0ff06f          	j	80004cb4 <vTaskExitCritical>
80005718:	81000537          	lui	a0,0x81000
8000571c:	0f050913          	addi	s2,a0,240 # 810000f0 <__heap_start+0xfbfff240>
80005720:	0f050513          	addi	a0,a0,240
80005724:	c45fb0ef          	jal	ra,80001368 <vListInitialise>
80005728:	01490493          	addi	s1,s2,20
8000572c:	00048513          	mv	a0,s1
80005730:	c39fb0ef          	jal	ra,80001368 <vListInitialise>
80005734:	810007b7          	lui	a5,0x81000
80005738:	6927ae23          	sw	s2,1692(a5) # 8100069c <__heap_start+0xfbfff7ec>
8000573c:	00000613          	li	a2,0
80005740:	810007b7          	lui	a5,0x81000
80005744:	01000593          	li	a1,16
80005748:	00400513          	li	a0,4
8000574c:	6897ac23          	sw	s1,1688(a5) # 81000698 <__heap_start+0xfbfff7e8>
80005750:	890fc0ef          	jal	ra,800017e0 <xQueueGenericCreate>
80005754:	68a42a23          	sw	a0,1684(s0)
80005758:	fa0504e3          	beqz	a0,80005700 <prvCheckForValidListAndQueue+0x24>
8000575c:	810005b7          	lui	a1,0x81000
80005760:	4b858593          	addi	a1,a1,1208 # 810004b8 <__heap_start+0xfbfff608>
80005764:	f69fc0ef          	jal	ra,800026cc <vQueueAddToRegistry>
80005768:	f99ff06f          	j	80005700 <prvCheckForValidListAndQueue+0x24>

8000576c <prvInsertTimerInActiveList>:
8000576c:	ff010113          	addi	sp,sp,-16
80005770:	00112623          	sw	ra,12(sp)
80005774:	00b52223          	sw	a1,4(a0)
80005778:	00a52823          	sw	a0,16(a0)
8000577c:	00050793          	mv	a5,a0
80005780:	02b66063          	bltu	a2,a1,800057a0 <prvInsertTimerInActiveList+0x34>
80005784:	01852703          	lw	a4,24(a0)
80005788:	40d60633          	sub	a2,a2,a3
8000578c:	00100513          	li	a0,1
80005790:	02e66e63          	bltu	a2,a4,800057cc <prvInsertTimerInActiveList+0x60>
80005794:	00c12083          	lw	ra,12(sp)
80005798:	01010113          	addi	sp,sp,16
8000579c:	00008067          	ret
800057a0:	00d67663          	bleu	a3,a2,800057ac <prvInsertTimerInActiveList+0x40>
800057a4:	00100513          	li	a0,1
800057a8:	fed5f6e3          	bleu	a3,a1,80005794 <prvInsertTimerInActiveList+0x28>
800057ac:	81000737          	lui	a4,0x81000
800057b0:	69c72503          	lw	a0,1692(a4) # 8100069c <__heap_start+0xfbfff7ec>
800057b4:	00478593          	addi	a1,a5,4
800057b8:	c09fb0ef          	jal	ra,800013c0 <vListInsert>
800057bc:	00c12083          	lw	ra,12(sp)
800057c0:	00000513          	li	a0,0
800057c4:	01010113          	addi	sp,sp,16
800057c8:	00008067          	ret
800057cc:	81000737          	lui	a4,0x81000
800057d0:	69872503          	lw	a0,1688(a4) # 81000698 <__heap_start+0xfbfff7e8>
800057d4:	00478593          	addi	a1,a5,4
800057d8:	be9fb0ef          	jal	ra,800013c0 <vListInsert>
800057dc:	00c12083          	lw	ra,12(sp)
800057e0:	00000513          	li	a0,0
800057e4:	01010113          	addi	sp,sp,16
800057e8:	00008067          	ret

800057ec <prvReloadTimer>:
800057ec:	ff010113          	addi	sp,sp,-16
800057f0:	00812423          	sw	s0,8(sp)
800057f4:	00912223          	sw	s1,4(sp)
800057f8:	01212023          	sw	s2,0(sp)
800057fc:	00112623          	sw	ra,12(sp)
80005800:	00050413          	mv	s0,a0
80005804:	00058493          	mv	s1,a1
80005808:	00060913          	mv	s2,a2
8000580c:	0180006f          	j	80005824 <prvReloadTimer+0x38>
80005810:	01842703          	lw	a4,24(s0)
80005814:	02042783          	lw	a5,32(s0)
80005818:	00040513          	mv	a0,s0
8000581c:	00e484b3          	add	s1,s1,a4
80005820:	000780e7          	jalr	a5
80005824:	01842583          	lw	a1,24(s0)
80005828:	00048693          	mv	a3,s1
8000582c:	00090613          	mv	a2,s2
80005830:	00b485b3          	add	a1,s1,a1
80005834:	00040513          	mv	a0,s0
80005838:	f35ff0ef          	jal	ra,8000576c <prvInsertTimerInActiveList>
8000583c:	fc051ae3          	bnez	a0,80005810 <prvReloadTimer+0x24>
80005840:	00c12083          	lw	ra,12(sp)
80005844:	00812403          	lw	s0,8(sp)
80005848:	00412483          	lw	s1,4(sp)
8000584c:	00012903          	lw	s2,0(sp)
80005850:	01010113          	addi	sp,sp,16
80005854:	00008067          	ret

80005858 <prvProcessExpiredTimer>:
80005858:	810007b7          	lui	a5,0x81000
8000585c:	69c7a783          	lw	a5,1692(a5) # 8100069c <__heap_start+0xfbfff7ec>
80005860:	ff010113          	addi	sp,sp,-16
80005864:	00812423          	sw	s0,8(sp)
80005868:	00c7a783          	lw	a5,12(a5)
8000586c:	00912223          	sw	s1,4(sp)
80005870:	00050493          	mv	s1,a0
80005874:	00c7a403          	lw	s0,12(a5)
80005878:	01212023          	sw	s2,0(sp)
8000587c:	00112623          	sw	ra,12(sp)
80005880:	00440513          	addi	a0,s0,4
80005884:	00058913          	mv	s2,a1
80005888:	b8dfb0ef          	jal	ra,80001414 <uxListRemove>
8000588c:	02444783          	lbu	a5,36(s0)
80005890:	0047f713          	andi	a4,a5,4
80005894:	02071663          	bnez	a4,800058c0 <prvProcessExpiredTimer+0x68>
80005898:	ffe7f793          	andi	a5,a5,-2
8000589c:	02f40223          	sb	a5,36(s0)
800058a0:	02042303          	lw	t1,32(s0)
800058a4:	00040513          	mv	a0,s0
800058a8:	00812403          	lw	s0,8(sp)
800058ac:	00c12083          	lw	ra,12(sp)
800058b0:	00412483          	lw	s1,4(sp)
800058b4:	00012903          	lw	s2,0(sp)
800058b8:	01010113          	addi	sp,sp,16
800058bc:	00030067          	jr	t1
800058c0:	00090613          	mv	a2,s2
800058c4:	00048593          	mv	a1,s1
800058c8:	00040513          	mv	a0,s0
800058cc:	f21ff0ef          	jal	ra,800057ec <prvReloadTimer>
800058d0:	fd1ff06f          	j	800058a0 <prvProcessExpiredTimer+0x48>

800058d4 <prvSwitchTimerLists>:
800058d4:	ff010113          	addi	sp,sp,-16
800058d8:	00812423          	sw	s0,8(sp)
800058dc:	81000437          	lui	s0,0x81000
800058e0:	69c42783          	lw	a5,1692(s0) # 8100069c <__heap_start+0xfbfff7ec>
800058e4:	00112623          	sw	ra,12(sp)
800058e8:	0007a703          	lw	a4,0(a5)
800058ec:	02070063          	beqz	a4,8000590c <prvSwitchTimerLists+0x38>
800058f0:	00c7a783          	lw	a5,12(a5)
800058f4:	fff00593          	li	a1,-1
800058f8:	0007a503          	lw	a0,0(a5)
800058fc:	f5dff0ef          	jal	ra,80005858 <prvProcessExpiredTimer>
80005900:	69c42783          	lw	a5,1692(s0)
80005904:	0007a703          	lw	a4,0(a5)
80005908:	fe0714e3          	bnez	a4,800058f0 <prvSwitchTimerLists+0x1c>
8000590c:	81000737          	lui	a4,0x81000
80005910:	69872683          	lw	a3,1688(a4) # 81000698 <__heap_start+0xfbfff7e8>
80005914:	00c12083          	lw	ra,12(sp)
80005918:	68f72c23          	sw	a5,1688(a4)
8000591c:	68d42e23          	sw	a3,1692(s0)
80005920:	00812403          	lw	s0,8(sp)
80005924:	01010113          	addi	sp,sp,16
80005928:	00008067          	ret

8000592c <prvTimerTask>:
8000592c:	fc010113          	addi	sp,sp,-64
80005930:	03312623          	sw	s3,44(sp)
80005934:	810009b7          	lui	s3,0x81000
80005938:	02912a23          	sw	s1,52(sp)
8000593c:	03212823          	sw	s2,48(sp)
80005940:	03412423          	sw	s4,40(sp)
80005944:	03512223          	sw	s5,36(sp)
80005948:	03612023          	sw	s6,32(sp)
8000594c:	02112e23          	sw	ra,60(sp)
80005950:	02812c23          	sw	s0,56(sp)
80005954:	01712e23          	sw	s7,28(sp)
80005958:	81000ab7          	lui	s5,0x81000
8000595c:	81000937          	lui	s2,0x81000
80005960:	810004b7          	lui	s1,0x81000
80005964:	49098993          	addi	s3,s3,1168 # 81000490 <__heap_start+0xfbfff5e0>
80005968:	81000b37          	lui	s6,0x81000
8000596c:	00900a13          	li	s4,9
80005970:	69caa783          	lw	a5,1692(s5) # 8100069c <__heap_start+0xfbfff7ec>
80005974:	0007a703          	lw	a4,0(a5)
80005978:	16070263          	beqz	a4,80005adc <prvTimerTask+0x1b0>
8000597c:	00c7a783          	lw	a5,12(a5)
80005980:	0007ab83          	lw	s7,0(a5)
80005984:	818fe0ef          	jal	ra,8000399c <vTaskSuspendAll>
80005988:	828fe0ef          	jal	ra,800039b0 <xTaskGetTickCount>
8000598c:	68c92783          	lw	a5,1676(s2) # 8100068c <__heap_start+0xfbfff7dc>
80005990:	00050413          	mv	s0,a0
80005994:	16f56a63          	bltu	a0,a5,80005b08 <prvTimerTask+0x1dc>
80005998:	68a92623          	sw	a0,1676(s2)
8000599c:	00000613          	li	a2,0
800059a0:	19757063          	bleu	s7,a0,80005b20 <prvTimerTask+0x1f4>
800059a4:	6944a503          	lw	a0,1684(s1) # 81000694 <__heap_start+0xfbfff7e4>
800059a8:	408b85b3          	sub	a1,s7,s0
800059ac:	e2dfc0ef          	jal	ra,800027d8 <vQueueWaitForMessageRestricted>
800059b0:	cd4fe0ef          	jal	ra,80003e84 <xTaskResumeAll>
800059b4:	00051463          	bnez	a0,800059bc <prvTimerTask+0x90>
800059b8:	00000073          	ecall
800059bc:	6944a503          	lw	a0,1684(s1)
800059c0:	00000613          	li	a2,0
800059c4:	00010593          	mv	a1,sp
800059c8:	c44fc0ef          	jal	ra,80001e0c <xQueueReceive>
800059cc:	fa0502e3          	beqz	a0,80005970 <prvTimerTask+0x44>
800059d0:	00012783          	lw	a5,0(sp)
800059d4:	00812403          	lw	s0,8(sp)
800059d8:	0e07c263          	bltz	a5,80005abc <prvTimerTask+0x190>
800059dc:	01442783          	lw	a5,20(s0)
800059e0:	00078663          	beqz	a5,800059ec <prvTimerTask+0xc0>
800059e4:	00440513          	addi	a0,s0,4
800059e8:	a2dfb0ef          	jal	ra,80001414 <uxListRemove>
800059ec:	fc5fd0ef          	jal	ra,800039b0 <xTaskGetTickCount>
800059f0:	68c92783          	lw	a5,1676(s2)
800059f4:	00050b93          	mv	s7,a0
800059f8:	12f56063          	bltu	a0,a5,80005b18 <prvTimerTask+0x1ec>
800059fc:	00012783          	lw	a5,0(sp)
80005a00:	69792623          	sw	s7,1676(s2)
80005a04:	fafa6ce3          	bltu	s4,a5,800059bc <prvTimerTask+0x90>
80005a08:	00279793          	slli	a5,a5,0x2
80005a0c:	00f987b3          	add	a5,s3,a5
80005a10:	0007a783          	lw	a5,0(a5)
80005a14:	00078067          	jr	a5
80005a18:	02444783          	lbu	a5,36(s0)
80005a1c:	0027f713          	andi	a4,a5,2
80005a20:	10070a63          	beqz	a4,80005b34 <prvTimerTask+0x208>
80005a24:	ffe7f793          	andi	a5,a5,-2
80005a28:	02f40223          	sb	a5,36(s0)
80005a2c:	f91ff06f          	j	800059bc <prvTimerTask+0x90>
80005a30:	02444783          	lbu	a5,36(s0)
80005a34:	00412583          	lw	a1,4(sp)
80005a38:	0017e793          	ori	a5,a5,1
80005a3c:	02f40223          	sb	a5,36(s0)
80005a40:	00b42c23          	sw	a1,24(s0)
80005a44:	10058c63          	beqz	a1,80005b5c <prvTimerTask+0x230>
80005a48:	000b8693          	mv	a3,s7
80005a4c:	000b8613          	mv	a2,s7
80005a50:	017585b3          	add	a1,a1,s7
80005a54:	00040513          	mv	a0,s0
80005a58:	d15ff0ef          	jal	ra,8000576c <prvInsertTimerInActiveList>
80005a5c:	f61ff06f          	j	800059bc <prvTimerTask+0x90>
80005a60:	02444783          	lbu	a5,36(s0)
80005a64:	01842583          	lw	a1,24(s0)
80005a68:	00412683          	lw	a3,4(sp)
80005a6c:	0017e793          	ori	a5,a5,1
80005a70:	02f40223          	sb	a5,36(s0)
80005a74:	000b8613          	mv	a2,s7
80005a78:	00b685b3          	add	a1,a3,a1
80005a7c:	00040513          	mv	a0,s0
80005a80:	cedff0ef          	jal	ra,8000576c <prvInsertTimerInActiveList>
80005a84:	f2050ce3          	beqz	a0,800059bc <prvTimerTask+0x90>
80005a88:	02444783          	lbu	a5,36(s0)
80005a8c:	0047f713          	andi	a4,a5,4
80005a90:	0a071863          	bnez	a4,80005b40 <prvTimerTask+0x214>
80005a94:	ffe7f793          	andi	a5,a5,-2
80005a98:	02f40223          	sb	a5,36(s0)
80005a9c:	02042783          	lw	a5,32(s0)
80005aa0:	00040513          	mv	a0,s0
80005aa4:	000780e7          	jalr	a5
80005aa8:	f15ff06f          	j	800059bc <prvTimerTask+0x90>
80005aac:	02444783          	lbu	a5,36(s0)
80005ab0:	ffe7f793          	andi	a5,a5,-2
80005ab4:	02f40223          	sb	a5,36(s0)
80005ab8:	f05ff06f          	j	800059bc <prvTimerTask+0x90>
80005abc:	00412783          	lw	a5,4(sp)
80005ac0:	00c12583          	lw	a1,12(sp)
80005ac4:	00040513          	mv	a0,s0
80005ac8:	000780e7          	jalr	a5
80005acc:	00012783          	lw	a5,0(sp)
80005ad0:	ee07c6e3          	bltz	a5,800059bc <prvTimerTask+0x90>
80005ad4:	00812403          	lw	s0,8(sp)
80005ad8:	f05ff06f          	j	800059dc <prvTimerTask+0xb0>
80005adc:	ec1fd0ef          	jal	ra,8000399c <vTaskSuspendAll>
80005ae0:	ed1fd0ef          	jal	ra,800039b0 <xTaskGetTickCount>
80005ae4:	68c92783          	lw	a5,1676(s2)
80005ae8:	00050413          	mv	s0,a0
80005aec:	00f56e63          	bltu	a0,a5,80005b08 <prvTimerTask+0x1dc>
80005af0:	698b2783          	lw	a5,1688(s6) # 81000698 <__heap_start+0xfbfff7e8>
80005af4:	68892623          	sw	s0,1676(s2)
80005af8:	00000b93          	li	s7,0
80005afc:	0007a603          	lw	a2,0(a5)
80005b00:	00163613          	seqz	a2,a2
80005b04:	ea1ff06f          	j	800059a4 <prvTimerTask+0x78>
80005b08:	dcdff0ef          	jal	ra,800058d4 <prvSwitchTimerLists>
80005b0c:	68892623          	sw	s0,1676(s2)
80005b10:	b74fe0ef          	jal	ra,80003e84 <xTaskResumeAll>
80005b14:	ea9ff06f          	j	800059bc <prvTimerTask+0x90>
80005b18:	dbdff0ef          	jal	ra,800058d4 <prvSwitchTimerLists>
80005b1c:	ee1ff06f          	j	800059fc <prvTimerTask+0xd0>
80005b20:	b64fe0ef          	jal	ra,80003e84 <xTaskResumeAll>
80005b24:	00040593          	mv	a1,s0
80005b28:	000b8513          	mv	a0,s7
80005b2c:	d2dff0ef          	jal	ra,80005858 <prvProcessExpiredTimer>
80005b30:	e8dff06f          	j	800059bc <prvTimerTask+0x90>
80005b34:	00040513          	mv	a0,s0
80005b38:	b71ff0ef          	jal	ra,800056a8 <vPortFree>
80005b3c:	e81ff06f          	j	800059bc <prvTimerTask+0x90>
80005b40:	01842783          	lw	a5,24(s0)
80005b44:	00412583          	lw	a1,4(sp)
80005b48:	000b8613          	mv	a2,s7
80005b4c:	00040513          	mv	a0,s0
80005b50:	00f585b3          	add	a1,a1,a5
80005b54:	c99ff0ef          	jal	ra,800057ec <prvReloadTimer>
80005b58:	f45ff06f          	j	80005a9c <prvTimerTask+0x170>
80005b5c:	30047073          	csrci	mstatus,8
80005b60:	00100073          	ebreak
80005b64:	0000006f          	j	80005b64 <prvTimerTask+0x238>

80005b68 <xTimerCreateTimerTask>:
80005b68:	ff010113          	addi	sp,sp,-16
80005b6c:	00112623          	sw	ra,12(sp)
80005b70:	b6dff0ef          	jal	ra,800056dc <prvCheckForValidListAndQueue>
80005b74:	810007b7          	lui	a5,0x81000
80005b78:	6947a783          	lw	a5,1684(a5) # 81000694 <__heap_start+0xfbfff7e4>
80005b7c:	02078863          	beqz	a5,80005bac <xTimerCreateTimerTask+0x44>
80005b80:	810007b7          	lui	a5,0x81000
80005b84:	810005b7          	lui	a1,0x81000
80005b88:	80006537          	lui	a0,0x80006
80005b8c:	69078793          	addi	a5,a5,1680 # 81000690 <__heap_start+0xfbfff7e0>
80005b90:	00600713          	li	a4,6
80005b94:	00000693          	li	a3,0
80005b98:	06400613          	li	a2,100
80005b9c:	4c058593          	addi	a1,a1,1216 # 810004c0 <__heap_start+0xfbfff610>
80005ba0:	92c50513          	addi	a0,a0,-1748 # 8000592c <__heap_start+0xfb004a7c>
80005ba4:	8b0fd0ef          	jal	ra,80002c54 <xTaskCreate>
80005ba8:	00051863          	bnez	a0,80005bb8 <xTimerCreateTimerTask+0x50>
80005bac:	30047073          	csrci	mstatus,8
80005bb0:	00100073          	ebreak
80005bb4:	0000006f          	j	80005bb4 <xTimerCreateTimerTask+0x4c>
80005bb8:	00c12083          	lw	ra,12(sp)
80005bbc:	01010113          	addi	sp,sp,16
80005bc0:	00008067          	ret

80005bc4 <xTimerCreate>:
80005bc4:	fe010113          	addi	sp,sp,-32
80005bc8:	01512223          	sw	s5,4(sp)
80005bcc:	00050a93          	mv	s5,a0
80005bd0:	02800513          	li	a0,40
80005bd4:	00812c23          	sw	s0,24(sp)
80005bd8:	00912a23          	sw	s1,20(sp)
80005bdc:	01212823          	sw	s2,16(sp)
80005be0:	01312623          	sw	s3,12(sp)
80005be4:	01412423          	sw	s4,8(sp)
80005be8:	00112e23          	sw	ra,28(sp)
80005bec:	00058493          	mv	s1,a1
80005bf0:	00060913          	mv	s2,a2
80005bf4:	00068a13          	mv	s4,a3
80005bf8:	00070993          	mv	s3,a4
80005bfc:	a59ff0ef          	jal	ra,80005654 <pvPortMalloc>
80005c00:	00050413          	mv	s0,a0
80005c04:	04050263          	beqz	a0,80005c48 <xTimerCreate+0x84>
80005c08:	02050223          	sb	zero,36(a0)
80005c0c:	00049863          	bnez	s1,80005c1c <xTimerCreate+0x58>
80005c10:	30047073          	csrci	mstatus,8
80005c14:	00100073          	ebreak
80005c18:	0000006f          	j	80005c18 <xTimerCreate+0x54>
80005c1c:	ac1ff0ef          	jal	ra,800056dc <prvCheckForValidListAndQueue>
80005c20:	00440513          	addi	a0,s0,4
80005c24:	01542023          	sw	s5,0(s0)
80005c28:	00942c23          	sw	s1,24(s0)
80005c2c:	01442e23          	sw	s4,28(s0)
80005c30:	03342023          	sw	s3,32(s0)
80005c34:	f54fb0ef          	jal	ra,80001388 <vListInitialiseItem>
80005c38:	00090863          	beqz	s2,80005c48 <xTimerCreate+0x84>
80005c3c:	02444783          	lbu	a5,36(s0)
80005c40:	0047e793          	ori	a5,a5,4
80005c44:	02f40223          	sb	a5,36(s0)
80005c48:	00040513          	mv	a0,s0
80005c4c:	01c12083          	lw	ra,28(sp)
80005c50:	01812403          	lw	s0,24(sp)
80005c54:	01412483          	lw	s1,20(sp)
80005c58:	01012903          	lw	s2,16(sp)
80005c5c:	00c12983          	lw	s3,12(sp)
80005c60:	00812a03          	lw	s4,8(sp)
80005c64:	00412a83          	lw	s5,4(sp)
80005c68:	02010113          	addi	sp,sp,32
80005c6c:	00008067          	ret

80005c70 <xTimerGenericCommand>:
80005c70:	06050c63          	beqz	a0,80005ce8 <xTimerGenericCommand+0x78>
80005c74:	fe010113          	addi	sp,sp,-32
80005c78:	00812c23          	sw	s0,24(sp)
80005c7c:	81000437          	lui	s0,0x81000
80005c80:	69442883          	lw	a7,1684(s0) # 81000694 <__heap_start+0xfbfff7e4>
80005c84:	00112e23          	sw	ra,28(sp)
80005c88:	00912a23          	sw	s1,20(sp)
80005c8c:	00050813          	mv	a6,a0
80005c90:	00000513          	li	a0,0
80005c94:	04088063          	beqz	a7,80005cd4 <xTimerGenericCommand+0x64>
80005c98:	00070493          	mv	s1,a4
80005c9c:	00b12023          	sw	a1,0(sp)
80005ca0:	00068713          	mv	a4,a3
80005ca4:	00c12223          	sw	a2,4(sp)
80005ca8:	01012423          	sw	a6,8(sp)
80005cac:	00500693          	li	a3,5
80005cb0:	04b6c263          	blt	a3,a1,80005cf4 <xTimerGenericCommand+0x84>
80005cb4:	bc9fe0ef          	jal	ra,8000487c <xTaskGetSchedulerState>
80005cb8:	00200793          	li	a5,2
80005cbc:	06f50063          	beq	a0,a5,80005d1c <xTimerGenericCommand+0xac>
80005cc0:	69442503          	lw	a0,1684(s0)
80005cc4:	00000693          	li	a3,0
80005cc8:	00000613          	li	a2,0
80005ccc:	00010593          	mv	a1,sp
80005cd0:	c69fb0ef          	jal	ra,80001938 <xQueueGenericSend>
80005cd4:	01c12083          	lw	ra,28(sp)
80005cd8:	01812403          	lw	s0,24(sp)
80005cdc:	01412483          	lw	s1,20(sp)
80005ce0:	02010113          	addi	sp,sp,32
80005ce4:	00008067          	ret
80005ce8:	30047073          	csrci	mstatus,8
80005cec:	00100073          	ebreak
80005cf0:	0000006f          	j	80005cf0 <xTimerGenericCommand+0x80>
80005cf4:	00010593          	mv	a1,sp
80005cf8:	00000693          	li	a3,0
80005cfc:	00070613          	mv	a2,a4
80005d00:	00088513          	mv	a0,a7
80005d04:	ef9fb0ef          	jal	ra,80001bfc <xQueueGenericSendFromISR>
80005d08:	01c12083          	lw	ra,28(sp)
80005d0c:	01812403          	lw	s0,24(sp)
80005d10:	01412483          	lw	s1,20(sp)
80005d14:	02010113          	addi	sp,sp,32
80005d18:	00008067          	ret
80005d1c:	69442503          	lw	a0,1684(s0)
80005d20:	00000693          	li	a3,0
80005d24:	00048613          	mv	a2,s1
80005d28:	00010593          	mv	a1,sp
80005d2c:	c0dfb0ef          	jal	ra,80001938 <xQueueGenericSend>
80005d30:	fa5ff06f          	j	80005cd4 <xTimerGenericCommand+0x64>

80005d34 <xTimerGetTimerDaemonTaskHandle>:
80005d34:	810007b7          	lui	a5,0x81000
80005d38:	6907a503          	lw	a0,1680(a5) # 81000690 <__heap_start+0xfbfff7e0>
80005d3c:	00050463          	beqz	a0,80005d44 <xTimerGetTimerDaemonTaskHandle+0x10>
80005d40:	00008067          	ret
80005d44:	30047073          	csrci	mstatus,8
80005d48:	00100073          	ebreak
80005d4c:	0000006f          	j	80005d4c <xTimerGetTimerDaemonTaskHandle+0x18>

80005d50 <xTimerGetPeriod>:
80005d50:	00050663          	beqz	a0,80005d5c <xTimerGetPeriod+0xc>
80005d54:	01852503          	lw	a0,24(a0)
80005d58:	00008067          	ret
80005d5c:	30047073          	csrci	mstatus,8
80005d60:	00100073          	ebreak
80005d64:	0000006f          	j	80005d64 <xTimerGetPeriod+0x14>

80005d68 <vTimerSetReloadMode>:
80005d68:	06050063          	beqz	a0,80005dc8 <vTimerSetReloadMode+0x60>
80005d6c:	ff010113          	addi	sp,sp,-16
80005d70:	00812423          	sw	s0,8(sp)
80005d74:	00912223          	sw	s1,4(sp)
80005d78:	00050413          	mv	s0,a0
80005d7c:	00112623          	sw	ra,12(sp)
80005d80:	00058493          	mv	s1,a1
80005d84:	f19fe0ef          	jal	ra,80004c9c <vTaskEnterCritical>
80005d88:	02444783          	lbu	a5,36(s0)
80005d8c:	02049063          	bnez	s1,80005dac <vTimerSetReloadMode+0x44>
80005d90:	ffb7f793          	andi	a5,a5,-5
80005d94:	02f40223          	sb	a5,36(s0)
80005d98:	00812403          	lw	s0,8(sp)
80005d9c:	00c12083          	lw	ra,12(sp)
80005da0:	00412483          	lw	s1,4(sp)
80005da4:	01010113          	addi	sp,sp,16
80005da8:	f0dfe06f          	j	80004cb4 <vTaskExitCritical>
80005dac:	0047e793          	ori	a5,a5,4
80005db0:	02f40223          	sb	a5,36(s0)
80005db4:	00812403          	lw	s0,8(sp)
80005db8:	00c12083          	lw	ra,12(sp)
80005dbc:	00412483          	lw	s1,4(sp)
80005dc0:	01010113          	addi	sp,sp,16
80005dc4:	ef1fe06f          	j	80004cb4 <vTaskExitCritical>
80005dc8:	30047073          	csrci	mstatus,8
80005dcc:	00100073          	ebreak
80005dd0:	0000006f          	j	80005dd0 <vTimerSetReloadMode+0x68>

80005dd4 <uxTimerGetReloadMode>:
80005dd4:	02050e63          	beqz	a0,80005e10 <uxTimerGetReloadMode+0x3c>
80005dd8:	ff010113          	addi	sp,sp,-16
80005ddc:	00112623          	sw	ra,12(sp)
80005de0:	00812423          	sw	s0,8(sp)
80005de4:	00050413          	mv	s0,a0
80005de8:	eb5fe0ef          	jal	ra,80004c9c <vTaskEnterCritical>
80005dec:	02444503          	lbu	a0,36(s0)
80005df0:	00255513          	srli	a0,a0,0x2
80005df4:	00157413          	andi	s0,a0,1
80005df8:	ebdfe0ef          	jal	ra,80004cb4 <vTaskExitCritical>
80005dfc:	00040513          	mv	a0,s0
80005e00:	00c12083          	lw	ra,12(sp)
80005e04:	00812403          	lw	s0,8(sp)
80005e08:	01010113          	addi	sp,sp,16
80005e0c:	00008067          	ret
80005e10:	30047073          	csrci	mstatus,8
80005e14:	00100073          	ebreak
80005e18:	0000006f          	j	80005e18 <uxTimerGetReloadMode+0x44>

80005e1c <xTimerGetExpiryTime>:
80005e1c:	00050663          	beqz	a0,80005e28 <xTimerGetExpiryTime+0xc>
80005e20:	00452503          	lw	a0,4(a0)
80005e24:	00008067          	ret
80005e28:	30047073          	csrci	mstatus,8
80005e2c:	00100073          	ebreak
80005e30:	0000006f          	j	80005e30 <xTimerGetExpiryTime+0x14>

80005e34 <pcTimerGetName>:
80005e34:	00050663          	beqz	a0,80005e40 <pcTimerGetName+0xc>
80005e38:	00052503          	lw	a0,0(a0)
80005e3c:	00008067          	ret
80005e40:	30047073          	csrci	mstatus,8
80005e44:	00100073          	ebreak
80005e48:	0000006f          	j	80005e48 <pcTimerGetName+0x14>

80005e4c <xTimerIsTimerActive>:
80005e4c:	02050c63          	beqz	a0,80005e84 <xTimerIsTimerActive+0x38>
80005e50:	ff010113          	addi	sp,sp,-16
80005e54:	00112623          	sw	ra,12(sp)
80005e58:	00812423          	sw	s0,8(sp)
80005e5c:	00050413          	mv	s0,a0
80005e60:	e3dfe0ef          	jal	ra,80004c9c <vTaskEnterCritical>
80005e64:	02444503          	lbu	a0,36(s0)
80005e68:	00157413          	andi	s0,a0,1
80005e6c:	e49fe0ef          	jal	ra,80004cb4 <vTaskExitCritical>
80005e70:	00040513          	mv	a0,s0
80005e74:	00c12083          	lw	ra,12(sp)
80005e78:	00812403          	lw	s0,8(sp)
80005e7c:	01010113          	addi	sp,sp,16
80005e80:	00008067          	ret
80005e84:	30047073          	csrci	mstatus,8
80005e88:	00100073          	ebreak
80005e8c:	0000006f          	j	80005e8c <xTimerIsTimerActive+0x40>

80005e90 <pvTimerGetTimerID>:
80005e90:	02050a63          	beqz	a0,80005ec4 <pvTimerGetTimerID+0x34>
80005e94:	ff010113          	addi	sp,sp,-16
80005e98:	00812423          	sw	s0,8(sp)
80005e9c:	00050413          	mv	s0,a0
80005ea0:	00112623          	sw	ra,12(sp)
80005ea4:	df9fe0ef          	jal	ra,80004c9c <vTaskEnterCritical>
80005ea8:	01c42403          	lw	s0,28(s0)
80005eac:	e09fe0ef          	jal	ra,80004cb4 <vTaskExitCritical>
80005eb0:	00c12083          	lw	ra,12(sp)
80005eb4:	00040513          	mv	a0,s0
80005eb8:	00812403          	lw	s0,8(sp)
80005ebc:	01010113          	addi	sp,sp,16
80005ec0:	00008067          	ret
80005ec4:	30047073          	csrci	mstatus,8
80005ec8:	00100073          	ebreak
80005ecc:	0000006f          	j	80005ecc <pvTimerGetTimerID+0x3c>

80005ed0 <vTimerSetTimerID>:
80005ed0:	02050c63          	beqz	a0,80005f08 <vTimerSetTimerID+0x38>
80005ed4:	ff010113          	addi	sp,sp,-16
80005ed8:	00812423          	sw	s0,8(sp)
80005edc:	00912223          	sw	s1,4(sp)
80005ee0:	00058413          	mv	s0,a1
80005ee4:	00050493          	mv	s1,a0
80005ee8:	00112623          	sw	ra,12(sp)
80005eec:	db1fe0ef          	jal	ra,80004c9c <vTaskEnterCritical>
80005ef0:	0084ae23          	sw	s0,28(s1)
80005ef4:	00812403          	lw	s0,8(sp)
80005ef8:	00c12083          	lw	ra,12(sp)
80005efc:	00412483          	lw	s1,4(sp)
80005f00:	01010113          	addi	sp,sp,16
80005f04:	db1fe06f          	j	80004cb4 <vTaskExitCritical>
80005f08:	30047073          	csrci	mstatus,8
80005f0c:	00100073          	ebreak
80005f10:	0000006f          	j	80005f10 <vTimerSetTimerID+0x40>

80005f14 <xTimerPendFunctionCallFromISR>:
80005f14:	fe010113          	addi	sp,sp,-32
80005f18:	810007b7          	lui	a5,0x81000
80005f1c:	00a12223          	sw	a0,4(sp)
80005f20:	6947a503          	lw	a0,1684(a5) # 81000694 <__heap_start+0xfbfff7e4>
80005f24:	00068793          	mv	a5,a3
80005f28:	00b12423          	sw	a1,8(sp)
80005f2c:	00c12623          	sw	a2,12(sp)
80005f30:	00010593          	mv	a1,sp
80005f34:	00078613          	mv	a2,a5
80005f38:	00000693          	li	a3,0
80005f3c:	ffe00793          	li	a5,-2
80005f40:	00112e23          	sw	ra,28(sp)
80005f44:	00f12023          	sw	a5,0(sp)
80005f48:	cb5fb0ef          	jal	ra,80001bfc <xQueueGenericSendFromISR>
80005f4c:	01c12083          	lw	ra,28(sp)
80005f50:	02010113          	addi	sp,sp,32
80005f54:	00008067          	ret

80005f58 <xTimerPendFunctionCall>:
80005f58:	810007b7          	lui	a5,0x81000
80005f5c:	6947a883          	lw	a7,1684(a5) # 81000694 <__heap_start+0xfbfff7e4>
80005f60:	04088663          	beqz	a7,80005fac <xTimerPendFunctionCall+0x54>
80005f64:	fe010113          	addi	sp,sp,-32
80005f68:	00060793          	mv	a5,a2
80005f6c:	00058713          	mv	a4,a1
80005f70:	00050813          	mv	a6,a0
80005f74:	00068613          	mv	a2,a3
80005f78:	00010593          	mv	a1,sp
80005f7c:	00088513          	mv	a0,a7
80005f80:	00000693          	li	a3,0
80005f84:	fff00893          	li	a7,-1
80005f88:	00112e23          	sw	ra,28(sp)
80005f8c:	01112023          	sw	a7,0(sp)
80005f90:	01012223          	sw	a6,4(sp)
80005f94:	00e12423          	sw	a4,8(sp)
80005f98:	00f12623          	sw	a5,12(sp)
80005f9c:	99dfb0ef          	jal	ra,80001938 <xQueueGenericSend>
80005fa0:	01c12083          	lw	ra,28(sp)
80005fa4:	02010113          	addi	sp,sp,32
80005fa8:	00008067          	ret
80005fac:	30047073          	csrci	mstatus,8
80005fb0:	00100073          	ebreak
80005fb4:	0000006f          	j	80005fb4 <xTimerPendFunctionCall+0x5c>

80005fb8 <vPortSetupTimerInterrupt>:
80005fb8:	ff010113          	addi	sp,sp,-16
80005fbc:	f14027f3          	csrr	a5,mhartid
80005fc0:	00f12623          	sw	a5,12(sp)
80005fc4:	00c12583          	lw	a1,12(sp)
80005fc8:	1e0007b7          	lui	a5,0x1e000
80005fcc:	00178793          	addi	a5,a5,1 # 1e000001 <__heap_size+0x1a000001>
80005fd0:	00f585b3          	add	a1,a1,a5
80005fd4:	00359593          	slli	a1,a1,0x3
80005fd8:	810007b7          	lui	a5,0x81000
80005fdc:	6ab7a023          	sw	a1,1696(a5) # 810006a0 <__heap_start+0xfbfff7f0>
80005fe0:	f00007b7          	lui	a5,0xf0000
80005fe4:	0047a683          	lw	a3,4(a5) # f0000004 <__heap_start+0x6afff154>
80005fe8:	0007a603          	lw	a2,0(a5)
80005fec:	0047a703          	lw	a4,4(a5)
80005ff0:	fed71ae3          	bne	a4,a3,80005fe4 <vPortSetupTimerInterrupt+0x2c>
80005ff4:	00460793          	addi	a5,a2,4
80005ff8:	00c7b533          	sltu	a0,a5,a2
80005ffc:	00860693          	addi	a3,a2,8
80006000:	00f5a023          	sw	a5,0(a1)
80006004:	00e508b3          	add	a7,a0,a4
80006008:	00c6b633          	sltu	a2,a3,a2
8000600c:	0115a223          	sw	a7,4(a1)
80006010:	810007b7          	lui	a5,0x81000
80006014:	00e60733          	add	a4,a2,a4
80006018:	6ad7a423          	sw	a3,1704(a5) # 810006a8 <__heap_start+0xfbfff7f8>
8000601c:	6ae7a623          	sw	a4,1708(a5)
80006020:	01010113          	addi	sp,sp,16
80006024:	00008067          	ret

80006028 <xPortStartScheduler>:
80006028:	fe010113          	addi	sp,sp,-32
8000602c:	00112e23          	sw	ra,28(sp)
80006030:	00012623          	sw	zero,12(sp)
80006034:	305027f3          	csrr	a5,mtvec
80006038:	00f12623          	sw	a5,12(sp)
8000603c:	00c12783          	lw	a5,12(sp)
80006040:	0037f793          	andi	a5,a5,3
80006044:	00078863          	beqz	a5,80006054 <xPortStartScheduler+0x2c>
80006048:	30047073          	csrci	mstatus,8
8000604c:	00100073          	ebreak
80006050:	0000006f          	j	80006050 <xPortStartScheduler+0x28>
80006054:	810017b7          	lui	a5,0x81001
80006058:	eb078793          	addi	a5,a5,-336 # 81000eb0 <__heap_start+0xfc000000>
8000605c:	00f7f793          	andi	a5,a5,15
80006060:	00078863          	beqz	a5,80006070 <xPortStartScheduler+0x48>
80006064:	30047073          	csrci	mstatus,8
80006068:	00100073          	ebreak
8000606c:	0000006f          	j	8000606c <xPortStartScheduler+0x44>
80006070:	f49ff0ef          	jal	ra,80005fb8 <vPortSetupTimerInterrupt>
80006074:	000017b7          	lui	a5,0x1
80006078:	88078793          	addi	a5,a5,-1920 # 880 <__stack_size+0x80>
8000607c:	3047a073          	csrs	mie,a5
80006080:	280000ef          	jal	ra,80006300 <xPortStartFirstTask>
80006084:	01c12083          	lw	ra,28(sp)
80006088:	00000513          	li	a0,0
8000608c:	02010113          	addi	sp,sp,32
80006090:	00008067          	ret

80006094 <vPortEndScheduler>:
80006094:	0000006f          	j	80006094 <vPortEndScheduler>
	...

80006100 <freertos_risc_v_trap_handler>:
80006100:	f8810113          	addi	sp,sp,-120
80006104:	00112223          	sw	ra,4(sp)
80006108:	00512423          	sw	t0,8(sp)
8000610c:	00612623          	sw	t1,12(sp)
80006110:	00712823          	sw	t2,16(sp)
80006114:	00812a23          	sw	s0,20(sp)
80006118:	00912c23          	sw	s1,24(sp)
8000611c:	00a12e23          	sw	a0,28(sp)
80006120:	02b12023          	sw	a1,32(sp)
80006124:	02c12223          	sw	a2,36(sp)
80006128:	02d12423          	sw	a3,40(sp)
8000612c:	02e12623          	sw	a4,44(sp)
80006130:	02f12823          	sw	a5,48(sp)
80006134:	03012a23          	sw	a6,52(sp)
80006138:	03112c23          	sw	a7,56(sp)
8000613c:	03212e23          	sw	s2,60(sp)
80006140:	05312023          	sw	s3,64(sp)
80006144:	05412223          	sw	s4,68(sp)
80006148:	05512423          	sw	s5,72(sp)
8000614c:	05612623          	sw	s6,76(sp)
80006150:	05712823          	sw	s7,80(sp)
80006154:	05812a23          	sw	s8,84(sp)
80006158:	05912c23          	sw	s9,88(sp)
8000615c:	05a12e23          	sw	s10,92(sp)
80006160:	07b12023          	sw	s11,96(sp)
80006164:	07c12223          	sw	t3,100(sp)
80006168:	07d12423          	sw	t4,104(sp)
8000616c:	07e12623          	sw	t5,108(sp)
80006170:	07f12823          	sw	t6,112(sp)
80006174:	300022f3          	csrr	t0,mstatus
80006178:	06512a23          	sw	t0,116(sp)
8000617c:	00ffa297          	auipc	t0,0xffa
80006180:	50c2a283          	lw	t0,1292(t0) # 81000688 <pxCurrentTCB>
80006184:	0022a023          	sw	sp,0(t0)
80006188:	34202573          	csrr	a0,mcause
8000618c:	341025f3          	csrr	a1,mepc

80006190 <test_if_asynchronous>:
80006190:	01f55613          	srli	a2,a0,0x1f
80006194:	08060663          	beqz	a2,80006220 <handle_synchronous>
80006198:	00b12023          	sw	a1,0(sp)

8000619c <handle_asynchronous>:
8000619c:	00100293          	li	t0,1
800061a0:	01f29293          	slli	t0,t0,0x1f
800061a4:	00728313          	addi	t1,t0,7
800061a8:	06651063          	bne	a0,t1,80006208 <test_if_external_interrupt>
800061ac:	00ffa297          	auipc	t0,0xffa
800061b0:	4f42a283          	lw	t0,1268(t0) # 810006a0 <pullMachineTimerCompareRegister>
800061b4:	00ffa317          	auipc	t1,0xffa
800061b8:	48432303          	lw	t1,1156(t1) # 81000638 <pullNextTime>
800061bc:	fff00e93          	li	t4,-1
800061c0:	00032383          	lw	t2,0(t1)
800061c4:	00432e03          	lw	t3,4(t1)
800061c8:	01d2a023          	sw	t4,0(t0)
800061cc:	01c2a223          	sw	t3,4(t0)
800061d0:	0072a023          	sw	t2,0(t0)
800061d4:	00002297          	auipc	t0,0x2
800061d8:	ae02a283          	lw	t0,-1312(t0) # 80007cb4 <uxTimerIncrementsForOneTick>
800061dc:	00728eb3          	add	t4,t0,t2
800061e0:	007ebf33          	sltu	t5,t4,t2
800061e4:	01ee0fb3          	add	t6,t3,t5
800061e8:	01d32023          	sw	t4,0(t1)
800061ec:	01f32223          	sw	t6,4(t1)
800061f0:	00002117          	auipc	sp,0x2
800061f4:	ac812103          	lw	sp,-1336(sp) # 80007cb8 <xISRStackTop>
800061f8:	801fd0ef          	jal	ra,800039f8 <xTaskIncrementTick>
800061fc:	04050e63          	beqz	a0,80006258 <processed_source>
80006200:	8a8fe0ef          	jal	ra,800042a8 <vTaskSwitchContext>
80006204:	0540006f          	j	80006258 <processed_source>

80006208 <test_if_external_interrupt>:
80006208:	00430313          	addi	t1,t1,4
8000620c:	04651263          	bne	a0,t1,80006250 <as_yet_unhandled>
80006210:	00002117          	auipc	sp,0x2
80006214:	aa812103          	lw	sp,-1368(sp) # 80007cb8 <xISRStackTop>
80006218:	9b4fa0ef          	jal	ra,800003cc <vExternalISR>
8000621c:	03c0006f          	j	80006258 <processed_source>

80006220 <handle_synchronous>:
80006220:	00458593          	addi	a1,a1,4
80006224:	00b12023          	sw	a1,0(sp)

80006228 <test_if_environment_call>:
80006228:	00b00293          	li	t0,11
8000622c:	00551a63          	bne	a0,t0,80006240 <is_exception>
80006230:	00002117          	auipc	sp,0x2
80006234:	a8812103          	lw	sp,-1400(sp) # 80007cb8 <xISRStackTop>
80006238:	870fe0ef          	jal	ra,800042a8 <vTaskSwitchContext>
8000623c:	01c0006f          	j	80006258 <processed_source>

80006240 <is_exception>:
80006240:	342022f3          	csrr	t0,mcause
80006244:	34102373          	csrr	t1,mepc
80006248:	300023f3          	csrr	t2,mstatus
8000624c:	ff5ff06f          	j	80006240 <is_exception>

80006250 <as_yet_unhandled>:
80006250:	342022f3          	csrr	t0,mcause
80006254:	ffdff06f          	j	80006250 <as_yet_unhandled>

80006258 <processed_source>:
80006258:	00ffa317          	auipc	t1,0xffa
8000625c:	43032303          	lw	t1,1072(t1) # 81000688 <pxCurrentTCB>
80006260:	00032103          	lw	sp,0(t1)
80006264:	00012283          	lw	t0,0(sp)
80006268:	34129073          	csrw	mepc,t0
8000626c:	07412283          	lw	t0,116(sp)
80006270:	30029073          	csrw	mstatus,t0
80006274:	00412083          	lw	ra,4(sp)
80006278:	00812283          	lw	t0,8(sp)
8000627c:	00c12303          	lw	t1,12(sp)
80006280:	01012383          	lw	t2,16(sp)
80006284:	01412403          	lw	s0,20(sp)
80006288:	01812483          	lw	s1,24(sp)
8000628c:	01c12503          	lw	a0,28(sp)
80006290:	02012583          	lw	a1,32(sp)
80006294:	02412603          	lw	a2,36(sp)
80006298:	02812683          	lw	a3,40(sp)
8000629c:	02c12703          	lw	a4,44(sp)
800062a0:	03012783          	lw	a5,48(sp)
800062a4:	03412803          	lw	a6,52(sp)
800062a8:	03812883          	lw	a7,56(sp)
800062ac:	03c12903          	lw	s2,60(sp)
800062b0:	04012983          	lw	s3,64(sp)
800062b4:	04412a03          	lw	s4,68(sp)
800062b8:	04812a83          	lw	s5,72(sp)
800062bc:	04c12b03          	lw	s6,76(sp)
800062c0:	05012b83          	lw	s7,80(sp)
800062c4:	05412c03          	lw	s8,84(sp)
800062c8:	05812c83          	lw	s9,88(sp)
800062cc:	05c12d03          	lw	s10,92(sp)
800062d0:	06012d83          	lw	s11,96(sp)
800062d4:	06412e03          	lw	t3,100(sp)
800062d8:	06812e83          	lw	t4,104(sp)
800062dc:	06c12f03          	lw	t5,108(sp)
800062e0:	07012f83          	lw	t6,112(sp)
800062e4:	07810113          	addi	sp,sp,120
800062e8:	30200073          	mret
800062ec:	00000013          	nop
800062f0:	00000013          	nop
800062f4:	00000013          	nop
800062f8:	00000013          	nop
800062fc:	00000013          	nop

80006300 <xPortStartFirstTask>:
80006300:	00000297          	auipc	t0,0x0
80006304:	e0028293          	addi	t0,t0,-512 # 80006100 <freertos_risc_v_trap_handler>
80006308:	30529073          	csrw	mtvec,t0
8000630c:	00ffa117          	auipc	sp,0xffa
80006310:	37c12103          	lw	sp,892(sp) # 81000688 <pxCurrentTCB>
80006314:	00012103          	lw	sp,0(sp)
80006318:	00012083          	lw	ra,0(sp)
8000631c:	00c12303          	lw	t1,12(sp)
80006320:	01012383          	lw	t2,16(sp)
80006324:	01412403          	lw	s0,20(sp)
80006328:	01812483          	lw	s1,24(sp)
8000632c:	01c12503          	lw	a0,28(sp)
80006330:	02012583          	lw	a1,32(sp)
80006334:	02412603          	lw	a2,36(sp)
80006338:	02812683          	lw	a3,40(sp)
8000633c:	02c12703          	lw	a4,44(sp)
80006340:	03012783          	lw	a5,48(sp)
80006344:	03412803          	lw	a6,52(sp)
80006348:	03812883          	lw	a7,56(sp)
8000634c:	03c12903          	lw	s2,60(sp)
80006350:	04012983          	lw	s3,64(sp)
80006354:	04412a03          	lw	s4,68(sp)
80006358:	04812a83          	lw	s5,72(sp)
8000635c:	04c12b03          	lw	s6,76(sp)
80006360:	05012b83          	lw	s7,80(sp)
80006364:	05412c03          	lw	s8,84(sp)
80006368:	05812c83          	lw	s9,88(sp)
8000636c:	05c12d03          	lw	s10,92(sp)
80006370:	06012d83          	lw	s11,96(sp)
80006374:	06412e03          	lw	t3,100(sp)
80006378:	06812e83          	lw	t4,104(sp)
8000637c:	06c12f03          	lw	t5,108(sp)
80006380:	07012f83          	lw	t6,112(sp)
80006384:	07412283          	lw	t0,116(sp)
80006388:	00828293          	addi	t0,t0,8
8000638c:	30029073          	csrw	mstatus,t0
80006390:	00812283          	lw	t0,8(sp)
80006394:	07810113          	addi	sp,sp,120
80006398:	00008067          	ret
8000639c:	00000013          	nop
800063a0:	00000013          	nop
800063a4:	00000013          	nop
800063a8:	00000013          	nop
800063ac:	00000013          	nop
800063b0:	00000013          	nop
800063b4:	00000013          	nop
800063b8:	00000013          	nop
800063bc:	00000013          	nop
800063c0:	00000013          	nop
800063c4:	00000013          	nop
800063c8:	00000013          	nop
800063cc:	00000013          	nop
800063d0:	00000013          	nop
800063d4:	00000013          	nop
800063d8:	00000013          	nop
800063dc:	00000013          	nop
800063e0:	00000013          	nop
800063e4:	00000013          	nop
800063e8:	00000013          	nop
800063ec:	00000013          	nop
800063f0:	00000013          	nop
800063f4:	00000013          	nop
800063f8:	00000013          	nop
800063fc:	00000013          	nop

80006400 <pxPortInitialiseStack>:
80006400:	300022f3          	csrr	t0,mstatus
80006404:	ff72f293          	andi	t0,t0,-9
80006408:	18800313          	li	t1,392
8000640c:	00431313          	slli	t1,t1,0x4
80006410:	0062e2b3          	or	t0,t0,t1
80006414:	ffc50513          	addi	a0,a0,-4
80006418:	00552023          	sw	t0,0(a0)
8000641c:	fa850513          	addi	a0,a0,-88
80006420:	00c52023          	sw	a2,0(a0)
80006424:	fe850513          	addi	a0,a0,-24
80006428:	00052023          	sw	zero,0(a0)
8000642c:	00000293          	li	t0,0

80006430 <chip_specific_stack_frame>:
80006430:	00028a63          	beqz	t0,80006444 <chip_specific_stack_frame+0x14>
80006434:	ffc50513          	addi	a0,a0,-4
80006438:	00052023          	sw	zero,0(a0)
8000643c:	fff28293          	addi	t0,t0,-1
80006440:	ff1ff06f          	j	80006430 <chip_specific_stack_frame>
80006444:	ffc50513          	addi	a0,a0,-4
80006448:	00b52023          	sw	a1,0(a0)
8000644c:	00008067          	ret
	...

80006484 <__clzsi2>:
80006484:	000107b7          	lui	a5,0x10
80006488:	02f57a63          	bleu	a5,a0,800064bc <__clzsi2+0x38>
8000648c:	0ff00793          	li	a5,255
80006490:	00a7b7b3          	sltu	a5,a5,a0
80006494:	00379793          	slli	a5,a5,0x3
80006498:	02000713          	li	a4,32
8000649c:	40f70733          	sub	a4,a4,a5
800064a0:	00f557b3          	srl	a5,a0,a5
800064a4:	81000537          	lui	a0,0x81000
800064a8:	50450513          	addi	a0,a0,1284 # 81000504 <__heap_start+0xfbfff654>
800064ac:	00a787b3          	add	a5,a5,a0
800064b0:	0007c503          	lbu	a0,0(a5) # 10000 <__stack_size+0xf800>
800064b4:	40a70533          	sub	a0,a4,a0
800064b8:	00008067          	ret
800064bc:	01000737          	lui	a4,0x1000
800064c0:	01000793          	li	a5,16
800064c4:	fce56ae3          	bltu	a0,a4,80006498 <__clzsi2+0x14>
800064c8:	01800793          	li	a5,24
800064cc:	fcdff06f          	j	80006498 <__clzsi2+0x14>

800064d0 <__adddf3>:
800064d0:	00100837          	lui	a6,0x100
800064d4:	fff80813          	addi	a6,a6,-1 # fffff <__stack_size+0xff7ff>
800064d8:	00b878b3          	and	a7,a6,a1
800064dc:	00389893          	slli	a7,a7,0x3
800064e0:	01d55793          	srli	a5,a0,0x1d
800064e4:	fe010113          	addi	sp,sp,-32
800064e8:	0145d713          	srli	a4,a1,0x14
800064ec:	00d87833          	and	a6,a6,a3
800064f0:	0117e7b3          	or	a5,a5,a7
800064f4:	0146d893          	srli	a7,a3,0x14
800064f8:	00381813          	slli	a6,a6,0x3
800064fc:	00912a23          	sw	s1,20(sp)
80006500:	01212823          	sw	s2,16(sp)
80006504:	7ff77493          	andi	s1,a4,2047
80006508:	7ff8f893          	andi	a7,a7,2047
8000650c:	01d65713          	srli	a4,a2,0x1d
80006510:	00112e23          	sw	ra,28(sp)
80006514:	00812c23          	sw	s0,24(sp)
80006518:	01312623          	sw	s3,12(sp)
8000651c:	01f5d913          	srli	s2,a1,0x1f
80006520:	01f6d693          	srli	a3,a3,0x1f
80006524:	01076733          	or	a4,a4,a6
80006528:	00351513          	slli	a0,a0,0x3
8000652c:	00361613          	slli	a2,a2,0x3
80006530:	41148833          	sub	a6,s1,a7
80006534:	2cd91463          	bne	s2,a3,800067fc <__adddf3+0x32c>
80006538:	11005e63          	blez	a6,80006654 <__adddf3+0x184>
8000653c:	04089063          	bnez	a7,8000657c <__adddf3+0xac>
80006540:	00c766b3          	or	a3,a4,a2
80006544:	70068063          	beqz	a3,80006c44 <__adddf3+0x774>
80006548:	fff80593          	addi	a1,a6,-1
8000654c:	02059063          	bnez	a1,8000656c <__adddf3+0x9c>
80006550:	00c50633          	add	a2,a0,a2
80006554:	00a63533          	sltu	a0,a2,a0
80006558:	00e787b3          	add	a5,a5,a4
8000655c:	00a787b3          	add	a5,a5,a0
80006560:	00060513          	mv	a0,a2
80006564:	00100493          	li	s1,1
80006568:	0700006f          	j	800065d8 <__adddf3+0x108>
8000656c:	7ff00693          	li	a3,2047
80006570:	02d81063          	bne	a6,a3,80006590 <__adddf3+0xc0>
80006574:	7ff00493          	li	s1,2047
80006578:	20c0006f          	j	80006784 <__adddf3+0x2b4>
8000657c:	7ff00693          	li	a3,2047
80006580:	20d48263          	beq	s1,a3,80006784 <__adddf3+0x2b4>
80006584:	008006b7          	lui	a3,0x800
80006588:	00d76733          	or	a4,a4,a3
8000658c:	00080593          	mv	a1,a6
80006590:	03800693          	li	a3,56
80006594:	0ab6ca63          	blt	a3,a1,80006648 <__adddf3+0x178>
80006598:	01f00693          	li	a3,31
8000659c:	06b6cc63          	blt	a3,a1,80006614 <__adddf3+0x144>
800065a0:	02000813          	li	a6,32
800065a4:	40b80833          	sub	a6,a6,a1
800065a8:	010716b3          	sll	a3,a4,a6
800065ac:	00b658b3          	srl	a7,a2,a1
800065b0:	01061633          	sll	a2,a2,a6
800065b4:	0116e6b3          	or	a3,a3,a7
800065b8:	00c03633          	snez	a2,a2
800065bc:	00c6e633          	or	a2,a3,a2
800065c0:	00b75733          	srl	a4,a4,a1
800065c4:	00a60633          	add	a2,a2,a0
800065c8:	00f70733          	add	a4,a4,a5
800065cc:	00a637b3          	sltu	a5,a2,a0
800065d0:	00f707b3          	add	a5,a4,a5
800065d4:	00060513          	mv	a0,a2
800065d8:	00879713          	slli	a4,a5,0x8
800065dc:	1a075463          	bgez	a4,80006784 <__adddf3+0x2b4>
800065e0:	00148493          	addi	s1,s1,1
800065e4:	7ff00713          	li	a4,2047
800065e8:	5ce48463          	beq	s1,a4,80006bb0 <__adddf3+0x6e0>
800065ec:	ff8006b7          	lui	a3,0xff800
800065f0:	fff68693          	addi	a3,a3,-1 # ff7fffff <__heap_start+0x7a7ff14f>
800065f4:	00d7f6b3          	and	a3,a5,a3
800065f8:	00155593          	srli	a1,a0,0x1
800065fc:	00157513          	andi	a0,a0,1
80006600:	01f69793          	slli	a5,a3,0x1f
80006604:	00a5e533          	or	a0,a1,a0
80006608:	00a7e533          	or	a0,a5,a0
8000660c:	0016d793          	srli	a5,a3,0x1
80006610:	1740006f          	j	80006784 <__adddf3+0x2b4>
80006614:	fe058693          	addi	a3,a1,-32
80006618:	02000893          	li	a7,32
8000661c:	00d756b3          	srl	a3,a4,a3
80006620:	00000813          	li	a6,0
80006624:	01158863          	beq	a1,a7,80006634 <__adddf3+0x164>
80006628:	04000813          	li	a6,64
8000662c:	40b805b3          	sub	a1,a6,a1
80006630:	00b71833          	sll	a6,a4,a1
80006634:	00c86633          	or	a2,a6,a2
80006638:	00c03633          	snez	a2,a2
8000663c:	00c6e633          	or	a2,a3,a2
80006640:	00000713          	li	a4,0
80006644:	f81ff06f          	j	800065c4 <__adddf3+0xf4>
80006648:	00c76633          	or	a2,a4,a2
8000664c:	00c03633          	snez	a2,a2
80006650:	ff1ff06f          	j	80006640 <__adddf3+0x170>
80006654:	0e080263          	beqz	a6,80006738 <__adddf3+0x268>
80006658:	409885b3          	sub	a1,a7,s1
8000665c:	02049e63          	bnez	s1,80006698 <__adddf3+0x1c8>
80006660:	00a7e6b3          	or	a3,a5,a0
80006664:	52068663          	beqz	a3,80006b90 <__adddf3+0x6c0>
80006668:	fff58693          	addi	a3,a1,-1
8000666c:	00069c63          	bnez	a3,80006684 <__adddf3+0x1b4>
80006670:	00c50533          	add	a0,a0,a2
80006674:	00e787b3          	add	a5,a5,a4
80006678:	00c53633          	sltu	a2,a0,a2
8000667c:	00c787b3          	add	a5,a5,a2
80006680:	ee5ff06f          	j	80006564 <__adddf3+0x94>
80006684:	7ff00813          	li	a6,2047
80006688:	03059263          	bne	a1,a6,800066ac <__adddf3+0x1dc>
8000668c:	00070793          	mv	a5,a4
80006690:	00060513          	mv	a0,a2
80006694:	ee1ff06f          	j	80006574 <__adddf3+0xa4>
80006698:	7ff00693          	li	a3,2047
8000669c:	fed888e3          	beq	a7,a3,8000668c <__adddf3+0x1bc>
800066a0:	008006b7          	lui	a3,0x800
800066a4:	00d7e7b3          	or	a5,a5,a3
800066a8:	00058693          	mv	a3,a1
800066ac:	03800593          	li	a1,56
800066b0:	06d5ce63          	blt	a1,a3,8000672c <__adddf3+0x25c>
800066b4:	01f00593          	li	a1,31
800066b8:	04d5c063          	blt	a1,a3,800066f8 <__adddf3+0x228>
800066bc:	02000813          	li	a6,32
800066c0:	40d80833          	sub	a6,a6,a3
800066c4:	00d55333          	srl	t1,a0,a3
800066c8:	010795b3          	sll	a1,a5,a6
800066cc:	01051533          	sll	a0,a0,a6
800066d0:	0065e5b3          	or	a1,a1,t1
800066d4:	00a03533          	snez	a0,a0
800066d8:	00a5e533          	or	a0,a1,a0
800066dc:	00d7d6b3          	srl	a3,a5,a3
800066e0:	00c50533          	add	a0,a0,a2
800066e4:	00e687b3          	add	a5,a3,a4
800066e8:	00c53633          	sltu	a2,a0,a2
800066ec:	00c787b3          	add	a5,a5,a2
800066f0:	00088493          	mv	s1,a7
800066f4:	ee5ff06f          	j	800065d8 <__adddf3+0x108>
800066f8:	fe068593          	addi	a1,a3,-32 # 7fffe0 <__stack_size+0x7ff7e0>
800066fc:	02000313          	li	t1,32
80006700:	00b7d5b3          	srl	a1,a5,a1
80006704:	00000813          	li	a6,0
80006708:	00668863          	beq	a3,t1,80006718 <__adddf3+0x248>
8000670c:	04000813          	li	a6,64
80006710:	40d806b3          	sub	a3,a6,a3
80006714:	00d79833          	sll	a6,a5,a3
80006718:	00a86533          	or	a0,a6,a0
8000671c:	00a03533          	snez	a0,a0
80006720:	00a5e533          	or	a0,a1,a0
80006724:	00000693          	li	a3,0
80006728:	fb9ff06f          	j	800066e0 <__adddf3+0x210>
8000672c:	00a7e533          	or	a0,a5,a0
80006730:	00a03533          	snez	a0,a0
80006734:	ff1ff06f          	j	80006724 <__adddf3+0x254>
80006738:	00148693          	addi	a3,s1,1
8000673c:	7fe6f593          	andi	a1,a3,2046
80006740:	08059663          	bnez	a1,800067cc <__adddf3+0x2fc>
80006744:	00a7e6b3          	or	a3,a5,a0
80006748:	06049263          	bnez	s1,800067ac <__adddf3+0x2dc>
8000674c:	44068a63          	beqz	a3,80006ba0 <__adddf3+0x6d0>
80006750:	00c766b3          	or	a3,a4,a2
80006754:	02068863          	beqz	a3,80006784 <__adddf3+0x2b4>
80006758:	00c50633          	add	a2,a0,a2
8000675c:	00e787b3          	add	a5,a5,a4
80006760:	00a63533          	sltu	a0,a2,a0
80006764:	00a787b3          	add	a5,a5,a0
80006768:	00879713          	slli	a4,a5,0x8
8000676c:	00060513          	mv	a0,a2
80006770:	00075a63          	bgez	a4,80006784 <__adddf3+0x2b4>
80006774:	ff800737          	lui	a4,0xff800
80006778:	fff70713          	addi	a4,a4,-1 # ff7fffff <__heap_start+0x7a7ff14f>
8000677c:	00e7f7b3          	and	a5,a5,a4
80006780:	00100493          	li	s1,1
80006784:	00757713          	andi	a4,a0,7
80006788:	42070863          	beqz	a4,80006bb8 <__adddf3+0x6e8>
8000678c:	00f57713          	andi	a4,a0,15
80006790:	00400693          	li	a3,4
80006794:	42d70263          	beq	a4,a3,80006bb8 <__adddf3+0x6e8>
80006798:	00450693          	addi	a3,a0,4
8000679c:	00a6b533          	sltu	a0,a3,a0
800067a0:	00a787b3          	add	a5,a5,a0
800067a4:	00068513          	mv	a0,a3
800067a8:	4100006f          	j	80006bb8 <__adddf3+0x6e8>
800067ac:	ee0680e3          	beqz	a3,8000668c <__adddf3+0x1bc>
800067b0:	00c76633          	or	a2,a4,a2
800067b4:	dc0600e3          	beqz	a2,80006574 <__adddf3+0xa4>
800067b8:	00000913          	li	s2,0
800067bc:	004007b7          	lui	a5,0x400
800067c0:	00000513          	li	a0,0
800067c4:	7ff00493          	li	s1,2047
800067c8:	3f00006f          	j	80006bb8 <__adddf3+0x6e8>
800067cc:	7ff00593          	li	a1,2047
800067d0:	3cb68e63          	beq	a3,a1,80006bac <__adddf3+0x6dc>
800067d4:	00c50633          	add	a2,a0,a2
800067d8:	00e78733          	add	a4,a5,a4
800067dc:	00a637b3          	sltu	a5,a2,a0
800067e0:	00f70733          	add	a4,a4,a5
800067e4:	01f71513          	slli	a0,a4,0x1f
800067e8:	00165613          	srli	a2,a2,0x1
800067ec:	00c56533          	or	a0,a0,a2
800067f0:	00175793          	srli	a5,a4,0x1
800067f4:	00068493          	mv	s1,a3
800067f8:	f8dff06f          	j	80006784 <__adddf3+0x2b4>
800067fc:	0f005c63          	blez	a6,800068f4 <__adddf3+0x424>
80006800:	08089e63          	bnez	a7,8000689c <__adddf3+0x3cc>
80006804:	00c766b3          	or	a3,a4,a2
80006808:	42068e63          	beqz	a3,80006c44 <__adddf3+0x774>
8000680c:	fff80593          	addi	a1,a6,-1
80006810:	02059063          	bnez	a1,80006830 <__adddf3+0x360>
80006814:	40c50633          	sub	a2,a0,a2
80006818:	00c53533          	sltu	a0,a0,a2
8000681c:	40e787b3          	sub	a5,a5,a4
80006820:	40a787b3          	sub	a5,a5,a0
80006824:	00060513          	mv	a0,a2
80006828:	00100493          	li	s1,1
8000682c:	0540006f          	j	80006880 <__adddf3+0x3b0>
80006830:	7ff00693          	li	a3,2047
80006834:	d4d800e3          	beq	a6,a3,80006574 <__adddf3+0xa4>
80006838:	03800693          	li	a3,56
8000683c:	0ab6c663          	blt	a3,a1,800068e8 <__adddf3+0x418>
80006840:	01f00693          	li	a3,31
80006844:	06b6c863          	blt	a3,a1,800068b4 <__adddf3+0x3e4>
80006848:	02000813          	li	a6,32
8000684c:	40b80833          	sub	a6,a6,a1
80006850:	010716b3          	sll	a3,a4,a6
80006854:	00b658b3          	srl	a7,a2,a1
80006858:	01061633          	sll	a2,a2,a6
8000685c:	0116e6b3          	or	a3,a3,a7
80006860:	00c03633          	snez	a2,a2
80006864:	00c6e633          	or	a2,a3,a2
80006868:	00b75733          	srl	a4,a4,a1
8000686c:	40c50633          	sub	a2,a0,a2
80006870:	40e78733          	sub	a4,a5,a4
80006874:	00c537b3          	sltu	a5,a0,a2
80006878:	40f707b3          	sub	a5,a4,a5
8000687c:	00060513          	mv	a0,a2
80006880:	00879713          	slli	a4,a5,0x8
80006884:	f00750e3          	bgez	a4,80006784 <__adddf3+0x2b4>
80006888:	00800437          	lui	s0,0x800
8000688c:	fff40413          	addi	s0,s0,-1 # 7fffff <__stack_size+0x7ff7ff>
80006890:	0087f433          	and	s0,a5,s0
80006894:	00050993          	mv	s3,a0
80006898:	20c0006f          	j	80006aa4 <__adddf3+0x5d4>
8000689c:	7ff00693          	li	a3,2047
800068a0:	eed482e3          	beq	s1,a3,80006784 <__adddf3+0x2b4>
800068a4:	008006b7          	lui	a3,0x800
800068a8:	00d76733          	or	a4,a4,a3
800068ac:	00080593          	mv	a1,a6
800068b0:	f89ff06f          	j	80006838 <__adddf3+0x368>
800068b4:	fe058693          	addi	a3,a1,-32
800068b8:	02000893          	li	a7,32
800068bc:	00d756b3          	srl	a3,a4,a3
800068c0:	00000813          	li	a6,0
800068c4:	01158863          	beq	a1,a7,800068d4 <__adddf3+0x404>
800068c8:	04000813          	li	a6,64
800068cc:	40b805b3          	sub	a1,a6,a1
800068d0:	00b71833          	sll	a6,a4,a1
800068d4:	00c86633          	or	a2,a6,a2
800068d8:	00c03633          	snez	a2,a2
800068dc:	00c6e633          	or	a2,a3,a2
800068e0:	00000713          	li	a4,0
800068e4:	f89ff06f          	j	8000686c <__adddf3+0x39c>
800068e8:	00c76633          	or	a2,a4,a2
800068ec:	00c03633          	snez	a2,a2
800068f0:	ff1ff06f          	j	800068e0 <__adddf3+0x410>
800068f4:	0e080863          	beqz	a6,800069e4 <__adddf3+0x514>
800068f8:	40988833          	sub	a6,a7,s1
800068fc:	04049263          	bnez	s1,80006940 <__adddf3+0x470>
80006900:	00a7e5b3          	or	a1,a5,a0
80006904:	34058463          	beqz	a1,80006c4c <__adddf3+0x77c>
80006908:	fff80593          	addi	a1,a6,-1
8000690c:	00059e63          	bnez	a1,80006928 <__adddf3+0x458>
80006910:	40a60533          	sub	a0,a2,a0
80006914:	40f707b3          	sub	a5,a4,a5
80006918:	00a63633          	sltu	a2,a2,a0
8000691c:	40c787b3          	sub	a5,a5,a2
80006920:	00068913          	mv	s2,a3
80006924:	f05ff06f          	j	80006828 <__adddf3+0x358>
80006928:	7ff00313          	li	t1,2047
8000692c:	02681463          	bne	a6,t1,80006954 <__adddf3+0x484>
80006930:	00070793          	mv	a5,a4
80006934:	00060513          	mv	a0,a2
80006938:	7ff00493          	li	s1,2047
8000693c:	0d00006f          	j	80006a0c <__adddf3+0x53c>
80006940:	7ff00593          	li	a1,2047
80006944:	feb886e3          	beq	a7,a1,80006930 <__adddf3+0x460>
80006948:	008005b7          	lui	a1,0x800
8000694c:	00b7e7b3          	or	a5,a5,a1
80006950:	00080593          	mv	a1,a6
80006954:	03800813          	li	a6,56
80006958:	08b84063          	blt	a6,a1,800069d8 <__adddf3+0x508>
8000695c:	01f00813          	li	a6,31
80006960:	04b84263          	blt	a6,a1,800069a4 <__adddf3+0x4d4>
80006964:	02000313          	li	t1,32
80006968:	40b30333          	sub	t1,t1,a1
8000696c:	00b55e33          	srl	t3,a0,a1
80006970:	00679833          	sll	a6,a5,t1
80006974:	00651533          	sll	a0,a0,t1
80006978:	01c86833          	or	a6,a6,t3
8000697c:	00a03533          	snez	a0,a0
80006980:	00a86533          	or	a0,a6,a0
80006984:	00b7d5b3          	srl	a1,a5,a1
80006988:	40a60533          	sub	a0,a2,a0
8000698c:	40b707b3          	sub	a5,a4,a1
80006990:	00a63633          	sltu	a2,a2,a0
80006994:	40c787b3          	sub	a5,a5,a2
80006998:	00088493          	mv	s1,a7
8000699c:	00068913          	mv	s2,a3
800069a0:	ee1ff06f          	j	80006880 <__adddf3+0x3b0>
800069a4:	fe058813          	addi	a6,a1,-32 # 7fffe0 <__stack_size+0x7ff7e0>
800069a8:	02000e13          	li	t3,32
800069ac:	0107d833          	srl	a6,a5,a6
800069b0:	00000313          	li	t1,0
800069b4:	01c58863          	beq	a1,t3,800069c4 <__adddf3+0x4f4>
800069b8:	04000313          	li	t1,64
800069bc:	40b305b3          	sub	a1,t1,a1
800069c0:	00b79333          	sll	t1,a5,a1
800069c4:	00a36533          	or	a0,t1,a0
800069c8:	00a03533          	snez	a0,a0
800069cc:	00a86533          	or	a0,a6,a0
800069d0:	00000593          	li	a1,0
800069d4:	fb5ff06f          	j	80006988 <__adddf3+0x4b8>
800069d8:	00a7e533          	or	a0,a5,a0
800069dc:	00a03533          	snez	a0,a0
800069e0:	ff1ff06f          	j	800069d0 <__adddf3+0x500>
800069e4:	00148593          	addi	a1,s1,1
800069e8:	7fe5f593          	andi	a1,a1,2046
800069ec:	08059663          	bnez	a1,80006a78 <__adddf3+0x5a8>
800069f0:	00a7e833          	or	a6,a5,a0
800069f4:	00c765b3          	or	a1,a4,a2
800069f8:	06049063          	bnez	s1,80006a58 <__adddf3+0x588>
800069fc:	00081c63          	bnez	a6,80006a14 <__adddf3+0x544>
80006a00:	24058e63          	beqz	a1,80006c5c <__adddf3+0x78c>
80006a04:	00070793          	mv	a5,a4
80006a08:	00060513          	mv	a0,a2
80006a0c:	00068913          	mv	s2,a3
80006a10:	d75ff06f          	j	80006784 <__adddf3+0x2b4>
80006a14:	d60588e3          	beqz	a1,80006784 <__adddf3+0x2b4>
80006a18:	40c50833          	sub	a6,a0,a2
80006a1c:	010538b3          	sltu	a7,a0,a6
80006a20:	40e785b3          	sub	a1,a5,a4
80006a24:	411585b3          	sub	a1,a1,a7
80006a28:	00859893          	slli	a7,a1,0x8
80006a2c:	0008dc63          	bgez	a7,80006a44 <__adddf3+0x574>
80006a30:	40a60533          	sub	a0,a2,a0
80006a34:	40f707b3          	sub	a5,a4,a5
80006a38:	00a63633          	sltu	a2,a2,a0
80006a3c:	40c787b3          	sub	a5,a5,a2
80006a40:	fcdff06f          	j	80006a0c <__adddf3+0x53c>
80006a44:	00b86533          	or	a0,a6,a1
80006a48:	22050263          	beqz	a0,80006c6c <__adddf3+0x79c>
80006a4c:	00058793          	mv	a5,a1
80006a50:	00080513          	mv	a0,a6
80006a54:	d31ff06f          	j	80006784 <__adddf3+0x2b4>
80006a58:	00081c63          	bnez	a6,80006a70 <__adddf3+0x5a0>
80006a5c:	20058c63          	beqz	a1,80006c74 <__adddf3+0x7a4>
80006a60:	00070793          	mv	a5,a4
80006a64:	00060513          	mv	a0,a2
80006a68:	00068913          	mv	s2,a3
80006a6c:	b09ff06f          	j	80006574 <__adddf3+0xa4>
80006a70:	b00582e3          	beqz	a1,80006574 <__adddf3+0xa4>
80006a74:	d45ff06f          	j	800067b8 <__adddf3+0x2e8>
80006a78:	40c509b3          	sub	s3,a0,a2
80006a7c:	013535b3          	sltu	a1,a0,s3
80006a80:	40e78433          	sub	s0,a5,a4
80006a84:	40b40433          	sub	s0,s0,a1
80006a88:	00841593          	slli	a1,s0,0x8
80006a8c:	0805d463          	bgez	a1,80006b14 <__adddf3+0x644>
80006a90:	40a609b3          	sub	s3,a2,a0
80006a94:	40f707b3          	sub	a5,a4,a5
80006a98:	01363633          	sltu	a2,a2,s3
80006a9c:	40c78433          	sub	s0,a5,a2
80006aa0:	00068913          	mv	s2,a3
80006aa4:	08040263          	beqz	s0,80006b28 <__adddf3+0x658>
80006aa8:	00040513          	mv	a0,s0
80006aac:	9d9ff0ef          	jal	ra,80006484 <__clzsi2>
80006ab0:	ff850713          	addi	a4,a0,-8
80006ab4:	01f00793          	li	a5,31
80006ab8:	08e7c063          	blt	a5,a4,80006b38 <__adddf3+0x668>
80006abc:	02000793          	li	a5,32
80006ac0:	40e787b3          	sub	a5,a5,a4
80006ac4:	00e41433          	sll	s0,s0,a4
80006ac8:	00f9d7b3          	srl	a5,s3,a5
80006acc:	0087e433          	or	s0,a5,s0
80006ad0:	00e99533          	sll	a0,s3,a4
80006ad4:	0a974463          	blt	a4,s1,80006b7c <__adddf3+0x6ac>
80006ad8:	40970733          	sub	a4,a4,s1
80006adc:	00170793          	addi	a5,a4,1
80006ae0:	01f00693          	li	a3,31
80006ae4:	06f6c263          	blt	a3,a5,80006b48 <__adddf3+0x678>
80006ae8:	02000713          	li	a4,32
80006aec:	40f70733          	sub	a4,a4,a5
80006af0:	00f55633          	srl	a2,a0,a5
80006af4:	00e416b3          	sll	a3,s0,a4
80006af8:	00e51533          	sll	a0,a0,a4
80006afc:	00c6e6b3          	or	a3,a3,a2
80006b00:	00a03533          	snez	a0,a0
80006b04:	00a6e533          	or	a0,a3,a0
80006b08:	00f457b3          	srl	a5,s0,a5
80006b0c:	00000493          	li	s1,0
80006b10:	c75ff06f          	j	80006784 <__adddf3+0x2b4>
80006b14:	0089e533          	or	a0,s3,s0
80006b18:	f80516e3          	bnez	a0,80006aa4 <__adddf3+0x5d4>
80006b1c:	00000793          	li	a5,0
80006b20:	00000493          	li	s1,0
80006b24:	1400006f          	j	80006c64 <__adddf3+0x794>
80006b28:	00098513          	mv	a0,s3
80006b2c:	959ff0ef          	jal	ra,80006484 <__clzsi2>
80006b30:	02050513          	addi	a0,a0,32
80006b34:	f7dff06f          	j	80006ab0 <__adddf3+0x5e0>
80006b38:	fd850413          	addi	s0,a0,-40
80006b3c:	00899433          	sll	s0,s3,s0
80006b40:	00000513          	li	a0,0
80006b44:	f91ff06f          	j	80006ad4 <__adddf3+0x604>
80006b48:	fe170713          	addi	a4,a4,-31
80006b4c:	02000613          	li	a2,32
80006b50:	00e45733          	srl	a4,s0,a4
80006b54:	00000693          	li	a3,0
80006b58:	00c78863          	beq	a5,a2,80006b68 <__adddf3+0x698>
80006b5c:	04000693          	li	a3,64
80006b60:	40f686b3          	sub	a3,a3,a5
80006b64:	00d416b3          	sll	a3,s0,a3
80006b68:	00d56533          	or	a0,a0,a3
80006b6c:	00a03533          	snez	a0,a0
80006b70:	00a76533          	or	a0,a4,a0
80006b74:	00000793          	li	a5,0
80006b78:	f95ff06f          	j	80006b0c <__adddf3+0x63c>
80006b7c:	ff8007b7          	lui	a5,0xff800
80006b80:	fff78793          	addi	a5,a5,-1 # ff7fffff <__heap_start+0x7a7ff14f>
80006b84:	40e484b3          	sub	s1,s1,a4
80006b88:	00f477b3          	and	a5,s0,a5
80006b8c:	bf9ff06f          	j	80006784 <__adddf3+0x2b4>
80006b90:	00070793          	mv	a5,a4
80006b94:	00060513          	mv	a0,a2
80006b98:	00058493          	mv	s1,a1
80006b9c:	be9ff06f          	j	80006784 <__adddf3+0x2b4>
80006ba0:	00070793          	mv	a5,a4
80006ba4:	00060513          	mv	a0,a2
80006ba8:	bddff06f          	j	80006784 <__adddf3+0x2b4>
80006bac:	7ff00493          	li	s1,2047
80006bb0:	00000793          	li	a5,0
80006bb4:	00000513          	li	a0,0
80006bb8:	00879713          	slli	a4,a5,0x8
80006bbc:	00075e63          	bgez	a4,80006bd8 <__adddf3+0x708>
80006bc0:	00148493          	addi	s1,s1,1
80006bc4:	7ff00713          	li	a4,2047
80006bc8:	0ae48e63          	beq	s1,a4,80006c84 <__adddf3+0x7b4>
80006bcc:	ff800737          	lui	a4,0xff800
80006bd0:	fff70713          	addi	a4,a4,-1 # ff7fffff <__heap_start+0x7a7ff14f>
80006bd4:	00e7f7b3          	and	a5,a5,a4
80006bd8:	01d79713          	slli	a4,a5,0x1d
80006bdc:	00355513          	srli	a0,a0,0x3
80006be0:	00a76533          	or	a0,a4,a0
80006be4:	7ff00713          	li	a4,2047
80006be8:	0037d793          	srli	a5,a5,0x3
80006bec:	00e49e63          	bne	s1,a4,80006c08 <__adddf3+0x738>
80006bf0:	00f56533          	or	a0,a0,a5
80006bf4:	00000793          	li	a5,0
80006bf8:	00050863          	beqz	a0,80006c08 <__adddf3+0x738>
80006bfc:	000807b7          	lui	a5,0x80
80006c00:	00000513          	li	a0,0
80006c04:	00000913          	li	s2,0
80006c08:	7ff4f713          	andi	a4,s1,2047
80006c0c:	00c79793          	slli	a5,a5,0xc
80006c10:	01471713          	slli	a4,a4,0x14
80006c14:	01c12083          	lw	ra,28(sp)
80006c18:	01812403          	lw	s0,24(sp)
80006c1c:	00c7d793          	srli	a5,a5,0xc
80006c20:	01f91593          	slli	a1,s2,0x1f
80006c24:	00e7e7b3          	or	a5,a5,a4
80006c28:	00b7e733          	or	a4,a5,a1
80006c2c:	01412483          	lw	s1,20(sp)
80006c30:	01012903          	lw	s2,16(sp)
80006c34:	00c12983          	lw	s3,12(sp)
80006c38:	00070593          	mv	a1,a4
80006c3c:	02010113          	addi	sp,sp,32
80006c40:	00008067          	ret
80006c44:	00080493          	mv	s1,a6
80006c48:	b3dff06f          	j	80006784 <__adddf3+0x2b4>
80006c4c:	00070793          	mv	a5,a4
80006c50:	00060513          	mv	a0,a2
80006c54:	00080493          	mv	s1,a6
80006c58:	db5ff06f          	j	80006a0c <__adddf3+0x53c>
80006c5c:	00000793          	li	a5,0
80006c60:	00000513          	li	a0,0
80006c64:	00000913          	li	s2,0
80006c68:	f51ff06f          	j	80006bb8 <__adddf3+0x6e8>
80006c6c:	00000793          	li	a5,0
80006c70:	ff5ff06f          	j	80006c64 <__adddf3+0x794>
80006c74:	00000513          	li	a0,0
80006c78:	00000913          	li	s2,0
80006c7c:	004007b7          	lui	a5,0x400
80006c80:	b45ff06f          	j	800067c4 <__adddf3+0x2f4>
80006c84:	00000793          	li	a5,0
80006c88:	00000513          	li	a0,0
80006c8c:	f4dff06f          	j	80006bd8 <__adddf3+0x708>

80006c90 <__ledf2>:
80006c90:	0145d813          	srli	a6,a1,0x14
80006c94:	001007b7          	lui	a5,0x100
80006c98:	fff78793          	addi	a5,a5,-1 # fffff <__stack_size+0xff7ff>
80006c9c:	0146d713          	srli	a4,a3,0x14
80006ca0:	00050313          	mv	t1,a0
80006ca4:	00050e93          	mv	t4,a0
80006ca8:	7ff87813          	andi	a6,a6,2047
80006cac:	7ff00513          	li	a0,2047
80006cb0:	00b7f8b3          	and	a7,a5,a1
80006cb4:	00060f13          	mv	t5,a2
80006cb8:	00d7f7b3          	and	a5,a5,a3
80006cbc:	01f5d593          	srli	a1,a1,0x1f
80006cc0:	7ff77713          	andi	a4,a4,2047
80006cc4:	01f6d693          	srli	a3,a3,0x1f
80006cc8:	00a81a63          	bne	a6,a0,80006cdc <__ledf2+0x4c>
80006ccc:	0068ee33          	or	t3,a7,t1
80006cd0:	00200513          	li	a0,2
80006cd4:	080e0a63          	beqz	t3,80006d68 <__ledf2+0xd8>
80006cd8:	00008067          	ret
80006cdc:	00a71863          	bne	a4,a0,80006cec <__ledf2+0x5c>
80006ce0:	00c7ee33          	or	t3,a5,a2
80006ce4:	00200513          	li	a0,2
80006ce8:	020e1663          	bnez	t3,80006d14 <__ledf2+0x84>
80006cec:	08081063          	bnez	a6,80006d6c <__ledf2+0xdc>
80006cf0:	0068e533          	or	a0,a7,t1
80006cf4:	00153513          	seqz	a0,a0
80006cf8:	00071663          	bnez	a4,80006d04 <__ledf2+0x74>
80006cfc:	00c7e633          	or	a2,a5,a2
80006d00:	04060a63          	beqz	a2,80006d54 <__ledf2+0xc4>
80006d04:	00051a63          	bnez	a0,80006d18 <__ledf2+0x88>
80006d08:	00d58e63          	beq	a1,a3,80006d24 <__ledf2+0x94>
80006d0c:	00100513          	li	a0,1
80006d10:	00059663          	bnez	a1,80006d1c <__ledf2+0x8c>
80006d14:	00008067          	ret
80006d18:	fe069ee3          	bnez	a3,80006d14 <__ledf2+0x84>
80006d1c:	fff00513          	li	a0,-1
80006d20:	00008067          	ret
80006d24:	ff0744e3          	blt	a4,a6,80006d0c <__ledf2+0x7c>
80006d28:	00e85a63          	ble	a4,a6,80006d3c <__ledf2+0xac>
80006d2c:	fff00513          	li	a0,-1
80006d30:	fe0582e3          	beqz	a1,80006d14 <__ledf2+0x84>
80006d34:	00100513          	li	a0,1
80006d38:	00008067          	ret
80006d3c:	fd17e8e3          	bltu	a5,a7,80006d0c <__ledf2+0x7c>
80006d40:	02f89063          	bne	a7,a5,80006d60 <__ledf2+0xd0>
80006d44:	fddf64e3          	bltu	t5,t4,80006d0c <__ledf2+0x7c>
80006d48:	00000513          	li	a0,0
80006d4c:	fdeef4e3          	bleu	t5,t4,80006d14 <__ledf2+0x84>
80006d50:	fddff06f          	j	80006d2c <__ledf2+0x9c>
80006d54:	fa050ce3          	beqz	a0,80006d0c <__ledf2+0x7c>
80006d58:	00000513          	li	a0,0
80006d5c:	00008067          	ret
80006d60:	fcf8e6e3          	bltu	a7,a5,80006d2c <__ledf2+0x9c>
80006d64:	ff5ff06f          	j	80006d58 <__ledf2+0xc8>
80006d68:	f7070ce3          	beq	a4,a6,80006ce0 <__ledf2+0x50>
80006d6c:	f8071ee3          	bnez	a4,80006d08 <__ledf2+0x78>
80006d70:	00000513          	li	a0,0
80006d74:	f89ff06f          	j	80006cfc <__ledf2+0x6c>

80006d78 <__muldf3>:
80006d78:	fd010113          	addi	sp,sp,-48
80006d7c:	03212023          	sw	s2,32(sp)
80006d80:	0145d913          	srli	s2,a1,0x14
80006d84:	01312e23          	sw	s3,28(sp)
80006d88:	01412c23          	sw	s4,24(sp)
80006d8c:	01512a23          	sw	s5,20(sp)
80006d90:	01612823          	sw	s6,16(sp)
80006d94:	01712623          	sw	s7,12(sp)
80006d98:	00c59a93          	slli	s5,a1,0xc
80006d9c:	02112623          	sw	ra,44(sp)
80006da0:	02812423          	sw	s0,40(sp)
80006da4:	02912223          	sw	s1,36(sp)
80006da8:	7ff97913          	andi	s2,s2,2047
80006dac:	00050b13          	mv	s6,a0
80006db0:	00060b93          	mv	s7,a2
80006db4:	00068a13          	mv	s4,a3
80006db8:	00cada93          	srli	s5,s5,0xc
80006dbc:	01f5d993          	srli	s3,a1,0x1f
80006dc0:	0a090463          	beqz	s2,80006e68 <__muldf3+0xf0>
80006dc4:	7ff00793          	li	a5,2047
80006dc8:	10f90263          	beq	s2,a5,80006ecc <__muldf3+0x154>
80006dcc:	01d55413          	srli	s0,a0,0x1d
80006dd0:	003a9a93          	slli	s5,s5,0x3
80006dd4:	01546ab3          	or	s5,s0,s5
80006dd8:	00800437          	lui	s0,0x800
80006ddc:	008ae433          	or	s0,s5,s0
80006de0:	00351493          	slli	s1,a0,0x3
80006de4:	c0190913          	addi	s2,s2,-1023
80006de8:	00000b13          	li	s6,0
80006dec:	014a5513          	srli	a0,s4,0x14
80006df0:	00ca1a93          	slli	s5,s4,0xc
80006df4:	7ff57513          	andi	a0,a0,2047
80006df8:	000b8713          	mv	a4,s7
80006dfc:	00cada93          	srli	s5,s5,0xc
80006e00:	01fa5a13          	srli	s4,s4,0x1f
80006e04:	10050263          	beqz	a0,80006f08 <__muldf3+0x190>
80006e08:	7ff00793          	li	a5,2047
80006e0c:	16f50263          	beq	a0,a5,80006f70 <__muldf3+0x1f8>
80006e10:	01dbd793          	srli	a5,s7,0x1d
80006e14:	003a9a93          	slli	s5,s5,0x3
80006e18:	0157eab3          	or	s5,a5,s5
80006e1c:	008007b7          	lui	a5,0x800
80006e20:	00fae7b3          	or	a5,s5,a5
80006e24:	003b9713          	slli	a4,s7,0x3
80006e28:	c0150513          	addi	a0,a0,-1023
80006e2c:	00000693          	li	a3,0
80006e30:	002b1593          	slli	a1,s6,0x2
80006e34:	00d5e5b3          	or	a1,a1,a3
80006e38:	00a90533          	add	a0,s2,a0
80006e3c:	fff58593          	addi	a1,a1,-1
80006e40:	00e00893          	li	a7,14
80006e44:	0149c633          	xor	a2,s3,s4
80006e48:	00150813          	addi	a6,a0,1
80006e4c:	14b8ee63          	bltu	a7,a1,80006fa8 <__muldf3+0x230>
80006e50:	81000537          	lui	a0,0x81000
80006e54:	00259593          	slli	a1,a1,0x2
80006e58:	4c850513          	addi	a0,a0,1224 # 810004c8 <__heap_start+0xfbfff618>
80006e5c:	00a585b3          	add	a1,a1,a0
80006e60:	0005a583          	lw	a1,0(a1)
80006e64:	00058067          	jr	a1
80006e68:	00aae433          	or	s0,s5,a0
80006e6c:	06040e63          	beqz	s0,80006ee8 <__muldf3+0x170>
80006e70:	040a8063          	beqz	s5,80006eb0 <__muldf3+0x138>
80006e74:	000a8513          	mv	a0,s5
80006e78:	e0cff0ef          	jal	ra,80006484 <__clzsi2>
80006e7c:	ff550793          	addi	a5,a0,-11
80006e80:	01c00713          	li	a4,28
80006e84:	02f74c63          	blt	a4,a5,80006ebc <__muldf3+0x144>
80006e88:	01d00413          	li	s0,29
80006e8c:	ff850493          	addi	s1,a0,-8
80006e90:	40f40433          	sub	s0,s0,a5
80006e94:	009a9ab3          	sll	s5,s5,s1
80006e98:	008b5433          	srl	s0,s6,s0
80006e9c:	01546433          	or	s0,s0,s5
80006ea0:	009b14b3          	sll	s1,s6,s1
80006ea4:	c0d00913          	li	s2,-1011
80006ea8:	40a90933          	sub	s2,s2,a0
80006eac:	f3dff06f          	j	80006de8 <__muldf3+0x70>
80006eb0:	dd4ff0ef          	jal	ra,80006484 <__clzsi2>
80006eb4:	02050513          	addi	a0,a0,32
80006eb8:	fc5ff06f          	j	80006e7c <__muldf3+0x104>
80006ebc:	fd850413          	addi	s0,a0,-40
80006ec0:	008b1433          	sll	s0,s6,s0
80006ec4:	00000493          	li	s1,0
80006ec8:	fddff06f          	j	80006ea4 <__muldf3+0x12c>
80006ecc:	00aae433          	or	s0,s5,a0
80006ed0:	02040463          	beqz	s0,80006ef8 <__muldf3+0x180>
80006ed4:	00050493          	mv	s1,a0
80006ed8:	000a8413          	mv	s0,s5
80006edc:	7ff00913          	li	s2,2047
80006ee0:	00300b13          	li	s6,3
80006ee4:	f09ff06f          	j	80006dec <__muldf3+0x74>
80006ee8:	00000493          	li	s1,0
80006eec:	00000913          	li	s2,0
80006ef0:	00100b13          	li	s6,1
80006ef4:	ef9ff06f          	j	80006dec <__muldf3+0x74>
80006ef8:	00000493          	li	s1,0
80006efc:	7ff00913          	li	s2,2047
80006f00:	00200b13          	li	s6,2
80006f04:	ee9ff06f          	j	80006dec <__muldf3+0x74>
80006f08:	017ae7b3          	or	a5,s5,s7
80006f0c:	06078e63          	beqz	a5,80006f88 <__muldf3+0x210>
80006f10:	040a8063          	beqz	s5,80006f50 <__muldf3+0x1d8>
80006f14:	000a8513          	mv	a0,s5
80006f18:	d6cff0ef          	jal	ra,80006484 <__clzsi2>
80006f1c:	ff550693          	addi	a3,a0,-11
80006f20:	01c00793          	li	a5,28
80006f24:	02d7ce63          	blt	a5,a3,80006f60 <__muldf3+0x1e8>
80006f28:	01d00793          	li	a5,29
80006f2c:	ff850713          	addi	a4,a0,-8
80006f30:	40d787b3          	sub	a5,a5,a3
80006f34:	00ea9ab3          	sll	s5,s5,a4
80006f38:	00fbd7b3          	srl	a5,s7,a5
80006f3c:	0157e7b3          	or	a5,a5,s5
80006f40:	00eb9733          	sll	a4,s7,a4
80006f44:	c0d00613          	li	a2,-1011
80006f48:	40a60533          	sub	a0,a2,a0
80006f4c:	ee1ff06f          	j	80006e2c <__muldf3+0xb4>
80006f50:	000b8513          	mv	a0,s7
80006f54:	d30ff0ef          	jal	ra,80006484 <__clzsi2>
80006f58:	02050513          	addi	a0,a0,32
80006f5c:	fc1ff06f          	j	80006f1c <__muldf3+0x1a4>
80006f60:	fd850793          	addi	a5,a0,-40
80006f64:	00fb97b3          	sll	a5,s7,a5
80006f68:	00000713          	li	a4,0
80006f6c:	fd9ff06f          	j	80006f44 <__muldf3+0x1cc>
80006f70:	017ae7b3          	or	a5,s5,s7
80006f74:	02078263          	beqz	a5,80006f98 <__muldf3+0x220>
80006f78:	000a8793          	mv	a5,s5
80006f7c:	7ff00513          	li	a0,2047
80006f80:	00300693          	li	a3,3
80006f84:	eadff06f          	j	80006e30 <__muldf3+0xb8>
80006f88:	00000713          	li	a4,0
80006f8c:	00000513          	li	a0,0
80006f90:	00100693          	li	a3,1
80006f94:	e9dff06f          	j	80006e30 <__muldf3+0xb8>
80006f98:	00000713          	li	a4,0
80006f9c:	7ff00513          	li	a0,2047
80006fa0:	00200693          	li	a3,2
80006fa4:	e8dff06f          	j	80006e30 <__muldf3+0xb8>
80006fa8:	00010fb7          	lui	t6,0x10
80006fac:	ffff8f13          	addi	t5,t6,-1 # ffff <__stack_size+0xf7ff>
80006fb0:	0104d693          	srli	a3,s1,0x10
80006fb4:	01075313          	srli	t1,a4,0x10
80006fb8:	01e4f4b3          	and	s1,s1,t5
80006fbc:	01e77733          	and	a4,a4,t5
80006fc0:	029308b3          	mul	a7,t1,s1
80006fc4:	029705b3          	mul	a1,a4,s1
80006fc8:	02e682b3          	mul	t0,a3,a4
80006fcc:	00588e33          	add	t3,a7,t0
80006fd0:	0105d893          	srli	a7,a1,0x10
80006fd4:	01c888b3          	add	a7,a7,t3
80006fd8:	02668eb3          	mul	t4,a3,t1
80006fdc:	0058f463          	bleu	t0,a7,80006fe4 <__muldf3+0x26c>
80006fe0:	01fe8eb3          	add	t4,t4,t6
80006fe4:	0108d913          	srli	s2,a7,0x10
80006fe8:	01e8f8b3          	and	a7,a7,t5
80006fec:	0107df93          	srli	t6,a5,0x10
80006ff0:	01e5f5b3          	and	a1,a1,t5
80006ff4:	01e7f3b3          	and	t2,a5,t5
80006ff8:	01089893          	slli	a7,a7,0x10
80006ffc:	00b888b3          	add	a7,a7,a1
80007000:	027687b3          	mul	a5,a3,t2
80007004:	029385b3          	mul	a1,t2,s1
80007008:	029f84b3          	mul	s1,t6,s1
8000700c:	00f48e33          	add	t3,s1,a5
80007010:	0105d493          	srli	s1,a1,0x10
80007014:	01c484b3          	add	s1,s1,t3
80007018:	03f686b3          	mul	a3,a3,t6
8000701c:	00f4f663          	bleu	a5,s1,80007028 <__muldf3+0x2b0>
80007020:	000107b7          	lui	a5,0x10
80007024:	00f686b3          	add	a3,a3,a5
80007028:	0104df13          	srli	t5,s1,0x10
8000702c:	000109b7          	lui	s3,0x10
80007030:	00df0f33          	add	t5,t5,a3
80007034:	fff98693          	addi	a3,s3,-1 # ffff <__stack_size+0xf7ff>
80007038:	00d4f4b3          	and	s1,s1,a3
8000703c:	00d5f5b3          	and	a1,a1,a3
80007040:	01045793          	srli	a5,s0,0x10
80007044:	01049493          	slli	s1,s1,0x10
80007048:	00d47433          	and	s0,s0,a3
8000704c:	00b484b3          	add	s1,s1,a1
80007050:	028706b3          	mul	a3,a4,s0
80007054:	00990933          	add	s2,s2,s1
80007058:	02e78e33          	mul	t3,a5,a4
8000705c:	028305b3          	mul	a1,t1,s0
80007060:	02f30733          	mul	a4,t1,a5
80007064:	01c58333          	add	t1,a1,t3
80007068:	0106d593          	srli	a1,a3,0x10
8000706c:	006585b3          	add	a1,a1,t1
80007070:	01c5f463          	bleu	t3,a1,80007078 <__muldf3+0x300>
80007074:	01370733          	add	a4,a4,s3
80007078:	0105d313          	srli	t1,a1,0x10
8000707c:	000109b7          	lui	s3,0x10
80007080:	00e302b3          	add	t0,t1,a4
80007084:	fff98713          	addi	a4,s3,-1 # ffff <__stack_size+0xf7ff>
80007088:	00e5f5b3          	and	a1,a1,a4
8000708c:	00e6f6b3          	and	a3,a3,a4
80007090:	02838333          	mul	t1,t2,s0
80007094:	01059593          	slli	a1,a1,0x10
80007098:	00d585b3          	add	a1,a1,a3
8000709c:	02778733          	mul	a4,a5,t2
800070a0:	028f8433          	mul	s0,t6,s0
800070a4:	02ff8e33          	mul	t3,t6,a5
800070a8:	00e40433          	add	s0,s0,a4
800070ac:	01035793          	srli	a5,t1,0x10
800070b0:	00878433          	add	s0,a5,s0
800070b4:	00e47463          	bleu	a4,s0,800070bc <__muldf3+0x344>
800070b8:	013e0e33          	add	t3,t3,s3
800070bc:	000107b7          	lui	a5,0x10
800070c0:	fff78793          	addi	a5,a5,-1 # ffff <__stack_size+0xf7ff>
800070c4:	00f476b3          	and	a3,s0,a5
800070c8:	00f37333          	and	t1,t1,a5
800070cc:	01069693          	slli	a3,a3,0x10
800070d0:	012e8eb3          	add	t4,t4,s2
800070d4:	006686b3          	add	a3,a3,t1
800070d8:	009eb4b3          	sltu	s1,t4,s1
800070dc:	01e686b3          	add	a3,a3,t5
800070e0:	009687b3          	add	a5,a3,s1
800070e4:	00be8eb3          	add	t4,t4,a1
800070e8:	00beb5b3          	sltu	a1,t4,a1
800070ec:	00578333          	add	t1,a5,t0
800070f0:	00b30fb3          	add	t6,t1,a1
800070f4:	01e6b6b3          	sltu	a3,a3,t5
800070f8:	0097b7b3          	sltu	a5,a5,s1
800070fc:	00f6e7b3          	or	a5,a3,a5
80007100:	01045413          	srli	s0,s0,0x10
80007104:	00533333          	sltu	t1,t1,t0
80007108:	00bfb5b3          	sltu	a1,t6,a1
8000710c:	008787b3          	add	a5,a5,s0
80007110:	00b365b3          	or	a1,t1,a1
80007114:	00b787b3          	add	a5,a5,a1
80007118:	01c787b3          	add	a5,a5,t3
8000711c:	017fd713          	srli	a4,t6,0x17
80007120:	00979793          	slli	a5,a5,0x9
80007124:	00e7e7b3          	or	a5,a5,a4
80007128:	009e9713          	slli	a4,t4,0x9
8000712c:	01176733          	or	a4,a4,a7
80007130:	00e03733          	snez	a4,a4
80007134:	017ede93          	srli	t4,t4,0x17
80007138:	009f9693          	slli	a3,t6,0x9
8000713c:	01d76733          	or	a4,a4,t4
80007140:	00d76733          	or	a4,a4,a3
80007144:	00779693          	slli	a3,a5,0x7
80007148:	1006d263          	bgez	a3,8000724c <__muldf3+0x4d4>
8000714c:	00175693          	srli	a3,a4,0x1
80007150:	00177713          	andi	a4,a4,1
80007154:	00e6e733          	or	a4,a3,a4
80007158:	01f79693          	slli	a3,a5,0x1f
8000715c:	00d76733          	or	a4,a4,a3
80007160:	0017d793          	srli	a5,a5,0x1
80007164:	3ff80593          	addi	a1,a6,1023
80007168:	0eb05663          	blez	a1,80007254 <__muldf3+0x4dc>
8000716c:	00777693          	andi	a3,a4,7
80007170:	02068063          	beqz	a3,80007190 <__muldf3+0x418>
80007174:	00f77693          	andi	a3,a4,15
80007178:	00400513          	li	a0,4
8000717c:	00a68a63          	beq	a3,a0,80007190 <__muldf3+0x418>
80007180:	00470693          	addi	a3,a4,4
80007184:	00e6b733          	sltu	a4,a3,a4
80007188:	00e787b3          	add	a5,a5,a4
8000718c:	00068713          	mv	a4,a3
80007190:	00779693          	slli	a3,a5,0x7
80007194:	0006da63          	bgez	a3,800071a8 <__muldf3+0x430>
80007198:	ff0006b7          	lui	a3,0xff000
8000719c:	fff68693          	addi	a3,a3,-1 # feffffff <__heap_start+0x79fff14f>
800071a0:	00d7f7b3          	and	a5,a5,a3
800071a4:	40080593          	addi	a1,a6,1024
800071a8:	7fe00693          	li	a3,2046
800071ac:	16b6c663          	blt	a3,a1,80007318 <__muldf3+0x5a0>
800071b0:	00375693          	srli	a3,a4,0x3
800071b4:	01d79713          	slli	a4,a5,0x1d
800071b8:	00d76733          	or	a4,a4,a3
800071bc:	0037d793          	srli	a5,a5,0x3
800071c0:	7ff5f693          	andi	a3,a1,2047
800071c4:	00c79793          	slli	a5,a5,0xc
800071c8:	01469693          	slli	a3,a3,0x14
800071cc:	02c12083          	lw	ra,44(sp)
800071d0:	02812403          	lw	s0,40(sp)
800071d4:	00c7d793          	srli	a5,a5,0xc
800071d8:	01f61613          	slli	a2,a2,0x1f
800071dc:	00d7e7b3          	or	a5,a5,a3
800071e0:	00c7e6b3          	or	a3,a5,a2
800071e4:	02412483          	lw	s1,36(sp)
800071e8:	02012903          	lw	s2,32(sp)
800071ec:	01c12983          	lw	s3,28(sp)
800071f0:	01812a03          	lw	s4,24(sp)
800071f4:	01412a83          	lw	s5,20(sp)
800071f8:	01012b03          	lw	s6,16(sp)
800071fc:	00c12b83          	lw	s7,12(sp)
80007200:	00070513          	mv	a0,a4
80007204:	00068593          	mv	a1,a3
80007208:	03010113          	addi	sp,sp,48
8000720c:	00008067          	ret
80007210:	00098613          	mv	a2,s3
80007214:	00040793          	mv	a5,s0
80007218:	00048713          	mv	a4,s1
8000721c:	000b0693          	mv	a3,s6
80007220:	00200593          	li	a1,2
80007224:	0eb68a63          	beq	a3,a1,80007318 <__muldf3+0x5a0>
80007228:	00300593          	li	a1,3
8000722c:	0cb68c63          	beq	a3,a1,80007304 <__muldf3+0x58c>
80007230:	00100593          	li	a1,1
80007234:	f2b698e3          	bne	a3,a1,80007164 <__muldf3+0x3ec>
80007238:	00000793          	li	a5,0
8000723c:	00000713          	li	a4,0
80007240:	0880006f          	j	800072c8 <__muldf3+0x550>
80007244:	000a0613          	mv	a2,s4
80007248:	fd9ff06f          	j	80007220 <__muldf3+0x4a8>
8000724c:	00050813          	mv	a6,a0
80007250:	f15ff06f          	j	80007164 <__muldf3+0x3ec>
80007254:	00100513          	li	a0,1
80007258:	40b50533          	sub	a0,a0,a1
8000725c:	03800693          	li	a3,56
80007260:	fca6cce3          	blt	a3,a0,80007238 <__muldf3+0x4c0>
80007264:	01f00693          	li	a3,31
80007268:	06a6c463          	blt	a3,a0,800072d0 <__muldf3+0x558>
8000726c:	41e80813          	addi	a6,a6,1054
80007270:	010796b3          	sll	a3,a5,a6
80007274:	00a755b3          	srl	a1,a4,a0
80007278:	01071733          	sll	a4,a4,a6
8000727c:	00b6e6b3          	or	a3,a3,a1
80007280:	00e03733          	snez	a4,a4
80007284:	00e6e733          	or	a4,a3,a4
80007288:	00a7d7b3          	srl	a5,a5,a0
8000728c:	00777693          	andi	a3,a4,7
80007290:	02068063          	beqz	a3,800072b0 <__muldf3+0x538>
80007294:	00f77693          	andi	a3,a4,15
80007298:	00400593          	li	a1,4
8000729c:	00b68a63          	beq	a3,a1,800072b0 <__muldf3+0x538>
800072a0:	00470693          	addi	a3,a4,4
800072a4:	00e6b733          	sltu	a4,a3,a4
800072a8:	00e787b3          	add	a5,a5,a4
800072ac:	00068713          	mv	a4,a3
800072b0:	00879693          	slli	a3,a5,0x8
800072b4:	0606ca63          	bltz	a3,80007328 <__muldf3+0x5b0>
800072b8:	01d79693          	slli	a3,a5,0x1d
800072bc:	00375713          	srli	a4,a4,0x3
800072c0:	00e6e733          	or	a4,a3,a4
800072c4:	0037d793          	srli	a5,a5,0x3
800072c8:	00000593          	li	a1,0
800072cc:	ef5ff06f          	j	800071c0 <__muldf3+0x448>
800072d0:	fe100693          	li	a3,-31
800072d4:	40b686b3          	sub	a3,a3,a1
800072d8:	02000893          	li	a7,32
800072dc:	00d7d6b3          	srl	a3,a5,a3
800072e0:	00000593          	li	a1,0
800072e4:	01150663          	beq	a0,a7,800072f0 <__muldf3+0x578>
800072e8:	43e80813          	addi	a6,a6,1086
800072ec:	010795b3          	sll	a1,a5,a6
800072f0:	00e5e733          	or	a4,a1,a4
800072f4:	00e03733          	snez	a4,a4
800072f8:	00e6e733          	or	a4,a3,a4
800072fc:	00000793          	li	a5,0
80007300:	f8dff06f          	j	8000728c <__muldf3+0x514>
80007304:	000807b7          	lui	a5,0x80
80007308:	00000713          	li	a4,0
8000730c:	7ff00593          	li	a1,2047
80007310:	00000613          	li	a2,0
80007314:	eadff06f          	j	800071c0 <__muldf3+0x448>
80007318:	00000793          	li	a5,0
8000731c:	00000713          	li	a4,0
80007320:	7ff00593          	li	a1,2047
80007324:	e9dff06f          	j	800071c0 <__muldf3+0x448>
80007328:	00000793          	li	a5,0
8000732c:	00000713          	li	a4,0
80007330:	00100593          	li	a1,1
80007334:	e8dff06f          	j	800071c0 <__muldf3+0x448>

80007338 <__subdf3>:
80007338:	00100837          	lui	a6,0x100
8000733c:	fff80813          	addi	a6,a6,-1 # fffff <__stack_size+0xff7ff>
80007340:	00b878b3          	and	a7,a6,a1
80007344:	00389893          	slli	a7,a7,0x3
80007348:	01d55793          	srli	a5,a0,0x1d
8000734c:	fe010113          	addi	sp,sp,-32
80007350:	0145d713          	srli	a4,a1,0x14
80007354:	00d87833          	and	a6,a6,a3
80007358:	0117e7b3          	or	a5,a5,a7
8000735c:	0146d893          	srli	a7,a3,0x14
80007360:	00912a23          	sw	s1,20(sp)
80007364:	01212823          	sw	s2,16(sp)
80007368:	7ff77493          	andi	s1,a4,2047
8000736c:	01f5d913          	srli	s2,a1,0x1f
80007370:	01d65713          	srli	a4,a2,0x1d
80007374:	00381813          	slli	a6,a6,0x3
80007378:	00112e23          	sw	ra,28(sp)
8000737c:	00812c23          	sw	s0,24(sp)
80007380:	01312623          	sw	s3,12(sp)
80007384:	7ff8f893          	andi	a7,a7,2047
80007388:	7ff00593          	li	a1,2047
8000738c:	00351513          	slli	a0,a0,0x3
80007390:	01f6d693          	srli	a3,a3,0x1f
80007394:	01076733          	or	a4,a4,a6
80007398:	00361613          	slli	a2,a2,0x3
8000739c:	00b89663          	bne	a7,a1,800073a8 <__subdf3+0x70>
800073a0:	00c765b3          	or	a1,a4,a2
800073a4:	00059463          	bnez	a1,800073ac <__subdf3+0x74>
800073a8:	0016c693          	xori	a3,a3,1
800073ac:	41148833          	sub	a6,s1,a7
800073b0:	2d269063          	bne	a3,s2,80007670 <__subdf3+0x338>
800073b4:	13005c63          	blez	a6,800074ec <__subdf3+0x1b4>
800073b8:	06089063          	bnez	a7,80007418 <__subdf3+0xe0>
800073bc:	00c766b3          	or	a3,a4,a2
800073c0:	02068863          	beqz	a3,800073f0 <__subdf3+0xb8>
800073c4:	fff48813          	addi	a6,s1,-1
800073c8:	02081063          	bnez	a6,800073e8 <__subdf3+0xb0>
800073cc:	00c50633          	add	a2,a0,a2
800073d0:	00a63533          	sltu	a0,a2,a0
800073d4:	00e787b3          	add	a5,a5,a4
800073d8:	00a787b3          	add	a5,a5,a0
800073dc:	00060513          	mv	a0,a2
800073e0:	00100493          	li	s1,1
800073e4:	08c0006f          	j	80007470 <__subdf3+0x138>
800073e8:	7ff00693          	li	a3,2047
800073ec:	02d49e63          	bne	s1,a3,80007428 <__subdf3+0xf0>
800073f0:	00757713          	andi	a4,a0,7
800073f4:	62070c63          	beqz	a4,80007a2c <__subdf3+0x6f4>
800073f8:	00f57713          	andi	a4,a0,15
800073fc:	00400693          	li	a3,4
80007400:	62d70663          	beq	a4,a3,80007a2c <__subdf3+0x6f4>
80007404:	00450693          	addi	a3,a0,4
80007408:	00a6b533          	sltu	a0,a3,a0
8000740c:	00a787b3          	add	a5,a5,a0
80007410:	00068513          	mv	a0,a3
80007414:	6180006f          	j	80007a2c <__subdf3+0x6f4>
80007418:	7ff00693          	li	a3,2047
8000741c:	fcd48ae3          	beq	s1,a3,800073f0 <__subdf3+0xb8>
80007420:	008006b7          	lui	a3,0x800
80007424:	00d76733          	or	a4,a4,a3
80007428:	03800693          	li	a3,56
8000742c:	0b06ca63          	blt	a3,a6,800074e0 <__subdf3+0x1a8>
80007430:	01f00693          	li	a3,31
80007434:	0706cc63          	blt	a3,a6,800074ac <__subdf3+0x174>
80007438:	02000593          	li	a1,32
8000743c:	410585b3          	sub	a1,a1,a6
80007440:	00b716b3          	sll	a3,a4,a1
80007444:	010658b3          	srl	a7,a2,a6
80007448:	00b61633          	sll	a2,a2,a1
8000744c:	0116e6b3          	or	a3,a3,a7
80007450:	00c03633          	snez	a2,a2
80007454:	00c6e633          	or	a2,a3,a2
80007458:	01075733          	srl	a4,a4,a6
8000745c:	00a60633          	add	a2,a2,a0
80007460:	00f70733          	add	a4,a4,a5
80007464:	00a637b3          	sltu	a5,a2,a0
80007468:	00f707b3          	add	a5,a4,a5
8000746c:	00060513          	mv	a0,a2
80007470:	00879713          	slli	a4,a5,0x8
80007474:	f6075ee3          	bgez	a4,800073f0 <__subdf3+0xb8>
80007478:	00148493          	addi	s1,s1,1
8000747c:	7ff00713          	li	a4,2047
80007480:	5ae48263          	beq	s1,a4,80007a24 <__subdf3+0x6ec>
80007484:	ff8006b7          	lui	a3,0xff800
80007488:	fff68693          	addi	a3,a3,-1 # ff7fffff <__heap_start+0x7a7ff14f>
8000748c:	00d7f6b3          	and	a3,a5,a3
80007490:	00155593          	srli	a1,a0,0x1
80007494:	00157513          	andi	a0,a0,1
80007498:	01f69793          	slli	a5,a3,0x1f
8000749c:	00a5e533          	or	a0,a1,a0
800074a0:	00a7e533          	or	a0,a5,a0
800074a4:	0016d793          	srli	a5,a3,0x1
800074a8:	f49ff06f          	j	800073f0 <__subdf3+0xb8>
800074ac:	fe080693          	addi	a3,a6,-32
800074b0:	02000893          	li	a7,32
800074b4:	00d756b3          	srl	a3,a4,a3
800074b8:	00000593          	li	a1,0
800074bc:	01180863          	beq	a6,a7,800074cc <__subdf3+0x194>
800074c0:	04000593          	li	a1,64
800074c4:	41058833          	sub	a6,a1,a6
800074c8:	010715b3          	sll	a1,a4,a6
800074cc:	00c5e633          	or	a2,a1,a2
800074d0:	00c03633          	snez	a2,a2
800074d4:	00c6e633          	or	a2,a3,a2
800074d8:	00000713          	li	a4,0
800074dc:	f81ff06f          	j	8000745c <__subdf3+0x124>
800074e0:	00c76633          	or	a2,a4,a2
800074e4:	00c03633          	snez	a2,a2
800074e8:	ff1ff06f          	j	800074d8 <__subdf3+0x1a0>
800074ec:	0e080263          	beqz	a6,800075d0 <__subdf3+0x298>
800074f0:	409885b3          	sub	a1,a7,s1
800074f4:	02049e63          	bnez	s1,80007530 <__subdf3+0x1f8>
800074f8:	00a7e6b3          	or	a3,a5,a0
800074fc:	50068463          	beqz	a3,80007a04 <__subdf3+0x6cc>
80007500:	fff58693          	addi	a3,a1,-1
80007504:	00069c63          	bnez	a3,8000751c <__subdf3+0x1e4>
80007508:	00c50533          	add	a0,a0,a2
8000750c:	00e787b3          	add	a5,a5,a4
80007510:	00c53633          	sltu	a2,a0,a2
80007514:	00c787b3          	add	a5,a5,a2
80007518:	ec9ff06f          	j	800073e0 <__subdf3+0xa8>
8000751c:	7ff00813          	li	a6,2047
80007520:	03059263          	bne	a1,a6,80007544 <__subdf3+0x20c>
80007524:	00070793          	mv	a5,a4
80007528:	00060513          	mv	a0,a2
8000752c:	3b00006f          	j	800078dc <__subdf3+0x5a4>
80007530:	7ff00693          	li	a3,2047
80007534:	fed888e3          	beq	a7,a3,80007524 <__subdf3+0x1ec>
80007538:	008006b7          	lui	a3,0x800
8000753c:	00d7e7b3          	or	a5,a5,a3
80007540:	00058693          	mv	a3,a1
80007544:	03800593          	li	a1,56
80007548:	06d5ce63          	blt	a1,a3,800075c4 <__subdf3+0x28c>
8000754c:	01f00593          	li	a1,31
80007550:	04d5c063          	blt	a1,a3,80007590 <__subdf3+0x258>
80007554:	02000813          	li	a6,32
80007558:	40d80833          	sub	a6,a6,a3
8000755c:	00d55333          	srl	t1,a0,a3
80007560:	010795b3          	sll	a1,a5,a6
80007564:	01051533          	sll	a0,a0,a6
80007568:	0065e5b3          	or	a1,a1,t1
8000756c:	00a03533          	snez	a0,a0
80007570:	00a5e533          	or	a0,a1,a0
80007574:	00d7d6b3          	srl	a3,a5,a3
80007578:	00c50533          	add	a0,a0,a2
8000757c:	00e687b3          	add	a5,a3,a4
80007580:	00c53633          	sltu	a2,a0,a2
80007584:	00c787b3          	add	a5,a5,a2
80007588:	00088493          	mv	s1,a7
8000758c:	ee5ff06f          	j	80007470 <__subdf3+0x138>
80007590:	fe068593          	addi	a1,a3,-32 # 7fffe0 <__stack_size+0x7ff7e0>
80007594:	02000313          	li	t1,32
80007598:	00b7d5b3          	srl	a1,a5,a1
8000759c:	00000813          	li	a6,0
800075a0:	00668863          	beq	a3,t1,800075b0 <__subdf3+0x278>
800075a4:	04000813          	li	a6,64
800075a8:	40d806b3          	sub	a3,a6,a3
800075ac:	00d79833          	sll	a6,a5,a3
800075b0:	00a86533          	or	a0,a6,a0
800075b4:	00a03533          	snez	a0,a0
800075b8:	00a5e533          	or	a0,a1,a0
800075bc:	00000693          	li	a3,0
800075c0:	fb9ff06f          	j	80007578 <__subdf3+0x240>
800075c4:	00a7e533          	or	a0,a5,a0
800075c8:	00a03533          	snez	a0,a0
800075cc:	ff1ff06f          	j	800075bc <__subdf3+0x284>
800075d0:	00148693          	addi	a3,s1,1
800075d4:	7fe6f593          	andi	a1,a3,2046
800075d8:	06059463          	bnez	a1,80007640 <__subdf3+0x308>
800075dc:	00a7e6b3          	or	a3,a5,a0
800075e0:	04049063          	bnez	s1,80007620 <__subdf3+0x2e8>
800075e4:	42068863          	beqz	a3,80007a14 <__subdf3+0x6dc>
800075e8:	00c766b3          	or	a3,a4,a2
800075ec:	e00682e3          	beqz	a3,800073f0 <__subdf3+0xb8>
800075f0:	00c50633          	add	a2,a0,a2
800075f4:	00e787b3          	add	a5,a5,a4
800075f8:	00a63533          	sltu	a0,a2,a0
800075fc:	00a787b3          	add	a5,a5,a0
80007600:	00879713          	slli	a4,a5,0x8
80007604:	00060513          	mv	a0,a2
80007608:	de0754e3          	bgez	a4,800073f0 <__subdf3+0xb8>
8000760c:	ff800737          	lui	a4,0xff800
80007610:	fff70713          	addi	a4,a4,-1 # ff7fffff <__heap_start+0x7a7ff14f>
80007614:	00e7f7b3          	and	a5,a5,a4
80007618:	00100493          	li	s1,1
8000761c:	dd5ff06f          	j	800073f0 <__subdf3+0xb8>
80007620:	f00682e3          	beqz	a3,80007524 <__subdf3+0x1ec>
80007624:	00c76633          	or	a2,a4,a2
80007628:	2a060a63          	beqz	a2,800078dc <__subdf3+0x5a4>
8000762c:	00000913          	li	s2,0
80007630:	004007b7          	lui	a5,0x400
80007634:	00000513          	li	a0,0
80007638:	7ff00493          	li	s1,2047
8000763c:	3f00006f          	j	80007a2c <__subdf3+0x6f4>
80007640:	7ff00593          	li	a1,2047
80007644:	3cb68e63          	beq	a3,a1,80007a20 <__subdf3+0x6e8>
80007648:	00c50633          	add	a2,a0,a2
8000764c:	00e78733          	add	a4,a5,a4
80007650:	00a637b3          	sltu	a5,a2,a0
80007654:	00f70733          	add	a4,a4,a5
80007658:	01f71513          	slli	a0,a4,0x1f
8000765c:	00165613          	srli	a2,a2,0x1
80007660:	00c56533          	or	a0,a0,a2
80007664:	00175793          	srli	a5,a4,0x1
80007668:	00068493          	mv	s1,a3
8000766c:	d85ff06f          	j	800073f0 <__subdf3+0xb8>
80007670:	0f005a63          	blez	a6,80007764 <__subdf3+0x42c>
80007674:	08089e63          	bnez	a7,80007710 <__subdf3+0x3d8>
80007678:	00c766b3          	or	a3,a4,a2
8000767c:	d6068ae3          	beqz	a3,800073f0 <__subdf3+0xb8>
80007680:	fff48813          	addi	a6,s1,-1
80007684:	02081063          	bnez	a6,800076a4 <__subdf3+0x36c>
80007688:	40c50633          	sub	a2,a0,a2
8000768c:	00c53533          	sltu	a0,a0,a2
80007690:	40e787b3          	sub	a5,a5,a4
80007694:	40a787b3          	sub	a5,a5,a0
80007698:	00060513          	mv	a0,a2
8000769c:	00100493          	li	s1,1
800076a0:	0540006f          	j	800076f4 <__subdf3+0x3bc>
800076a4:	7ff00693          	li	a3,2047
800076a8:	d4d484e3          	beq	s1,a3,800073f0 <__subdf3+0xb8>
800076ac:	03800693          	li	a3,56
800076b0:	0b06c463          	blt	a3,a6,80007758 <__subdf3+0x420>
800076b4:	01f00693          	li	a3,31
800076b8:	0706c663          	blt	a3,a6,80007724 <__subdf3+0x3ec>
800076bc:	02000593          	li	a1,32
800076c0:	410585b3          	sub	a1,a1,a6
800076c4:	00b716b3          	sll	a3,a4,a1
800076c8:	010658b3          	srl	a7,a2,a6
800076cc:	00b61633          	sll	a2,a2,a1
800076d0:	0116e6b3          	or	a3,a3,a7
800076d4:	00c03633          	snez	a2,a2
800076d8:	00c6e633          	or	a2,a3,a2
800076dc:	01075733          	srl	a4,a4,a6
800076e0:	40c50633          	sub	a2,a0,a2
800076e4:	40e78733          	sub	a4,a5,a4
800076e8:	00c537b3          	sltu	a5,a0,a2
800076ec:	40f707b3          	sub	a5,a4,a5
800076f0:	00060513          	mv	a0,a2
800076f4:	00879713          	slli	a4,a5,0x8
800076f8:	ce075ce3          	bgez	a4,800073f0 <__subdf3+0xb8>
800076fc:	00800437          	lui	s0,0x800
80007700:	fff40413          	addi	s0,s0,-1 # 7fffff <__stack_size+0x7ff7ff>
80007704:	0087f433          	and	s0,a5,s0
80007708:	00050993          	mv	s3,a0
8000770c:	20c0006f          	j	80007918 <__subdf3+0x5e0>
80007710:	7ff00693          	li	a3,2047
80007714:	ccd48ee3          	beq	s1,a3,800073f0 <__subdf3+0xb8>
80007718:	008006b7          	lui	a3,0x800
8000771c:	00d76733          	or	a4,a4,a3
80007720:	f8dff06f          	j	800076ac <__subdf3+0x374>
80007724:	fe080693          	addi	a3,a6,-32
80007728:	02000893          	li	a7,32
8000772c:	00d756b3          	srl	a3,a4,a3
80007730:	00000593          	li	a1,0
80007734:	01180863          	beq	a6,a7,80007744 <__subdf3+0x40c>
80007738:	04000593          	li	a1,64
8000773c:	41058833          	sub	a6,a1,a6
80007740:	010715b3          	sll	a1,a4,a6
80007744:	00c5e633          	or	a2,a1,a2
80007748:	00c03633          	snez	a2,a2
8000774c:	00c6e633          	or	a2,a3,a2
80007750:	00000713          	li	a4,0
80007754:	f8dff06f          	j	800076e0 <__subdf3+0x3a8>
80007758:	00c76633          	or	a2,a4,a2
8000775c:	00c03633          	snez	a2,a2
80007760:	ff1ff06f          	j	80007750 <__subdf3+0x418>
80007764:	0e080863          	beqz	a6,80007854 <__subdf3+0x51c>
80007768:	40988833          	sub	a6,a7,s1
8000776c:	04049263          	bnez	s1,800077b0 <__subdf3+0x478>
80007770:	00a7e5b3          	or	a1,a5,a0
80007774:	34058263          	beqz	a1,80007ab8 <__subdf3+0x780>
80007778:	fff80593          	addi	a1,a6,-1
8000777c:	00059e63          	bnez	a1,80007798 <__subdf3+0x460>
80007780:	40a60533          	sub	a0,a2,a0
80007784:	40f707b3          	sub	a5,a4,a5
80007788:	00a63633          	sltu	a2,a2,a0
8000778c:	40c787b3          	sub	a5,a5,a2
80007790:	00068913          	mv	s2,a3
80007794:	f09ff06f          	j	8000769c <__subdf3+0x364>
80007798:	7ff00313          	li	t1,2047
8000779c:	02681463          	bne	a6,t1,800077c4 <__subdf3+0x48c>
800077a0:	00070793          	mv	a5,a4
800077a4:	00060513          	mv	a0,a2
800077a8:	7ff00493          	li	s1,2047
800077ac:	0d00006f          	j	8000787c <__subdf3+0x544>
800077b0:	7ff00593          	li	a1,2047
800077b4:	feb886e3          	beq	a7,a1,800077a0 <__subdf3+0x468>
800077b8:	008005b7          	lui	a1,0x800
800077bc:	00b7e7b3          	or	a5,a5,a1
800077c0:	00080593          	mv	a1,a6
800077c4:	03800813          	li	a6,56
800077c8:	08b84063          	blt	a6,a1,80007848 <__subdf3+0x510>
800077cc:	01f00813          	li	a6,31
800077d0:	04b84263          	blt	a6,a1,80007814 <__subdf3+0x4dc>
800077d4:	02000313          	li	t1,32
800077d8:	40b30333          	sub	t1,t1,a1
800077dc:	00b55e33          	srl	t3,a0,a1
800077e0:	00679833          	sll	a6,a5,t1
800077e4:	00651533          	sll	a0,a0,t1
800077e8:	01c86833          	or	a6,a6,t3
800077ec:	00a03533          	snez	a0,a0
800077f0:	00a86533          	or	a0,a6,a0
800077f4:	00b7d5b3          	srl	a1,a5,a1
800077f8:	40a60533          	sub	a0,a2,a0
800077fc:	40b707b3          	sub	a5,a4,a1
80007800:	00a63633          	sltu	a2,a2,a0
80007804:	40c787b3          	sub	a5,a5,a2
80007808:	00088493          	mv	s1,a7
8000780c:	00068913          	mv	s2,a3
80007810:	ee5ff06f          	j	800076f4 <__subdf3+0x3bc>
80007814:	fe058813          	addi	a6,a1,-32 # 7fffe0 <__stack_size+0x7ff7e0>
80007818:	02000e13          	li	t3,32
8000781c:	0107d833          	srl	a6,a5,a6
80007820:	00000313          	li	t1,0
80007824:	01c58863          	beq	a1,t3,80007834 <__subdf3+0x4fc>
80007828:	04000313          	li	t1,64
8000782c:	40b305b3          	sub	a1,t1,a1
80007830:	00b79333          	sll	t1,a5,a1
80007834:	00a36533          	or	a0,t1,a0
80007838:	00a03533          	snez	a0,a0
8000783c:	00a86533          	or	a0,a6,a0
80007840:	00000593          	li	a1,0
80007844:	fb5ff06f          	j	800077f8 <__subdf3+0x4c0>
80007848:	00a7e533          	or	a0,a5,a0
8000784c:	00a03533          	snez	a0,a0
80007850:	ff1ff06f          	j	80007840 <__subdf3+0x508>
80007854:	00148593          	addi	a1,s1,1
80007858:	7fe5f593          	andi	a1,a1,2046
8000785c:	08059863          	bnez	a1,800078ec <__subdf3+0x5b4>
80007860:	00a7e833          	or	a6,a5,a0
80007864:	00c765b3          	or	a1,a4,a2
80007868:	06049063          	bnez	s1,800078c8 <__subdf3+0x590>
8000786c:	00081c63          	bnez	a6,80007884 <__subdf3+0x54c>
80007870:	24058c63          	beqz	a1,80007ac8 <__subdf3+0x790>
80007874:	00070793          	mv	a5,a4
80007878:	00060513          	mv	a0,a2
8000787c:	00068913          	mv	s2,a3
80007880:	b71ff06f          	j	800073f0 <__subdf3+0xb8>
80007884:	b60586e3          	beqz	a1,800073f0 <__subdf3+0xb8>
80007888:	40c50833          	sub	a6,a0,a2
8000788c:	010538b3          	sltu	a7,a0,a6
80007890:	40e785b3          	sub	a1,a5,a4
80007894:	411585b3          	sub	a1,a1,a7
80007898:	00859893          	slli	a7,a1,0x8
8000789c:	0008dc63          	bgez	a7,800078b4 <__subdf3+0x57c>
800078a0:	40a60533          	sub	a0,a2,a0
800078a4:	40f707b3          	sub	a5,a4,a5
800078a8:	00a63633          	sltu	a2,a2,a0
800078ac:	40c787b3          	sub	a5,a5,a2
800078b0:	fcdff06f          	j	8000787c <__subdf3+0x544>
800078b4:	00b86533          	or	a0,a6,a1
800078b8:	22050063          	beqz	a0,80007ad8 <__subdf3+0x7a0>
800078bc:	00058793          	mv	a5,a1
800078c0:	00080513          	mv	a0,a6
800078c4:	b2dff06f          	j	800073f0 <__subdf3+0xb8>
800078c8:	00081e63          	bnez	a6,800078e4 <__subdf3+0x5ac>
800078cc:	20058a63          	beqz	a1,80007ae0 <__subdf3+0x7a8>
800078d0:	00070793          	mv	a5,a4
800078d4:	00060513          	mv	a0,a2
800078d8:	00068913          	mv	s2,a3
800078dc:	7ff00493          	li	s1,2047
800078e0:	b11ff06f          	j	800073f0 <__subdf3+0xb8>
800078e4:	fe058ce3          	beqz	a1,800078dc <__subdf3+0x5a4>
800078e8:	d45ff06f          	j	8000762c <__subdf3+0x2f4>
800078ec:	40c509b3          	sub	s3,a0,a2
800078f0:	013535b3          	sltu	a1,a0,s3
800078f4:	40e78433          	sub	s0,a5,a4
800078f8:	40b40433          	sub	s0,s0,a1
800078fc:	00841593          	slli	a1,s0,0x8
80007900:	0805d463          	bgez	a1,80007988 <__subdf3+0x650>
80007904:	40a609b3          	sub	s3,a2,a0
80007908:	40f707b3          	sub	a5,a4,a5
8000790c:	01363633          	sltu	a2,a2,s3
80007910:	40c78433          	sub	s0,a5,a2
80007914:	00068913          	mv	s2,a3
80007918:	08040263          	beqz	s0,8000799c <__subdf3+0x664>
8000791c:	00040513          	mv	a0,s0
80007920:	b65fe0ef          	jal	ra,80006484 <__clzsi2>
80007924:	ff850713          	addi	a4,a0,-8
80007928:	01f00793          	li	a5,31
8000792c:	08e7c063          	blt	a5,a4,800079ac <__subdf3+0x674>
80007930:	02000793          	li	a5,32
80007934:	40e787b3          	sub	a5,a5,a4
80007938:	00e41433          	sll	s0,s0,a4
8000793c:	00f9d7b3          	srl	a5,s3,a5
80007940:	0087e433          	or	s0,a5,s0
80007944:	00e99533          	sll	a0,s3,a4
80007948:	0a974463          	blt	a4,s1,800079f0 <__subdf3+0x6b8>
8000794c:	40970733          	sub	a4,a4,s1
80007950:	00170793          	addi	a5,a4,1
80007954:	01f00693          	li	a3,31
80007958:	06f6c263          	blt	a3,a5,800079bc <__subdf3+0x684>
8000795c:	02000713          	li	a4,32
80007960:	40f70733          	sub	a4,a4,a5
80007964:	00f55633          	srl	a2,a0,a5
80007968:	00e416b3          	sll	a3,s0,a4
8000796c:	00e51533          	sll	a0,a0,a4
80007970:	00c6e6b3          	or	a3,a3,a2
80007974:	00a03533          	snez	a0,a0
80007978:	00a6e533          	or	a0,a3,a0
8000797c:	00f457b3          	srl	a5,s0,a5
80007980:	00000493          	li	s1,0
80007984:	a6dff06f          	j	800073f0 <__subdf3+0xb8>
80007988:	0089e533          	or	a0,s3,s0
8000798c:	f80516e3          	bnez	a0,80007918 <__subdf3+0x5e0>
80007990:	00000793          	li	a5,0
80007994:	00000493          	li	s1,0
80007998:	1380006f          	j	80007ad0 <__subdf3+0x798>
8000799c:	00098513          	mv	a0,s3
800079a0:	ae5fe0ef          	jal	ra,80006484 <__clzsi2>
800079a4:	02050513          	addi	a0,a0,32
800079a8:	f7dff06f          	j	80007924 <__subdf3+0x5ec>
800079ac:	fd850413          	addi	s0,a0,-40
800079b0:	00899433          	sll	s0,s3,s0
800079b4:	00000513          	li	a0,0
800079b8:	f91ff06f          	j	80007948 <__subdf3+0x610>
800079bc:	fe170713          	addi	a4,a4,-31
800079c0:	02000613          	li	a2,32
800079c4:	00e45733          	srl	a4,s0,a4
800079c8:	00000693          	li	a3,0
800079cc:	00c78863          	beq	a5,a2,800079dc <__subdf3+0x6a4>
800079d0:	04000693          	li	a3,64
800079d4:	40f686b3          	sub	a3,a3,a5
800079d8:	00d416b3          	sll	a3,s0,a3
800079dc:	00d56533          	or	a0,a0,a3
800079e0:	00a03533          	snez	a0,a0
800079e4:	00a76533          	or	a0,a4,a0
800079e8:	00000793          	li	a5,0
800079ec:	f95ff06f          	j	80007980 <__subdf3+0x648>
800079f0:	ff8007b7          	lui	a5,0xff800
800079f4:	fff78793          	addi	a5,a5,-1 # ff7fffff <__heap_start+0x7a7ff14f>
800079f8:	40e484b3          	sub	s1,s1,a4
800079fc:	00f477b3          	and	a5,s0,a5
80007a00:	9f1ff06f          	j	800073f0 <__subdf3+0xb8>
80007a04:	00070793          	mv	a5,a4
80007a08:	00060513          	mv	a0,a2
80007a0c:	00058493          	mv	s1,a1
80007a10:	9e1ff06f          	j	800073f0 <__subdf3+0xb8>
80007a14:	00070793          	mv	a5,a4
80007a18:	00060513          	mv	a0,a2
80007a1c:	9d5ff06f          	j	800073f0 <__subdf3+0xb8>
80007a20:	7ff00493          	li	s1,2047
80007a24:	00000793          	li	a5,0
80007a28:	00000513          	li	a0,0
80007a2c:	00879713          	slli	a4,a5,0x8
80007a30:	00075e63          	bgez	a4,80007a4c <__subdf3+0x714>
80007a34:	00148493          	addi	s1,s1,1
80007a38:	7ff00713          	li	a4,2047
80007a3c:	0ae48a63          	beq	s1,a4,80007af0 <__subdf3+0x7b8>
80007a40:	ff800737          	lui	a4,0xff800
80007a44:	fff70713          	addi	a4,a4,-1 # ff7fffff <__heap_start+0x7a7ff14f>
80007a48:	00e7f7b3          	and	a5,a5,a4
80007a4c:	01d79713          	slli	a4,a5,0x1d
80007a50:	00355513          	srli	a0,a0,0x3
80007a54:	00a76533          	or	a0,a4,a0
80007a58:	7ff00713          	li	a4,2047
80007a5c:	0037d793          	srli	a5,a5,0x3
80007a60:	00e49e63          	bne	s1,a4,80007a7c <__subdf3+0x744>
80007a64:	00f56533          	or	a0,a0,a5
80007a68:	00000793          	li	a5,0
80007a6c:	00050863          	beqz	a0,80007a7c <__subdf3+0x744>
80007a70:	000807b7          	lui	a5,0x80
80007a74:	00000513          	li	a0,0
80007a78:	00000913          	li	s2,0
80007a7c:	7ff4f713          	andi	a4,s1,2047
80007a80:	00c79793          	slli	a5,a5,0xc
80007a84:	01471713          	slli	a4,a4,0x14
80007a88:	01c12083          	lw	ra,28(sp)
80007a8c:	01812403          	lw	s0,24(sp)
80007a90:	00c7d793          	srli	a5,a5,0xc
80007a94:	01f91593          	slli	a1,s2,0x1f
80007a98:	00e7e7b3          	or	a5,a5,a4
80007a9c:	00b7e733          	or	a4,a5,a1
80007aa0:	01412483          	lw	s1,20(sp)
80007aa4:	01012903          	lw	s2,16(sp)
80007aa8:	00c12983          	lw	s3,12(sp)
80007aac:	00070593          	mv	a1,a4
80007ab0:	02010113          	addi	sp,sp,32
80007ab4:	00008067          	ret
80007ab8:	00070793          	mv	a5,a4
80007abc:	00060513          	mv	a0,a2
80007ac0:	00080493          	mv	s1,a6
80007ac4:	db9ff06f          	j	8000787c <__subdf3+0x544>
80007ac8:	00000793          	li	a5,0
80007acc:	00000513          	li	a0,0
80007ad0:	00000913          	li	s2,0
80007ad4:	f59ff06f          	j	80007a2c <__subdf3+0x6f4>
80007ad8:	00000793          	li	a5,0
80007adc:	ff5ff06f          	j	80007ad0 <__subdf3+0x798>
80007ae0:	00000513          	li	a0,0
80007ae4:	00000913          	li	s2,0
80007ae8:	004007b7          	lui	a5,0x400
80007aec:	b4dff06f          	j	80007638 <__subdf3+0x300>
80007af0:	00000793          	li	a5,0
80007af4:	00000513          	li	a0,0
80007af8:	f55ff06f          	j	80007a4c <__subdf3+0x714>

80007afc <__fixdfsi>:
80007afc:	0145d713          	srli	a4,a1,0x14
80007b00:	001006b7          	lui	a3,0x100
80007b04:	fff68793          	addi	a5,a3,-1 # fffff <__stack_size+0xff7ff>
80007b08:	7ff77713          	andi	a4,a4,2047
80007b0c:	3fe00613          	li	a2,1022
80007b10:	00b7f7b3          	and	a5,a5,a1
80007b14:	01f5d593          	srli	a1,a1,0x1f
80007b18:	04e65e63          	ble	a4,a2,80007b74 <__fixdfsi+0x78>
80007b1c:	41d00613          	li	a2,1053
80007b20:	00e65a63          	ble	a4,a2,80007b34 <__fixdfsi+0x38>
80007b24:	80000537          	lui	a0,0x80000
80007b28:	fff54513          	not	a0,a0
80007b2c:	00a58533          	add	a0,a1,a0
80007b30:	00008067          	ret
80007b34:	00d7e7b3          	or	a5,a5,a3
80007b38:	43300693          	li	a3,1075
80007b3c:	40e686b3          	sub	a3,a3,a4
80007b40:	01f00613          	li	a2,31
80007b44:	02d64063          	blt	a2,a3,80007b64 <__fixdfsi+0x68>
80007b48:	bed70713          	addi	a4,a4,-1043
80007b4c:	00e797b3          	sll	a5,a5,a4
80007b50:	00d55533          	srl	a0,a0,a3
80007b54:	00a7e533          	or	a0,a5,a0
80007b58:	02058063          	beqz	a1,80007b78 <__fixdfsi+0x7c>
80007b5c:	40a00533          	neg	a0,a0
80007b60:	00008067          	ret
80007b64:	41300513          	li	a0,1043
80007b68:	40e50533          	sub	a0,a0,a4
80007b6c:	00a7d533          	srl	a0,a5,a0
80007b70:	fe9ff06f          	j	80007b58 <__fixdfsi+0x5c>
80007b74:	00000513          	li	a0,0
80007b78:	00008067          	ret

80007b7c <__floatsidf>:
80007b7c:	ff010113          	addi	sp,sp,-16
80007b80:	00112623          	sw	ra,12(sp)
80007b84:	00812423          	sw	s0,8(sp)
80007b88:	00912223          	sw	s1,4(sp)
80007b8c:	08050463          	beqz	a0,80007c14 <__floatsidf+0x98>
80007b90:	41f55793          	srai	a5,a0,0x1f
80007b94:	00a7c433          	xor	s0,a5,a0
80007b98:	40f40433          	sub	s0,s0,a5
80007b9c:	01f55493          	srli	s1,a0,0x1f
80007ba0:	00040513          	mv	a0,s0
80007ba4:	8e1fe0ef          	jal	ra,80006484 <__clzsi2>
80007ba8:	41e00713          	li	a4,1054
80007bac:	00a00793          	li	a5,10
80007bb0:	40a70733          	sub	a4,a4,a0
80007bb4:	04a7c863          	blt	a5,a0,80007c04 <__floatsidf+0x88>
80007bb8:	00b00793          	li	a5,11
80007bbc:	40a787b3          	sub	a5,a5,a0
80007bc0:	01550513          	addi	a0,a0,21 # 80000015 <__heap_start+0xfafff165>
80007bc4:	00f457b3          	srl	a5,s0,a5
80007bc8:	00a41433          	sll	s0,s0,a0
80007bcc:	00c79793          	slli	a5,a5,0xc
80007bd0:	7ff77713          	andi	a4,a4,2047
80007bd4:	01471713          	slli	a4,a4,0x14
80007bd8:	00040513          	mv	a0,s0
80007bdc:	00c12083          	lw	ra,12(sp)
80007be0:	00812403          	lw	s0,8(sp)
80007be4:	00c7d793          	srli	a5,a5,0xc
80007be8:	01f49493          	slli	s1,s1,0x1f
80007bec:	00e7e7b3          	or	a5,a5,a4
80007bf0:	0097e733          	or	a4,a5,s1
80007bf4:	00070593          	mv	a1,a4
80007bf8:	00412483          	lw	s1,4(sp)
80007bfc:	01010113          	addi	sp,sp,16
80007c00:	00008067          	ret
80007c04:	ff550513          	addi	a0,a0,-11
80007c08:	00a417b3          	sll	a5,s0,a0
80007c0c:	00000413          	li	s0,0
80007c10:	fbdff06f          	j	80007bcc <__floatsidf+0x50>
80007c14:	00000793          	li	a5,0
80007c18:	00000413          	li	s0,0
80007c1c:	00000713          	li	a4,0
80007c20:	00000493          	li	s1,0
80007c24:	fa9ff06f          	j	80007bcc <__floatsidf+0x50>

Disassembly of section .text.startup:

80007c28 <main>:
80007c28:	ff010113          	addi	sp,sp,-16
80007c2c:	00100513          	li	a0,1
80007c30:	00112623          	sw	ra,12(sp)
80007c34:	ef5f90ef          	jal	ra,80001b28 <xQueueCreateMutex>
80007c38:	810017b7          	lui	a5,0x81001
80007c3c:	eaa7ae23          	sw	a0,-324(a5) # 81000ebc <__heap_start+0xfc00000c>
80007c40:	04050863          	beqz	a0,80007c90 <main+0x68>
80007c44:	810005b7          	lui	a1,0x81000
80007c48:	80000537          	lui	a0,0x80000
80007c4c:	00000793          	li	a5,0
80007c50:	00300713          	li	a4,3
80007c54:	00000693          	li	a3,0
80007c58:	10000613          	li	a2,256
80007c5c:	26858593          	addi	a1,a1,616 # 81000268 <__heap_start+0xfbfff3b8>
80007c60:	12c50513          	addi	a0,a0,300 # 8000012c <__heap_start+0xfafff27c>
80007c64:	ff1fa0ef          	jal	ra,80002c54 <xTaskCreate>
80007c68:	810005b7          	lui	a1,0x81000
80007c6c:	80000537          	lui	a0,0x80000
80007c70:	00000793          	li	a5,0
80007c74:	00300713          	li	a4,3
80007c78:	00000693          	li	a3,0
80007c7c:	10000613          	li	a2,256
80007c80:	27058593          	addi	a1,a1,624 # 81000270 <__heap_start+0xfbfff3c0>
80007c84:	00050513          	mv	a0,a0
80007c88:	fcdfa0ef          	jal	ra,80002c54 <xTaskCreate>
80007c8c:	c55fb0ef          	jal	ra,800038e0 <vTaskStartScheduler>
80007c90:	00c12083          	lw	ra,12(sp)
80007c94:	00000513          	li	a0,0
80007c98:	01010113          	addi	sp,sp,16
80007c9c:	00008067          	ret
