
dhry.out:     file format elf32-littleriscv


Disassembly of section .text:

00001000 <crt0>:
    1000:	ff010113          	addi	sp,sp,-16
    1004:	00112623          	sw	ra,12(sp)
    1008:	000072b7          	lui	t0,0x7
    100c:	9e22ae23          	sw	sp,-1540(t0) # 69fc <sp_store>
    1010:	000072b7          	lui	t0,0x7
    1014:	9d02a103          	lw	sp,-1584(t0) # 69d0 <stack_top>
    1018:	29d030ef          	jal	ra,4ab4 <main>
    101c:	000072b7          	lui	t0,0x7
    1020:	9fc2a103          	lw	sp,-1540(t0) # 69fc <sp_store>
    1024:	00c12083          	lw	ra,12(sp)
    1028:	01010113          	addi	sp,sp,16
    102c:	00008067          	ret

00001030 <Proc_2>:
    1030:	000097b7          	lui	a5,0x9
    1034:	12c7c703          	lbu	a4,300(a5) # 912c <Ch_1_Glob>
    1038:	04100793          	li	a5,65
    103c:	00f70463          	beq	a4,a5,1044 <Proc_2+0x14>
    1040:	00008067          	ret
    1044:	00052783          	lw	a5,0(a0)
    1048:	00009737          	lui	a4,0x9
    104c:	12872703          	lw	a4,296(a4) # 9128 <Int_Glob>
    1050:	00978793          	addi	a5,a5,9
    1054:	40e787b3          	sub	a5,a5,a4
    1058:	00f52023          	sw	a5,0(a0)
    105c:	00008067          	ret

00001060 <Proc_3>:
    1060:	000097b7          	lui	a5,0x9
    1064:	1307a603          	lw	a2,304(a5) # 9130 <Ptr_Glob>
    1068:	00060863          	beqz	a2,1078 <Proc_3+0x18>
    106c:	00062703          	lw	a4,0(a2)
    1070:	00e52023          	sw	a4,0(a0)
    1074:	1307a603          	lw	a2,304(a5)
    1078:	000097b7          	lui	a5,0x9
    107c:	1287a583          	lw	a1,296(a5) # 9128 <Int_Glob>
    1080:	00c60613          	addi	a2,a2,12
    1084:	00a00513          	li	a0,10
    1088:	2000006f          	j	1288 <Proc_7>

0000108c <Proc_1>:
    108c:	ff010113          	addi	sp,sp,-16
    1090:	01212023          	sw	s2,0(sp)
    1094:	00009937          	lui	s2,0x9
    1098:	13092783          	lw	a5,304(s2) # 9130 <Ptr_Glob>
    109c:	00812423          	sw	s0,8(sp)
    10a0:	00052403          	lw	s0,0(a0)
    10a4:	0007a703          	lw	a4,0(a5)
    10a8:	00912223          	sw	s1,4(sp)
    10ac:	0047ae83          	lw	t4,4(a5)
    10b0:	0087ae03          	lw	t3,8(a5)
    10b4:	0107a303          	lw	t1,16(a5)
    10b8:	0147a883          	lw	a7,20(a5)
    10bc:	0187a803          	lw	a6,24(a5)
    10c0:	0207a583          	lw	a1,32(a5)
    10c4:	0247a603          	lw	a2,36(a5)
    10c8:	0287a683          	lw	a3,40(a5)
    10cc:	00112623          	sw	ra,12(sp)
    10d0:	00050493          	mv	s1,a0
    10d4:	01c7a503          	lw	a0,28(a5)
    10d8:	02c7a783          	lw	a5,44(a5)
    10dc:	00e42023          	sw	a4,0(s0)
    10e0:	0004a703          	lw	a4,0(s1)
    10e4:	00a42e23          	sw	a0,28(s0)
    10e8:	02f42623          	sw	a5,44(s0)
    10ec:	01d42223          	sw	t4,4(s0)
    10f0:	00500793          	li	a5,5
    10f4:	01c42423          	sw	t3,8(s0)
    10f8:	00642823          	sw	t1,16(s0)
    10fc:	01142a23          	sw	a7,20(s0)
    1100:	01042c23          	sw	a6,24(s0)
    1104:	02b42023          	sw	a1,32(s0)
    1108:	02c42223          	sw	a2,36(s0)
    110c:	02d42423          	sw	a3,40(s0)
    1110:	00f4a623          	sw	a5,12(s1)
    1114:	00f42623          	sw	a5,12(s0)
    1118:	00e42023          	sw	a4,0(s0)
    111c:	00040513          	mv	a0,s0
    1120:	f41ff0ef          	jal	ra,1060 <Proc_3>
    1124:	00442783          	lw	a5,4(s0)
    1128:	08078063          	beqz	a5,11a8 <Proc_1+0x11c>
    112c:	0004a783          	lw	a5,0(s1)
    1130:	00c12083          	lw	ra,12(sp)
    1134:	00812403          	lw	s0,8(sp)
    1138:	0007af83          	lw	t6,0(a5)
    113c:	0047af03          	lw	t5,4(a5)
    1140:	0087ae83          	lw	t4,8(a5)
    1144:	00c7ae03          	lw	t3,12(a5)
    1148:	0107a303          	lw	t1,16(a5)
    114c:	0147a883          	lw	a7,20(a5)
    1150:	0187a803          	lw	a6,24(a5)
    1154:	01c7a583          	lw	a1,28(a5)
    1158:	0207a603          	lw	a2,32(a5)
    115c:	0247a683          	lw	a3,36(a5)
    1160:	0287a703          	lw	a4,40(a5)
    1164:	02c7a783          	lw	a5,44(a5)
    1168:	01f4a023          	sw	t6,0(s1)
    116c:	01e4a223          	sw	t5,4(s1)
    1170:	01d4a423          	sw	t4,8(s1)
    1174:	01c4a623          	sw	t3,12(s1)
    1178:	0064a823          	sw	t1,16(s1)
    117c:	0114aa23          	sw	a7,20(s1)
    1180:	0104ac23          	sw	a6,24(s1)
    1184:	00b4ae23          	sw	a1,28(s1)
    1188:	02c4a023          	sw	a2,32(s1)
    118c:	02d4a223          	sw	a3,36(s1)
    1190:	02e4a423          	sw	a4,40(s1)
    1194:	02f4a623          	sw	a5,44(s1)
    1198:	00012903          	lw	s2,0(sp)
    119c:	00412483          	lw	s1,4(sp)
    11a0:	01010113          	addi	sp,sp,16
    11a4:	00008067          	ret
    11a8:	0084a503          	lw	a0,8(s1)
    11ac:	00600793          	li	a5,6
    11b0:	00840593          	addi	a1,s0,8
    11b4:	00f42623          	sw	a5,12(s0)
    11b8:	07c000ef          	jal	ra,1234 <Proc_6>
    11bc:	13092783          	lw	a5,304(s2)
    11c0:	00c42503          	lw	a0,12(s0)
    11c4:	00c40613          	addi	a2,s0,12
    11c8:	0007a783          	lw	a5,0(a5)
    11cc:	00c12083          	lw	ra,12(sp)
    11d0:	00412483          	lw	s1,4(sp)
    11d4:	00f42023          	sw	a5,0(s0)
    11d8:	00812403          	lw	s0,8(sp)
    11dc:	00012903          	lw	s2,0(sp)
    11e0:	00a00593          	li	a1,10
    11e4:	01010113          	addi	sp,sp,16
    11e8:	0a00006f          	j	1288 <Proc_7>

000011ec <Proc_4>:
    11ec:	000097b7          	lui	a5,0x9
    11f0:	12c7c783          	lbu	a5,300(a5) # 912c <Ch_1_Glob>
    11f4:	00009737          	lui	a4,0x9
    11f8:	20072683          	lw	a3,512(a4) # 9200 <Bool_Glob>
    11fc:	fbf78793          	addi	a5,a5,-65
    1200:	0017b793          	seqz	a5,a5
    1204:	00d7e7b3          	or	a5,a5,a3
    1208:	20f72023          	sw	a5,512(a4)
    120c:	000097b7          	lui	a5,0x9
    1210:	04200713          	li	a4,66
    1214:	12e786a3          	sb	a4,301(a5) # 912d <Ch_2_Glob>
    1218:	00008067          	ret

0000121c <Proc_5>:
    121c:	000097b7          	lui	a5,0x9
    1220:	04100713          	li	a4,65
    1224:	12e78623          	sb	a4,300(a5) # 912c <Ch_1_Glob>
    1228:	000097b7          	lui	a5,0x9
    122c:	2007a023          	sw	zero,512(a5) # 9200 <Bool_Glob>
    1230:	00008067          	ret

00001234 <Proc_6>:
    1234:	00200793          	li	a5,2
    1238:	02f50663          	beq	a0,a5,1264 <Proc_6+0x30>
    123c:	00300713          	li	a4,3
    1240:	00e5a023          	sw	a4,0(a1)
    1244:	00100713          	li	a4,1
    1248:	02e50463          	beq	a0,a4,1270 <Proc_6+0x3c>
    124c:	02050a63          	beqz	a0,1280 <Proc_6+0x4c>
    1250:	00400713          	li	a4,4
    1254:	00e50463          	beq	a0,a4,125c <Proc_6+0x28>
    1258:	00008067          	ret
    125c:	00f5a023          	sw	a5,0(a1)
    1260:	00008067          	ret
    1264:	00100793          	li	a5,1
    1268:	00f5a023          	sw	a5,0(a1)
    126c:	00008067          	ret
    1270:	000097b7          	lui	a5,0x9
    1274:	1287a703          	lw	a4,296(a5) # 9128 <Int_Glob>
    1278:	06400793          	li	a5,100
    127c:	fee7d2e3          	ble	a4,a5,1260 <Proc_6+0x2c>
    1280:	0005a023          	sw	zero,0(a1)
    1284:	00008067          	ret

00001288 <Proc_7>:
    1288:	00250513          	addi	a0,a0,2
    128c:	00b505b3          	add	a1,a0,a1
    1290:	00b62023          	sw	a1,0(a2)
    1294:	00008067          	ret

00001298 <Proc_8>:
    1298:	00560713          	addi	a4,a2,5
    129c:	0c800813          	li	a6,200
    12a0:	03070833          	mul	a6,a4,a6
    12a4:	00261613          	slli	a2,a2,0x2
    12a8:	00271793          	slli	a5,a4,0x2
    12ac:	00f50533          	add	a0,a0,a5
    12b0:	00d52023          	sw	a3,0(a0)
    12b4:	06e52c23          	sw	a4,120(a0)
    12b8:	00d52223          	sw	a3,4(a0)
    12bc:	00c807b3          	add	a5,a6,a2
    12c0:	00f587b3          	add	a5,a1,a5
    12c4:	0107a683          	lw	a3,16(a5)
    12c8:	00e7aa23          	sw	a4,20(a5)
    12cc:	00e7ac23          	sw	a4,24(a5)
    12d0:	00168713          	addi	a4,a3,1
    12d4:	00e7a823          	sw	a4,16(a5)
    12d8:	00052783          	lw	a5,0(a0)
    12dc:	010585b3          	add	a1,a1,a6
    12e0:	00c585b3          	add	a1,a1,a2
    12e4:	00001637          	lui	a2,0x1
    12e8:	00b605b3          	add	a1,a2,a1
    12ec:	faf5aa23          	sw	a5,-76(a1)
    12f0:	00500713          	li	a4,5
    12f4:	000097b7          	lui	a5,0x9
    12f8:	12e7a423          	sw	a4,296(a5) # 9128 <Int_Glob>
    12fc:	00008067          	ret

00001300 <Func_1>:
    1300:	0ff57513          	andi	a0,a0,255
    1304:	0ff5f593          	andi	a1,a1,255
    1308:	00b50663          	beq	a0,a1,1314 <Func_1+0x14>
    130c:	00000513          	li	a0,0
    1310:	00008067          	ret
    1314:	000097b7          	lui	a5,0x9
    1318:	12a78623          	sb	a0,300(a5) # 912c <Ch_1_Glob>
    131c:	00100513          	li	a0,1
    1320:	00008067          	ret

00001324 <Func_2>:
    1324:	ff010113          	addi	sp,sp,-16
    1328:	00112623          	sw	ra,12(sp)
    132c:	00009837          	lui	a6,0x9
    1330:	00254783          	lbu	a5,2(a0)
    1334:	0035c703          	lbu	a4,3(a1)
    1338:	12c84603          	lbu	a2,300(a6) # 912c <Ch_1_Glob>
    133c:	00000693          	li	a3,0
    1340:	02e78c63          	beq	a5,a4,1378 <Func_2+0x54>
    1344:	00068463          	beqz	a3,134c <Func_2+0x28>
    1348:	12c80623          	sb	a2,300(a6)
    134c:	4e5000ef          	jal	ra,2030 <strcmp>
    1350:	00000793          	li	a5,0
    1354:	00a05a63          	blez	a0,1368 <Func_2+0x44>
    1358:	000097b7          	lui	a5,0x9
    135c:	00a00713          	li	a4,10
    1360:	12e7a423          	sw	a4,296(a5) # 9128 <Int_Glob>
    1364:	00100793          	li	a5,1
    1368:	00c12083          	lw	ra,12(sp)
    136c:	00078513          	mv	a0,a5
    1370:	01010113          	addi	sp,sp,16
    1374:	00008067          	ret
    1378:	00100693          	li	a3,1
    137c:	00078613          	mv	a2,a5
    1380:	fc1ff06f          	j	1340 <Func_2+0x1c>

00001384 <Func_3>:
    1384:	ffe50513          	addi	a0,a0,-2
    1388:	00153513          	seqz	a0,a0
    138c:	00008067          	ret

00001390 <getchar>:
    1390:	ff010113          	addi	sp,sp,-16
    1394:	00112623          	sw	ra,12(sp)
    1398:	549000ef          	jal	ra,20e0 <inbyte>
    139c:	00c12083          	lw	ra,12(sp)
    13a0:	01010113          	addi	sp,sp,16
    13a4:	00008067          	ret

000013a8 <putchar>:
    13a8:	ff010113          	addi	sp,sp,-16
    13ac:	00812423          	sw	s0,8(sp)
    13b0:	00050413          	mv	s0,a0
    13b4:	0ff57513          	andi	a0,a0,255
    13b8:	00112623          	sw	ra,12(sp)
    13bc:	541000ef          	jal	ra,20fc <outbyte>
    13c0:	00040513          	mv	a0,s0
    13c4:	00c12083          	lw	ra,12(sp)
    13c8:	00812403          	lw	s0,8(sp)
    13cc:	01010113          	addi	sp,sp,16
    13d0:	00008067          	ret

000013d4 <fputs>:
    13d4:	000077b7          	lui	a5,0x7
    13d8:	9d87a783          	lw	a5,-1576(a5) # 69d8 <stdout>
    13dc:	ff010113          	addi	sp,sp,-16
    13e0:	00112623          	sw	ra,12(sp)
    13e4:	00812423          	sw	s0,8(sp)
    13e8:	02b78a63          	beq	a5,a1,141c <fputs+0x48>
    13ec:	000077b7          	lui	a5,0x7
    13f0:	9dc7a583          	lw	a1,-1572(a5) # 69dc <stdin>
    13f4:	00006537          	lui	a0,0x6
    13f8:	6d050513          	addi	a0,a0,1744 # 66d0 <heap_top+0x14b4>
    13fc:	fd9ff0ef          	jal	ra,13d4 <fputs>
    1400:	00a00513          	li	a0,10
    1404:	4f9000ef          	jal	ra,20fc <outbyte>
    1408:	00c12083          	lw	ra,12(sp)
    140c:	00812403          	lw	s0,8(sp)
    1410:	00a00513          	li	a0,10
    1414:	01010113          	addi	sp,sp,16
    1418:	00008067          	ret
    141c:	00050413          	mv	s0,a0
    1420:	00054503          	lbu	a0,0(a0)
    1424:	fc050ee3          	beqz	a0,1400 <fputs+0x2c>
    1428:	00140413          	addi	s0,s0,1
    142c:	4d1000ef          	jal	ra,20fc <outbyte>
    1430:	00044503          	lbu	a0,0(s0)
    1434:	fe051ae3          	bnez	a0,1428 <fputs+0x54>
    1438:	00a00513          	li	a0,10
    143c:	4c1000ef          	jal	ra,20fc <outbyte>
    1440:	00c12083          	lw	ra,12(sp)
    1444:	00812403          	lw	s0,8(sp)
    1448:	00a00513          	li	a0,10
    144c:	01010113          	addi	sp,sp,16
    1450:	00008067          	ret

00001454 <fgets>:
    1454:	000077b7          	lui	a5,0x7
    1458:	9dc7a783          	lw	a5,-1572(a5) # 69dc <stdin>
    145c:	fe010113          	addi	sp,sp,-32
    1460:	00112e23          	sw	ra,28(sp)
    1464:	00812c23          	sw	s0,24(sp)
    1468:	00912a23          	sw	s1,20(sp)
    146c:	01212823          	sw	s2,16(sp)
    1470:	01312623          	sw	s3,12(sp)
    1474:	01412423          	sw	s4,8(sp)
    1478:	06c79663          	bne	a5,a2,14e4 <fgets+0x90>
    147c:	00050a13          	mv	s4,a0
    1480:	00050413          	mv	s0,a0
    1484:	00a00493          	li	s1,10
    1488:	00d00913          	li	s2,13
    148c:	00b509b3          	add	s3,a0,a1
    1490:	00059c63          	bnez	a1,14a8 <fgets+0x54>
    1494:	0200006f          	j	14b4 <fgets+0x60>
    1498:	01250e63          	beq	a0,s2,14b4 <fgets+0x60>
    149c:	00140413          	addi	s0,s0,1
    14a0:	45d000ef          	jal	ra,20fc <outbyte>
    14a4:	01340863          	beq	s0,s3,14b4 <fgets+0x60>
    14a8:	439000ef          	jal	ra,20e0 <inbyte>
    14ac:	00a40023          	sb	a0,0(s0)
    14b0:	fe9514e3          	bne	a0,s1,1498 <fgets+0x44>
    14b4:	00a00513          	li	a0,10
    14b8:	445000ef          	jal	ra,20fc <outbyte>
    14bc:	00040023          	sb	zero,0(s0)
    14c0:	01c12083          	lw	ra,28(sp)
    14c4:	01812403          	lw	s0,24(sp)
    14c8:	000a0513          	mv	a0,s4
    14cc:	01412483          	lw	s1,20(sp)
    14d0:	01012903          	lw	s2,16(sp)
    14d4:	00c12983          	lw	s3,12(sp)
    14d8:	00812a03          	lw	s4,8(sp)
    14dc:	02010113          	addi	sp,sp,32
    14e0:	00008067          	ret
    14e4:	00006537          	lui	a0,0x6
    14e8:	00078593          	mv	a1,a5
    14ec:	6fc50513          	addi	a0,a0,1788 # 66fc <heap_top+0x14e0>
    14f0:	ee5ff0ef          	jal	ra,13d4 <fputs>
    14f4:	01c12083          	lw	ra,28(sp)
    14f8:	01812403          	lw	s0,24(sp)
    14fc:	01412483          	lw	s1,20(sp)
    1500:	01012903          	lw	s2,16(sp)
    1504:	00c12983          	lw	s3,12(sp)
    1508:	00812a03          	lw	s4,8(sp)
    150c:	00000513          	li	a0,0
    1510:	02010113          	addi	sp,sp,32
    1514:	00008067          	ret

00001518 <putd>:
    1518:	0c050063          	beqz	a0,15d8 <putd+0xc0>
    151c:	fe010113          	addi	sp,sp,-32
    1520:	00912a23          	sw	s1,20(sp)
    1524:	01512223          	sw	s5,4(sp)
    1528:	00112e23          	sw	ra,28(sp)
    152c:	00812c23          	sw	s0,24(sp)
    1530:	01212823          	sw	s2,16(sp)
    1534:	01312623          	sw	s3,12(sp)
    1538:	01412423          	sw	s4,8(sp)
    153c:	00050493          	mv	s1,a0
    1540:	00058a93          	mv	s5,a1
    1544:	08060063          	beqz	a2,15c4 <putd+0xac>
    1548:	3b9ad7b7          	lui	a5,0x3b9ad
    154c:	00a00413          	li	s0,10
    1550:	00100a13          	li	s4,1
    1554:	a0078793          	addi	a5,a5,-1536 # 3b9aca00 <__stack_top+0x3b99ca10>
    1558:	00a00993          	li	s3,10
    155c:	0240006f          	j	1580 <putd+0x68>
    1560:	02f4f4b3          	remu	s1,s1,a5
    1564:	00000a13          	li	s4,0
    1568:	03050513          	addi	a0,a0,48
    156c:	0ff57513          	andi	a0,a0,255
    1570:	38d000ef          	jal	ra,20fc <outbyte>
    1574:	fff40413          	addi	s0,s0,-1
    1578:	00090793          	mv	a5,s2
    157c:	02040263          	beqz	s0,15a0 <putd+0x88>
    1580:	02f4d533          	divu	a0,s1,a5
    1584:	0337d933          	divu	s2,a5,s3
    1588:	fc051ce3          	bnez	a0,1560 <putd+0x48>
    158c:	fc0a0ee3          	beqz	s4,1568 <putd+0x50>
    1590:	fc0a9ce3          	bnez	s5,1568 <putd+0x50>
    1594:	fff40413          	addi	s0,s0,-1
    1598:	00090793          	mv	a5,s2
    159c:	fe0412e3          	bnez	s0,1580 <putd+0x68>
    15a0:	01c12083          	lw	ra,28(sp)
    15a4:	01812403          	lw	s0,24(sp)
    15a8:	01412483          	lw	s1,20(sp)
    15ac:	01012903          	lw	s2,16(sp)
    15b0:	00c12983          	lw	s3,12(sp)
    15b4:	00812a03          	lw	s4,8(sp)
    15b8:	00412a83          	lw	s5,4(sp)
    15bc:	02010113          	addi	sp,sp,32
    15c0:	00008067          	ret
    15c4:	f80552e3          	bgez	a0,1548 <putd+0x30>
    15c8:	02d00513          	li	a0,45
    15cc:	409004b3          	neg	s1,s1
    15d0:	32d000ef          	jal	ra,20fc <outbyte>
    15d4:	f75ff06f          	j	1548 <putd+0x30>
    15d8:	03000513          	li	a0,48
    15dc:	3210006f          	j	20fc <outbyte>

000015e0 <putx>:
    15e0:	fd010113          	addi	sp,sp,-48
    15e4:	01f5d793          	srli	a5,a1,0x1f
    15e8:	03212023          	sw	s2,32(sp)
    15ec:	00f58933          	add	s2,a1,a5
    15f0:	00197913          	andi	s2,s2,1
    15f4:	40f90933          	sub	s2,s2,a5
    15f8:	000067b7          	lui	a5,0x6
    15fc:	72878793          	addi	a5,a5,1832 # 6728 <heap_top+0x150c>
    1600:	00f12423          	sw	a5,8(sp)
    1604:	000067b7          	lui	a5,0x6
    1608:	73c78793          	addi	a5,a5,1852 # 673c <heap_top+0x1520>
    160c:	00291913          	slli	s2,s2,0x2
    1610:	00f12623          	sw	a5,12(sp)
    1614:	01010793          	addi	a5,sp,16
    1618:	02812423          	sw	s0,40(sp)
    161c:	02912223          	sw	s1,36(sp)
    1620:	01312e23          	sw	s3,28(sp)
    1624:	01412c23          	sw	s4,24(sp)
    1628:	01512a23          	sw	s5,20(sp)
    162c:	01612823          	sw	s6,16(sp)
    1630:	02112623          	sw	ra,44(sp)
    1634:	00050493          	mv	s1,a0
    1638:	00060a93          	mv	s5,a2
    163c:	01c00413          	li	s0,28
    1640:	00100a13          	li	s4,1
    1644:	01278933          	add	s2,a5,s2
    1648:	02000b13          	li	s6,32
    164c:	ffc00993          	li	s3,-4
    1650:	0240006f          	j	1674 <putx+0x94>
    1654:	00f6d4b3          	srl	s1,a3,a5
    1658:	00000a13          	li	s4,0
    165c:	ff892783          	lw	a5,-8(s2)
    1660:	ffc40413          	addi	s0,s0,-4
    1664:	00e787b3          	add	a5,a5,a4
    1668:	0007c503          	lbu	a0,0(a5)
    166c:	291000ef          	jal	ra,20fc <outbyte>
    1670:	03340263          	beq	s0,s3,1694 <putx+0xb4>
    1674:	408b07b3          	sub	a5,s6,s0
    1678:	0084d733          	srl	a4,s1,s0
    167c:	00f496b3          	sll	a3,s1,a5
    1680:	fc071ae3          	bnez	a4,1654 <putx+0x74>
    1684:	fc0a0ce3          	beqz	s4,165c <putx+0x7c>
    1688:	fc0a9ae3          	bnez	s5,165c <putx+0x7c>
    168c:	ffc40413          	addi	s0,s0,-4
    1690:	ff3412e3          	bne	s0,s3,1674 <putx+0x94>
    1694:	02c12083          	lw	ra,44(sp)
    1698:	02812403          	lw	s0,40(sp)
    169c:	02412483          	lw	s1,36(sp)
    16a0:	02012903          	lw	s2,32(sp)
    16a4:	01c12983          	lw	s3,28(sp)
    16a8:	01812a03          	lw	s4,24(sp)
    16ac:	01412a83          	lw	s5,20(sp)
    16b0:	01012b03          	lw	s6,16(sp)
    16b4:	03010113          	addi	sp,sp,48
    16b8:	00008067          	ret

000016bc <putf>:
    16bc:	fe010113          	addi	sp,sp,-32
    16c0:	00812c23          	sw	s0,24(sp)
    16c4:	00912a23          	sw	s1,20(sp)
    16c8:	00058413          	mv	s0,a1
    16cc:	00050493          	mv	s1,a0
    16d0:	01312623          	sw	s3,12(sp)
    16d4:	00048513          	mv	a0,s1
    16d8:	00060993          	mv	s3,a2
    16dc:	00040593          	mv	a1,s0
    16e0:	00000613          	li	a2,0
    16e4:	00000693          	li	a3,0
    16e8:	00112e23          	sw	ra,28(sp)
    16ec:	01212823          	sw	s2,16(sp)
    16f0:	01412423          	sw	s4,8(sp)
    16f4:	01612223          	sw	s6,4(sp)
    16f8:	01712023          	sw	s7,0(sp)
    16fc:	54d010ef          	jal	ra,3448 <__ledf2>
    1700:	10054e63          	bltz	a0,181c <putf+0x160>
    1704:	00040593          	mv	a1,s0
    1708:	00048513          	mv	a0,s1
    170c:	3a9020ef          	jal	ra,42b4 <__fixdfsi>
    1710:	00050a13          	mv	s4,a0
    1714:	421020ef          	jal	ra,4334 <__floatsidf>
    1718:	00050613          	mv	a2,a0
    171c:	00058693          	mv	a3,a1
    1720:	00048513          	mv	a0,s1
    1724:	00040593          	mv	a1,s0
    1728:	3c8020ef          	jal	ra,3af0 <__subdf3>
    172c:	00050b13          	mv	s6,a0
    1730:	00058b93          	mv	s7,a1
    1734:	0f305e63          	blez	s3,1830 <putf+0x174>
    1738:	00100413          	li	s0,1
    173c:	00000913          	li	s2,0
    1740:	0080006f          	j	1748 <putf+0x8c>
    1744:	00048913          	mv	s2,s1
    1748:	00241793          	slli	a5,s0,0x2
    174c:	00878433          	add	s0,a5,s0
    1750:	00190493          	addi	s1,s2,1
    1754:	00141413          	slli	s0,s0,0x1
    1758:	fe9996e3          	bne	s3,s1,1744 <putf+0x88>
    175c:	00040513          	mv	a0,s0
    1760:	3d5020ef          	jal	ra,4334 <__floatsidf>
    1764:	000b0613          	mv	a2,s6
    1768:	000b8693          	mv	a3,s7
    176c:	5c5010ef          	jal	ra,3530 <__muldf3>
    1770:	000057b7          	lui	a5,0x5
    1774:	2107a603          	lw	a2,528(a5) # 5210 <__heap_size+0x210>
    1778:	2147a683          	lw	a3,532(a5)
    177c:	63d000ef          	jal	ra,25b8 <__adddf3>
    1780:	335020ef          	jal	ra,42b4 <__fixdfsi>
    1784:	028547b3          	div	a5,a0,s0
    1788:	00050993          	mv	s3,a0
    178c:	0c079463          	bnez	a5,1854 <putf+0x198>
    1790:	00048793          	mv	a5,s1
    1794:	00a00693          	li	a3,10
    1798:	00c0006f          	j	17a4 <putf+0xe8>
    179c:	0289c733          	div	a4,s3,s0
    17a0:	06071663          	bnez	a4,180c <putf+0x150>
    17a4:	fff78793          	addi	a5,a5,-1
    17a8:	02d44433          	div	s0,s0,a3
    17ac:	fe0798e3          	bnez	a5,179c <putf+0xe0>
    17b0:	040a1463          	bnez	s4,17f8 <putf+0x13c>
    17b4:	03000513          	li	a0,48
    17b8:	145000ef          	jal	ra,20fc <outbyte>
    17bc:	02e00513          	li	a0,46
    17c0:	13d000ef          	jal	ra,20fc <outbyte>
    17c4:	01812403          	lw	s0,24(sp)
    17c8:	01c12083          	lw	ra,28(sp)
    17cc:	01412483          	lw	s1,20(sp)
    17d0:	00812a03          	lw	s4,8(sp)
    17d4:	00412b03          	lw	s6,4(sp)
    17d8:	00012b83          	lw	s7,0(sp)
    17dc:	00090593          	mv	a1,s2
    17e0:	00098513          	mv	a0,s3
    17e4:	01012903          	lw	s2,16(sp)
    17e8:	00c12983          	lw	s3,12(sp)
    17ec:	00100613          	li	a2,1
    17f0:	02010113          	addi	sp,sp,32
    17f4:	d25ff06f          	j	1518 <putd>
    17f8:	00100613          	li	a2,1
    17fc:	00000593          	li	a1,0
    1800:	000a0513          	mv	a0,s4
    1804:	d15ff0ef          	jal	ra,1518 <putd>
    1808:	fb5ff06f          	j	17bc <putf+0x100>
    180c:	40f487b3          	sub	a5,s1,a5
    1810:	fff78913          	addi	s2,a5,-1
    1814:	fa0a00e3          	beqz	s4,17b4 <putf+0xf8>
    1818:	fe1ff06f          	j	17f8 <putf+0x13c>
    181c:	800007b7          	lui	a5,0x80000
    1820:	02d00513          	li	a0,45
    1824:	0087c433          	xor	s0,a5,s0
    1828:	0d5000ef          	jal	ra,20fc <outbyte>
    182c:	ed9ff06f          	j	1704 <putf+0x48>
    1830:	000057b7          	lui	a5,0x5
    1834:	2107a603          	lw	a2,528(a5) # 5210 <__heap_size+0x210>
    1838:	2147a683          	lw	a3,532(a5)
    183c:	fff00913          	li	s2,-1
    1840:	579000ef          	jal	ra,25b8 <__adddf3>
    1844:	271020ef          	jal	ra,42b4 <__fixdfsi>
    1848:	00050993          	mv	s3,a0
    184c:	f60a04e3          	beqz	s4,17b4 <putf+0xf8>
    1850:	fa9ff06f          	j	17f8 <putf+0x13c>
    1854:	fff00913          	li	s2,-1
    1858:	f40a0ee3          	beqz	s4,17b4 <putf+0xf8>
    185c:	f9dff06f          	j	17f8 <putf+0x13c>

00001860 <printf>:
    1860:	f8010113          	addi	sp,sp,-128
    1864:	03b12623          	sw	s11,44(sp)
    1868:	06f12a23          	sw	a5,116(sp)
    186c:	04112e23          	sw	ra,92(sp)
    1870:	04812c23          	sw	s0,88(sp)
    1874:	04912a23          	sw	s1,84(sp)
    1878:	05212823          	sw	s2,80(sp)
    187c:	05312623          	sw	s3,76(sp)
    1880:	05412423          	sw	s4,72(sp)
    1884:	05512223          	sw	s5,68(sp)
    1888:	05612023          	sw	s6,64(sp)
    188c:	03712e23          	sw	s7,60(sp)
    1890:	03812c23          	sw	s8,56(sp)
    1894:	03912a23          	sw	s9,52(sp)
    1898:	03a12823          	sw	s10,48(sp)
    189c:	06b12223          	sw	a1,100(sp)
    18a0:	06c12423          	sw	a2,104(sp)
    18a4:	06d12623          	sw	a3,108(sp)
    18a8:	06e12823          	sw	a4,112(sp)
    18ac:	07012c23          	sw	a6,120(sp)
    18b0:	07112e23          	sw	a7,124(sp)
    18b4:	06410793          	addi	a5,sp,100
    18b8:	00050d93          	mv	s11,a0
    18bc:	00054503          	lbu	a0,0(a0)
    18c0:	00f12e23          	sw	a5,28(sp)
    18c4:	00600793          	li	a5,6
    18c8:	00f12623          	sw	a5,12(sp)
    18cc:	12050063          	beqz	a0,19ec <printf+0x18c>
    18d0:	00006937          	lui	s2,0x6
    18d4:	00000c93          	li	s9,0
    18d8:	00000d13          	li	s10,0
    18dc:	02500493          	li	s1,37
    18e0:	03000b93          	li	s7,48
    18e4:	07500b13          	li	s6,117
    18e8:	06c00a93          	li	s5,108
    18ec:	02e00a13          	li	s4,46
    18f0:	02000993          	li	s3,32
    18f4:	64c90913          	addi	s2,s2,1612 # 664c <heap_top+0x1430>
    18f8:	01c0006f          	j	1914 <printf+0xb4>
    18fc:	001000ef          	jal	ra,20fc <outbyte>
    1900:	00040793          	mv	a5,s0
    1904:	000d8413          	mv	s0,s11
    1908:	00078d93          	mv	s11,a5
    190c:	00144503          	lbu	a0,1(s0)
    1910:	0c050e63          	beqz	a0,19ec <printf+0x18c>
    1914:	001d8413          	addi	s0,s11,1
    1918:	fe9512e3          	bne	a0,s1,18fc <printf+0x9c>
    191c:	001dc703          	lbu	a4,1(s11)
    1920:	11770663          	beq	a4,s7,1a2c <printf+0x1cc>
    1924:	fd070793          	addi	a5,a4,-48
    1928:	0ff7f793          	andi	a5,a5,255
    192c:	00900693          	li	a3,9
    1930:	00f6ee63          	bltu	a3,a5,194c <printf+0xec>
    1934:	00900693          	li	a3,9
    1938:	00140413          	addi	s0,s0,1
    193c:	00044703          	lbu	a4,0(s0)
    1940:	fd070793          	addi	a5,a4,-48
    1944:	0ff7f793          	andi	a5,a5,255
    1948:	fef6f8e3          	bleu	a5,a3,1938 <printf+0xd8>
    194c:	01671663          	bne	a4,s6,1958 <printf+0xf8>
    1950:	00140413          	addi	s0,s0,1
    1954:	00100d13          	li	s10,1
    1958:	00044503          	lbu	a0,0(s0)
    195c:	03550463          	beq	a0,s5,1984 <printf+0x124>
    1960:	03450863          	beq	a0,s4,1990 <printf+0x130>
    1964:	fa850793          	addi	a5,a0,-88
    1968:	0ff7f793          	andi	a5,a5,255
    196c:	00140d93          	addi	s11,s0,1
    1970:	06f9e863          	bltu	s3,a5,19e0 <printf+0x180>
    1974:	00279793          	slli	a5,a5,0x2
    1978:	012787b3          	add	a5,a5,s2
    197c:	0007a783          	lw	a5,0(a5)
    1980:	00078067          	jr	a5
    1984:	00144503          	lbu	a0,1(s0)
    1988:	00140413          	addi	s0,s0,1
    198c:	fd451ce3          	bne	a0,s4,1964 <printf+0x104>
    1990:	00144c03          	lbu	s8,1(s0)
    1994:	00a00693          	li	a3,10
    1998:	00244503          	lbu	a0,2(s0)
    199c:	fd0c0c13          	addi	s8,s8,-48
    19a0:	02dc66b3          	rem	a3,s8,a3
    19a4:	fd050793          	addi	a5,a0,-48
    19a8:	0ff7f793          	andi	a5,a5,255
    19ac:	00900713          	li	a4,9
    19b0:	00240413          	addi	s0,s0,2
    19b4:	00d12623          	sw	a3,12(sp)
    19b8:	faf766e3          	bltu	a4,a5,1964 <printf+0x104>
    19bc:	00140413          	addi	s0,s0,1
    19c0:	00044503          	lbu	a0,0(s0)
    19c4:	fd050793          	addi	a5,a0,-48
    19c8:	0ff7f793          	andi	a5,a5,255
    19cc:	fef778e3          	bleu	a5,a4,19bc <printf+0x15c>
    19d0:	fa850793          	addi	a5,a0,-88
    19d4:	0ff7f793          	andi	a5,a5,255
    19d8:	00140d93          	addi	s11,s0,1
    19dc:	f8f9fce3          	bleu	a5,s3,1974 <printf+0x114>
    19e0:	71c000ef          	jal	ra,20fc <outbyte>
    19e4:	00144503          	lbu	a0,1(s0)
    19e8:	f20516e3          	bnez	a0,1914 <printf+0xb4>
    19ec:	05c12083          	lw	ra,92(sp)
    19f0:	05812403          	lw	s0,88(sp)
    19f4:	05412483          	lw	s1,84(sp)
    19f8:	05012903          	lw	s2,80(sp)
    19fc:	04c12983          	lw	s3,76(sp)
    1a00:	04812a03          	lw	s4,72(sp)
    1a04:	04412a83          	lw	s5,68(sp)
    1a08:	04012b03          	lw	s6,64(sp)
    1a0c:	03c12b83          	lw	s7,60(sp)
    1a10:	03812c03          	lw	s8,56(sp)
    1a14:	03412c83          	lw	s9,52(sp)
    1a18:	03012d03          	lw	s10,48(sp)
    1a1c:	02c12d83          	lw	s11,44(sp)
    1a20:	00000513          	li	a0,0
    1a24:	08010113          	addi	sp,sp,128
    1a28:	00008067          	ret
    1a2c:	00100c93          	li	s9,1
    1a30:	f05ff06f          	j	1934 <printf+0xd4>
    1a34:	01c12783          	lw	a5,28(sp)
    1a38:	000c8613          	mv	a2,s9
    1a3c:	00000593          	li	a1,0
    1a40:	0007a503          	lw	a0,0(a5)
    1a44:	00478793          	addi	a5,a5,4
    1a48:	00f12e23          	sw	a5,28(sp)
    1a4c:	b95ff0ef          	jal	ra,15e0 <putx>
    1a50:	ebdff06f          	j	190c <printf+0xac>
    1a54:	01c12703          	lw	a4,28(sp)
    1a58:	00072c03          	lw	s8,0(a4)
    1a5c:	00470713          	addi	a4,a4,4
    1a60:	00e12e23          	sw	a4,28(sp)
    1a64:	000c4503          	lbu	a0,0(s8)
    1a68:	ea0502e3          	beqz	a0,190c <printf+0xac>
    1a6c:	001c0c13          	addi	s8,s8,1
    1a70:	68c000ef          	jal	ra,20fc <outbyte>
    1a74:	000c4503          	lbu	a0,0(s8)
    1a78:	fe051ae3          	bnez	a0,1a6c <printf+0x20c>
    1a7c:	e91ff06f          	j	190c <printf+0xac>
    1a80:	01c12783          	lw	a5,28(sp)
    1a84:	00c12603          	lw	a2,12(sp)
    1a88:	00778793          	addi	a5,a5,7
    1a8c:	ff87f793          	andi	a5,a5,-8
    1a90:	0007a503          	lw	a0,0(a5)
    1a94:	0047a583          	lw	a1,4(a5)
    1a98:	00878793          	addi	a5,a5,8
    1a9c:	00f12e23          	sw	a5,28(sp)
    1aa0:	c1dff0ef          	jal	ra,16bc <putf>
    1aa4:	e69ff06f          	j	190c <printf+0xac>
    1aa8:	01c12783          	lw	a5,28(sp)
    1aac:	000d0613          	mv	a2,s10
    1ab0:	00000593          	li	a1,0
    1ab4:	0007a503          	lw	a0,0(a5)
    1ab8:	00478793          	addi	a5,a5,4
    1abc:	00f12e23          	sw	a5,28(sp)
    1ac0:	a59ff0ef          	jal	ra,1518 <putd>
    1ac4:	e49ff06f          	j	190c <printf+0xac>
    1ac8:	01c12783          	lw	a5,28(sp)
    1acc:	000c8613          	mv	a2,s9
    1ad0:	00100593          	li	a1,1
    1ad4:	0007a503          	lw	a0,0(a5)
    1ad8:	00478793          	addi	a5,a5,4
    1adc:	00f12e23          	sw	a5,28(sp)
    1ae0:	b01ff0ef          	jal	ra,15e0 <putx>
    1ae4:	e29ff06f          	j	190c <printf+0xac>

00001ae8 <exit>:
    1ae8:	fe010113          	addi	sp,sp,-32
    1aec:	00112e23          	sw	ra,28(sp)
    1af0:	00812c23          	sw	s0,24(sp)
    1af4:	02010413          	addi	s0,sp,32
    1af8:	fea42623          	sw	a0,-20(s0)
    1afc:	fec42583          	lw	a1,-20(s0)
    1b00:	000067b7          	lui	a5,0x6
    1b04:	75078513          	addi	a0,a5,1872 # 6750 <heap_top+0x1534>
    1b08:	d59ff0ef          	jal	ra,1860 <printf>
    1b0c:	000067b7          	lui	a5,0x6
    1b10:	77878513          	addi	a0,a5,1912 # 6778 <heap_top+0x155c>
    1b14:	d4dff0ef          	jal	ra,1860 <printf>
    1b18:	000067b7          	lui	a5,0x6
    1b1c:	7b878513          	addi	a0,a5,1976 # 67b8 <heap_top+0x159c>
    1b20:	d41ff0ef          	jal	ra,1860 <printf>
    1b24:	000067b7          	lui	a5,0x6
    1b28:	7e478513          	addi	a0,a5,2020 # 67e4 <heap_top+0x15c8>
    1b2c:	d35ff0ef          	jal	ra,1860 <printf>
    1b30:	0000006f          	j	1b30 <exit+0x48>

00001b34 <srand>:
    1b34:	000077b7          	lui	a5,0x7
    1b38:	9ea7a823          	sw	a0,-1552(a5) # 69f0 <rand_seed>
    1b3c:	00008067          	ret

00001b40 <rand>:
    1b40:	000076b7          	lui	a3,0x7
    1b44:	9f06a783          	lw	a5,-1552(a3) # 69f0 <rand_seed>
    1b48:	00034737          	lui	a4,0x34
    1b4c:	3fd70713          	addi	a4,a4,1021 # 343fd <__stack_top+0x2440d>
    1b50:	02e787b3          	mul	a5,a5,a4
    1b54:	0026a737          	lui	a4,0x26a
    1b58:	ec370713          	addi	a4,a4,-317 # 269ec3 <__stack_top+0x259ed3>
    1b5c:	00e787b3          	add	a5,a5,a4
    1b60:	00179513          	slli	a0,a5,0x1
    1b64:	9ef6a823          	sw	a5,-1552(a3)
    1b68:	01155513          	srli	a0,a0,0x11
    1b6c:	00008067          	ret

00001b70 <malloc>:
    1b70:	000078b7          	lui	a7,0x7
    1b74:	00007737          	lui	a4,0x7
    1b78:	9f88a783          	lw	a5,-1544(a7) # 69f8 <curr_top>
    1b7c:	9f472583          	lw	a1,-1548(a4) # 69f4 <heap_end>
    1b80:	0ab78063          	beq	a5,a1,1c20 <malloc+0xb0>
    1b84:	00078813          	mv	a6,a5
    1b88:	02b7f063          	bleu	a1,a5,1ba8 <malloc+0x38>
    1b8c:	0007a703          	lw	a4,0(a5)
    1b90:	00177693          	andi	a3,a4,1
    1b94:	40f70633          	sub	a2,a4,a5
    1b98:	00069463          	bnez	a3,1ba0 <malloc+0x30>
    1b9c:	04c56063          	bltu	a0,a2,1bdc <malloc+0x6c>
    1ba0:	ffe77793          	andi	a5,a4,-2
    1ba4:	feb7e4e3          	bltu	a5,a1,1b8c <malloc+0x1c>
    1ba8:	000057b7          	lui	a5,0x5
    1bac:	21c7a783          	lw	a5,540(a5) # 521c <heap_top>
    1bb0:	0307f063          	bleu	a6,a5,1bd0 <malloc+0x60>
    1bb4:	0007a703          	lw	a4,0(a5)
    1bb8:	00177613          	andi	a2,a4,1
    1bbc:	40f706b3          	sub	a3,a4,a5
    1bc0:	00061463          	bnez	a2,1bc8 <malloc+0x58>
    1bc4:	08d56c63          	bltu	a0,a3,1c5c <malloc+0xec>
    1bc8:	ffe77793          	andi	a5,a4,-2
    1bcc:	ff07e4e3          	bltu	a5,a6,1bb4 <malloc+0x44>
    1bd0:	00000593          	li	a1,0
    1bd4:	00058513          	mv	a0,a1
    1bd8:	00008067          	ret
    1bdc:	ffe7f613          	andi	a2,a5,-2
    1be0:	00357813          	andi	a6,a0,3
    1be4:	00460593          	addi	a1,a2,4 # 1004 <crt0+0x4>
    1be8:	06081463          	bnez	a6,1c50 <malloc+0xe0>
    1bec:	00450813          	addi	a6,a0,4
    1bf0:	00d80833          	add	a6,a6,a3
    1bf4:	ffc87813          	andi	a6,a6,-4
    1bf8:	01078833          	add	a6,a5,a6
    1bfc:	9f08ac23          	sw	a6,-1544(a7)
    1c00:	00e80463          	beq	a6,a4,1c08 <malloc+0x98>
    1c04:	00e82023          	sw	a4,0(a6)
    1c08:	00186713          	ori	a4,a6,1
    1c0c:	00e7a023          	sw	a4,0(a5)
    1c10:	ffc00793          	li	a5,-4
    1c14:	f8f60ae3          	beq	a2,a5,1ba8 <malloc+0x38>
    1c18:	00058513          	mv	a0,a1
    1c1c:	00008067          	ret
    1c20:	000057b7          	lui	a5,0x5
    1c24:	000056b7          	lui	a3,0x5
    1c28:	21c7a783          	lw	a5,540(a5) # 521c <heap_top>
    1c2c:	2186a583          	lw	a1,536(a3) # 5218 <heap_size>
    1c30:	9ef8ac23          	sw	a5,-1544(a7)
    1c34:	00b785b3          	add	a1,a5,a1
    1c38:	ff05f593          	andi	a1,a1,-16
    1c3c:	9eb72a23          	sw	a1,-1548(a4)
    1c40:	00b7a023          	sw	a1,0(a5)
    1c44:	00078813          	mv	a6,a5
    1c48:	f4b7e2e3          	bltu	a5,a1,1b8c <malloc+0x1c>
    1c4c:	f85ff06f          	j	1bd0 <malloc+0x60>
    1c50:	00400693          	li	a3,4
    1c54:	410686b3          	sub	a3,a3,a6
    1c58:	f95ff06f          	j	1bec <malloc+0x7c>
    1c5c:	ffe7f593          	andi	a1,a5,-2
    1c60:	00357813          	andi	a6,a0,3
    1c64:	00458593          	addi	a1,a1,4
    1c68:	00080663          	beqz	a6,1c74 <malloc+0x104>
    1c6c:	00400693          	li	a3,4
    1c70:	41068633          	sub	a2,a3,a6
    1c74:	00450693          	addi	a3,a0,4
    1c78:	00c686b3          	add	a3,a3,a2
    1c7c:	ffc6f693          	andi	a3,a3,-4
    1c80:	00d786b3          	add	a3,a5,a3
    1c84:	9ed8ac23          	sw	a3,-1544(a7)
    1c88:	00e68463          	beq	a3,a4,1c90 <malloc+0x120>
    1c8c:	00e6a023          	sw	a4,0(a3)
    1c90:	0016e693          	ori	a3,a3,1
    1c94:	00d7a023          	sw	a3,0(a5)
    1c98:	00058513          	mv	a0,a1
    1c9c:	00008067          	ret

00001ca0 <free>:
    1ca0:	ffc52783          	lw	a5,-4(a0)
    1ca4:	ffe7f793          	andi	a5,a5,-2
    1ca8:	fef52e23          	sw	a5,-4(a0)
    1cac:	0007a783          	lw	a5,0(a5)
    1cb0:	0017f713          	andi	a4,a5,1
    1cb4:	00071a63          	bnez	a4,1cc8 <free+0x28>
    1cb8:	ffc50713          	addi	a4,a0,-4
    1cbc:	fef52e23          	sw	a5,-4(a0)
    1cc0:	000077b7          	lui	a5,0x7
    1cc4:	9ee7ac23          	sw	a4,-1544(a5) # 69f8 <curr_top>
    1cc8:	00008067          	ret

00001ccc <calloc>:
    1ccc:	ff010113          	addi	sp,sp,-16
    1cd0:	00912423          	sw	s1,8(sp)
    1cd4:	02b504b3          	mul	s1,a0,a1
    1cd8:	00112623          	sw	ra,12(sp)
    1cdc:	01212223          	sw	s2,4(sp)
    1ce0:	00048513          	mv	a0,s1
    1ce4:	e8dff0ef          	jal	ra,1b70 <malloc>
    1ce8:	00048613          	mv	a2,s1
    1cec:	00000593          	li	a1,0
    1cf0:	00050913          	mv	s2,a0
    1cf4:	154000ef          	jal	ra,1e48 <memset>
    1cf8:	00c12083          	lw	ra,12(sp)
    1cfc:	00090513          	mv	a0,s2
    1d00:	00812483          	lw	s1,8(sp)
    1d04:	00412903          	lw	s2,4(sp)
    1d08:	01010113          	addi	sp,sp,16
    1d0c:	00008067          	ret

00001d10 <atoi>:
    1d10:	00050793          	mv	a5,a0
    1d14:	02000693          	li	a3,32
    1d18:	00900613          	li	a2,9
    1d1c:	0007c703          	lbu	a4,0(a5)
    1d20:	00d70463          	beq	a4,a3,1d28 <atoi+0x18>
    1d24:	00c71663          	bne	a4,a2,1d30 <atoi+0x20>
    1d28:	00178793          	addi	a5,a5,1
    1d2c:	ff1ff06f          	j	1d1c <atoi+0xc>
    1d30:	02d00693          	li	a3,45
    1d34:	00100893          	li	a7,1
    1d38:	00d71863          	bne	a4,a3,1d48 <atoi+0x38>
    1d3c:	0017c703          	lbu	a4,1(a5)
    1d40:	fff00893          	li	a7,-1
    1d44:	00178793          	addi	a5,a5,1
    1d48:	fd070713          	addi	a4,a4,-48
    1d4c:	0ff77613          	andi	a2,a4,255
    1d50:	00900693          	li	a3,9
    1d54:	00000513          	li	a0,0
    1d58:	04c6ec63          	bltu	a3,a2,1db0 <atoi+0xa0>
    1d5c:	0017c603          	lbu	a2,1(a5)
    1d60:	00178793          	addi	a5,a5,1
    1d64:	04060063          	beqz	a2,1da4 <atoi+0x94>
    1d68:	fd060593          	addi	a1,a2,-48
    1d6c:	0ff5f613          	andi	a2,a1,255
    1d70:	00900813          	li	a6,9
    1d74:	00c6f663          	bleu	a2,a3,1d80 <atoi+0x70>
    1d78:	03c0006f          	j	1db4 <atoi+0xa4>
    1d7c:	02d86863          	bltu	a6,a3,1dac <atoi+0x9c>
    1d80:	00178793          	addi	a5,a5,1
    1d84:	00271693          	slli	a3,a4,0x2
    1d88:	0007c603          	lbu	a2,0(a5)
    1d8c:	00e68733          	add	a4,a3,a4
    1d90:	00171713          	slli	a4,a4,0x1
    1d94:	00e58733          	add	a4,a1,a4
    1d98:	fd060593          	addi	a1,a2,-48
    1d9c:	0ff5f693          	andi	a3,a1,255
    1da0:	fc061ee3          	bnez	a2,1d7c <atoi+0x6c>
    1da4:	02e88533          	mul	a0,a7,a4
    1da8:	00008067          	ret
    1dac:	00000513          	li	a0,0
    1db0:	00008067          	ret
    1db4:	00008067          	ret

00001db8 <abs>:
    1db8:	41f55793          	srai	a5,a0,0x1f
    1dbc:	00a7c533          	xor	a0,a5,a0
    1dc0:	40f50533          	sub	a0,a0,a5
    1dc4:	00008067          	ret

00001dc8 <memcpy>:
    1dc8:	02060063          	beqz	a2,1de8 <memcpy+0x20>
    1dcc:	00c50633          	add	a2,a0,a2
    1dd0:	00050793          	mv	a5,a0
    1dd4:	00158593          	addi	a1,a1,1
    1dd8:	fff5c703          	lbu	a4,-1(a1)
    1ddc:	00178793          	addi	a5,a5,1
    1de0:	fee78fa3          	sb	a4,-1(a5)
    1de4:	fec798e3          	bne	a5,a2,1dd4 <memcpy+0xc>
    1de8:	00008067          	ret

00001dec <memmove>:
    1dec:	02b56a63          	bltu	a0,a1,1e20 <memmove+0x34>
    1df0:	00c587b3          	add	a5,a1,a2
    1df4:	02a7e663          	bltu	a5,a0,1e20 <memmove+0x34>
    1df8:	fff60613          	addi	a2,a2,-1
    1dfc:	04064263          	bltz	a2,1e40 <memmove+0x54>
    1e00:	fff00693          	li	a3,-1
    1e04:	00c587b3          	add	a5,a1,a2
    1e08:	0007c703          	lbu	a4,0(a5)
    1e0c:	00c507b3          	add	a5,a0,a2
    1e10:	fff60613          	addi	a2,a2,-1
    1e14:	00e78023          	sb	a4,0(a5)
    1e18:	fed616e3          	bne	a2,a3,1e04 <memmove+0x18>
    1e1c:	00008067          	ret
    1e20:	00c506b3          	add	a3,a0,a2
    1e24:	00050793          	mv	a5,a0
    1e28:	00060e63          	beqz	a2,1e44 <memmove+0x58>
    1e2c:	00158593          	addi	a1,a1,1
    1e30:	fff5c703          	lbu	a4,-1(a1)
    1e34:	00178793          	addi	a5,a5,1
    1e38:	fee78fa3          	sb	a4,-1(a5)
    1e3c:	fef698e3          	bne	a3,a5,1e2c <memmove+0x40>
    1e40:	00008067          	ret
    1e44:	00008067          	ret

00001e48 <memset>:
    1e48:	0ff5f593          	andi	a1,a1,255
    1e4c:	00c50733          	add	a4,a0,a2
    1e50:	00050793          	mv	a5,a0
    1e54:	00060863          	beqz	a2,1e64 <memset+0x1c>
    1e58:	00178793          	addi	a5,a5,1
    1e5c:	feb78fa3          	sb	a1,-1(a5)
    1e60:	fee79ce3          	bne	a5,a4,1e58 <memset+0x10>
    1e64:	00008067          	ret

00001e68 <strlen>:
    1e68:	00054783          	lbu	a5,0(a0)
    1e6c:	02078063          	beqz	a5,1e8c <strlen+0x24>
    1e70:	00000793          	li	a5,0
    1e74:	00178793          	addi	a5,a5,1
    1e78:	00f50733          	add	a4,a0,a5
    1e7c:	00074703          	lbu	a4,0(a4)
    1e80:	fe071ae3          	bnez	a4,1e74 <strlen+0xc>
    1e84:	00078513          	mv	a0,a5
    1e88:	00008067          	ret
    1e8c:	00000793          	li	a5,0
    1e90:	00078513          	mv	a0,a5
    1e94:	00008067          	ret

00001e98 <strcpy>:
    1e98:	0005c683          	lbu	a3,0(a1)
    1e9c:	00150613          	addi	a2,a0,1
    1ea0:	00250893          	addi	a7,a0,2
    1ea4:	00158793          	addi	a5,a1,1
    1ea8:	00258813          	addi	a6,a1,2
    1eac:	00050713          	mv	a4,a0
    1eb0:	04068a63          	beqz	a3,1f04 <strcpy+0x6c>
    1eb4:	00d70023          	sb	a3,0(a4)
    1eb8:	0007c683          	lbu	a3,0(a5)
    1ebc:	00378793          	addi	a5,a5,3
    1ec0:	00370713          	addi	a4,a4,3
    1ec4:	fed70f23          	sb	a3,-2(a4)
    1ec8:	ffe7c683          	lbu	a3,-2(a5)
    1ecc:	00358593          	addi	a1,a1,3
    1ed0:	00360613          	addi	a2,a2,3
    1ed4:	fed70fa3          	sb	a3,-1(a4)
    1ed8:	fff7c683          	lbu	a3,-1(a5)
    1edc:	00380813          	addi	a6,a6,3
    1ee0:	00388893          	addi	a7,a7,3
    1ee4:	02068063          	beqz	a3,1f04 <strcpy+0x6c>
    1ee8:	0007c303          	lbu	t1,0(a5)
    1eec:	02030a63          	beqz	t1,1f20 <strcpy+0x88>
    1ef0:	0017c303          	lbu	t1,1(a5)
    1ef4:	fa031ee3          	bnez	t1,1eb0 <strcpy+0x18>
    1ef8:	00d70023          	sb	a3,0(a4)
    1efc:	0007c683          	lbu	a3,0(a5)
    1f00:	00d60023          	sb	a3,0(a2)
    1f04:	00070023          	sb	zero,0(a4)
    1f08:	00060023          	sb	zero,0(a2)
    1f0c:	00088023          	sb	zero,0(a7)
    1f10:	00058023          	sb	zero,0(a1)
    1f14:	00078023          	sb	zero,0(a5)
    1f18:	00080023          	sb	zero,0(a6)
    1f1c:	00008067          	ret
    1f20:	00d70023          	sb	a3,0(a4)
    1f24:	00070023          	sb	zero,0(a4)
    1f28:	00060023          	sb	zero,0(a2)
    1f2c:	00088023          	sb	zero,0(a7)
    1f30:	00058023          	sb	zero,0(a1)
    1f34:	00078023          	sb	zero,0(a5)
    1f38:	00080023          	sb	zero,0(a6)
    1f3c:	00008067          	ret

00001f40 <strncpy>:
    1f40:	0005c703          	lbu	a4,0(a1)
    1f44:	04070463          	beqz	a4,1f8c <strncpy+0x4c>
    1f48:	02060e63          	beqz	a2,1f84 <strncpy+0x44>
    1f4c:	00050793          	mv	a5,a0
    1f50:	0080006f          	j	1f58 <strncpy+0x18>
    1f54:	02060a63          	beqz	a2,1f88 <strncpy+0x48>
    1f58:	00178793          	addi	a5,a5,1
    1f5c:	fee78fa3          	sb	a4,-1(a5)
    1f60:	00158593          	addi	a1,a1,1
    1f64:	0005c703          	lbu	a4,0(a1)
    1f68:	fff60613          	addi	a2,a2,-1
    1f6c:	fe0714e3          	bnez	a4,1f54 <strncpy+0x14>
    1f70:	00c78733          	add	a4,a5,a2
    1f74:	02060063          	beqz	a2,1f94 <strncpy+0x54>
    1f78:	00178793          	addi	a5,a5,1
    1f7c:	fe078fa3          	sb	zero,-1(a5)
    1f80:	fee79ce3          	bne	a5,a4,1f78 <strncpy+0x38>
    1f84:	00008067          	ret
    1f88:	00008067          	ret
    1f8c:	00050793          	mv	a5,a0
    1f90:	fe1ff06f          	j	1f70 <strncpy+0x30>
    1f94:	00008067          	ret

00001f98 <strcat>:
    1f98:	00054783          	lbu	a5,0(a0)
    1f9c:	02078c63          	beqz	a5,1fd4 <strcat+0x3c>
    1fa0:	00050793          	mv	a5,a0
    1fa4:	00178793          	addi	a5,a5,1
    1fa8:	0007c703          	lbu	a4,0(a5)
    1fac:	fe071ce3          	bnez	a4,1fa4 <strcat+0xc>
    1fb0:	0005c703          	lbu	a4,0(a1)
    1fb4:	00070c63          	beqz	a4,1fcc <strcat+0x34>
    1fb8:	00178793          	addi	a5,a5,1
    1fbc:	00158593          	addi	a1,a1,1
    1fc0:	fee78fa3          	sb	a4,-1(a5)
    1fc4:	0005c703          	lbu	a4,0(a1)
    1fc8:	fe0718e3          	bnez	a4,1fb8 <strcat+0x20>
    1fcc:	00078023          	sb	zero,0(a5)
    1fd0:	00008067          	ret
    1fd4:	00050793          	mv	a5,a0
    1fd8:	fedff06f          	j	1fc4 <strcat+0x2c>

00001fdc <strncat>:
    1fdc:	00054783          	lbu	a5,0(a0)
    1fe0:	04078463          	beqz	a5,2028 <strncat+0x4c>
    1fe4:	00050793          	mv	a5,a0
    1fe8:	00178793          	addi	a5,a5,1
    1fec:	0007c703          	lbu	a4,0(a5)
    1ff0:	fe071ce3          	bnez	a4,1fe8 <strncat+0xc>
    1ff4:	0005c703          	lbu	a4,0(a1)
    1ff8:	02070463          	beqz	a4,2020 <strncat+0x44>
    1ffc:	02060263          	beqz	a2,2020 <strncat+0x44>
    2000:	00c58633          	add	a2,a1,a2
    2004:	0080006f          	j	200c <strncat+0x30>
    2008:	00b60c63          	beq	a2,a1,2020 <strncat+0x44>
    200c:	00178793          	addi	a5,a5,1
    2010:	00158593          	addi	a1,a1,1
    2014:	fee78fa3          	sb	a4,-1(a5)
    2018:	0005c703          	lbu	a4,0(a1)
    201c:	fe0716e3          	bnez	a4,2008 <strncat+0x2c>
    2020:	00078023          	sb	zero,0(a5)
    2024:	00008067          	ret
    2028:	00050793          	mv	a5,a0
    202c:	fc9ff06f          	j	1ff4 <strncat+0x18>

00002030 <strcmp>:
    2030:	fff50513          	addi	a0,a0,-1
    2034:	fff58593          	addi	a1,a1,-1
    2038:	0080006f          	j	2040 <strcmp+0x10>
    203c:	02078663          	beqz	a5,2068 <strcmp+0x38>
    2040:	00150513          	addi	a0,a0,1
    2044:	00158593          	addi	a1,a1,1
    2048:	00054783          	lbu	a5,0(a0)
    204c:	0005c703          	lbu	a4,0(a1)
    2050:	fee786e3          	beq	a5,a4,203c <strcmp+0xc>
    2054:	fff00513          	li	a0,-1
    2058:	00e7f463          	bleu	a4,a5,2060 <strcmp+0x30>
    205c:	00008067          	ret
    2060:	00100513          	li	a0,1
    2064:	00008067          	ret
    2068:	00000513          	li	a0,0
    206c:	00008067          	ret

00002070 <strncmp>:
    2070:	fff60613          	addi	a2,a2,-1
    2074:	fff58593          	addi	a1,a1,-1
    2078:	00c50633          	add	a2,a0,a2
    207c:	0100006f          	j	208c <strncmp+0x1c>
    2080:	02c50463          	beq	a0,a2,20a8 <strncmp+0x38>
    2084:	00150513          	addi	a0,a0,1
    2088:	02078063          	beqz	a5,20a8 <strncmp+0x38>
    208c:	00158593          	addi	a1,a1,1
    2090:	00054783          	lbu	a5,0(a0)
    2094:	0005c703          	lbu	a4,0(a1)
    2098:	fee784e3          	beq	a5,a4,2080 <strncmp+0x10>
    209c:	fff00513          	li	a0,-1
    20a0:	00e7f863          	bleu	a4,a5,20b0 <strncmp+0x40>
    20a4:	00008067          	ret
    20a8:	00000513          	li	a0,0
    20ac:	00008067          	ret
    20b0:	00100513          	li	a0,1
    20b4:	00008067          	ret

000020b8 <clock>:
    20b8:	ff010113          	addi	sp,sp,-16
    20bc:	00112623          	sw	ra,12(sp)
    20c0:	b0002573          	csrr	a0,mcycle
    20c4:	b80025f3          	csrr	a1,mcycleh
    20c8:	03200613          	li	a2,50
    20cc:	00000693          	li	a3,0
    20d0:	068000ef          	jal	ra,2138 <__divdi3>
    20d4:	00c12083          	lw	ra,12(sp)
    20d8:	01010113          	addi	sp,sp,16
    20dc:	00008067          	ret

000020e0 <inbyte>:
    20e0:	c0000737          	lui	a4,0xc0000
    20e4:	00872783          	lw	a5,8(a4) # c0000008 <__stack_top+0xbfff0018>
    20e8:	0017f793          	andi	a5,a5,1
    20ec:	fe078ce3          	beqz	a5,20e4 <inbyte+0x4>
    20f0:	00072503          	lw	a0,0(a4)
    20f4:	0ff57513          	andi	a0,a0,255
    20f8:	00008067          	ret

000020fc <outbyte>:
    20fc:	00a00793          	li	a5,10
    2100:	00f50e63          	beq	a0,a5,211c <outbyte+0x20>
    2104:	c0000737          	lui	a4,0xc0000
    2108:	00872783          	lw	a5,8(a4) # c0000008 <__stack_top+0xbfff0018>
    210c:	0087f793          	andi	a5,a5,8
    2110:	fe079ce3          	bnez	a5,2108 <outbyte+0xc>
    2114:	00a72223          	sw	a0,4(a4)
    2118:	00008067          	ret
    211c:	c0000737          	lui	a4,0xc0000
    2120:	00872783          	lw	a5,8(a4) # c0000008 <__stack_top+0xbfff0018>
    2124:	0087f793          	andi	a5,a5,8
    2128:	fe079ce3          	bnez	a5,2120 <outbyte+0x24>
    212c:	00d00793          	li	a5,13
    2130:	00f72223          	sw	a5,4(a4)
    2134:	fd1ff06f          	j	2104 <outbyte+0x8>

00002138 <__divdi3>:
    2138:	00000313          	li	t1,0
    213c:	0005dc63          	bgez	a1,2154 <__divdi3+0x1c>
    2140:	40a00533          	neg	a0,a0
    2144:	00a03833          	snez	a6,a0
    2148:	40b00733          	neg	a4,a1
    214c:	410705b3          	sub	a1,a4,a6
    2150:	fff00313          	li	t1,-1
    2154:	0006dc63          	bgez	a3,216c <__divdi3+0x34>
    2158:	40c00633          	neg	a2,a2
    215c:	00c037b3          	snez	a5,a2
    2160:	40d006b3          	neg	a3,a3
    2164:	fff34313          	not	t1,t1
    2168:	40f686b3          	sub	a3,a3,a5
    216c:	00060813          	mv	a6,a2
    2170:	00068713          	mv	a4,a3
    2174:	00050893          	mv	a7,a0
    2178:	00058e13          	mv	t3,a1
    217c:	2a069263          	bnez	a3,2420 <__divdi3+0x2e8>
    2180:	000076b7          	lui	a3,0x7
    2184:	8d068693          	addi	a3,a3,-1840 # 68d0 <__clz_tab>
    2188:	0ec5f663          	bleu	a2,a1,2274 <__divdi3+0x13c>
    218c:	000107b7          	lui	a5,0x10
    2190:	0cf67863          	bleu	a5,a2,2260 <__divdi3+0x128>
    2194:	0ff00e93          	li	t4,255
    2198:	00cebeb3          	sltu	t4,t4,a2
    219c:	003e9e93          	slli	t4,t4,0x3
    21a0:	01d657b3          	srl	a5,a2,t4
    21a4:	00f686b3          	add	a3,a3,a5
    21a8:	0006c783          	lbu	a5,0(a3)
    21ac:	01d78eb3          	add	t4,a5,t4
    21b0:	02000793          	li	a5,32
    21b4:	41d787b3          	sub	a5,a5,t4
    21b8:	00078c63          	beqz	a5,21d0 <__divdi3+0x98>
    21bc:	00f59733          	sll	a4,a1,a5
    21c0:	01d55eb3          	srl	t4,a0,t4
    21c4:	00f61833          	sll	a6,a2,a5
    21c8:	00eeee33          	or	t3,t4,a4
    21cc:	00f518b3          	sll	a7,a0,a5
    21d0:	01085613          	srli	a2,a6,0x10
    21d4:	02ce77b3          	remu	a5,t3,a2
    21d8:	01081593          	slli	a1,a6,0x10
    21dc:	0105d593          	srli	a1,a1,0x10
    21e0:	0108d693          	srli	a3,a7,0x10
    21e4:	02ce5e33          	divu	t3,t3,a2
    21e8:	01079793          	slli	a5,a5,0x10
    21ec:	00d7e6b3          	or	a3,a5,a3
    21f0:	03c58733          	mul	a4,a1,t3
    21f4:	000e0793          	mv	a5,t3
    21f8:	00e6fe63          	bleu	a4,a3,2214 <__divdi3+0xdc>
    21fc:	010686b3          	add	a3,a3,a6
    2200:	fffe0793          	addi	a5,t3,-1
    2204:	0106e863          	bltu	a3,a6,2214 <__divdi3+0xdc>
    2208:	00e6f663          	bleu	a4,a3,2214 <__divdi3+0xdc>
    220c:	ffee0793          	addi	a5,t3,-2
    2210:	010686b3          	add	a3,a3,a6
    2214:	40e686b3          	sub	a3,a3,a4
    2218:	02c6f733          	remu	a4,a3,a2
    221c:	01089893          	slli	a7,a7,0x10
    2220:	0108d893          	srli	a7,a7,0x10
    2224:	02c6d6b3          	divu	a3,a3,a2
    2228:	01071713          	slli	a4,a4,0x10
    222c:	011768b3          	or	a7,a4,a7
    2230:	02d585b3          	mul	a1,a1,a3
    2234:	00068513          	mv	a0,a3
    2238:	00b8fc63          	bleu	a1,a7,2250 <__divdi3+0x118>
    223c:	011808b3          	add	a7,a6,a7
    2240:	fff68513          	addi	a0,a3,-1
    2244:	0108e663          	bltu	a7,a6,2250 <__divdi3+0x118>
    2248:	00b8f463          	bleu	a1,a7,2250 <__divdi3+0x118>
    224c:	ffe68513          	addi	a0,a3,-2
    2250:	01079793          	slli	a5,a5,0x10
    2254:	00a7e7b3          	or	a5,a5,a0
    2258:	00000e13          	li	t3,0
    225c:	0e40006f          	j	2340 <__divdi3+0x208>
    2260:	010007b7          	lui	a5,0x1000
    2264:	01000e93          	li	t4,16
    2268:	f2f66ce3          	bltu	a2,a5,21a0 <__divdi3+0x68>
    226c:	01800e93          	li	t4,24
    2270:	f31ff06f          	j	21a0 <__divdi3+0x68>
    2274:	00061663          	bnez	a2,2280 <__divdi3+0x148>
    2278:	00100813          	li	a6,1
    227c:	02e85833          	divu	a6,a6,a4
    2280:	000107b7          	lui	a5,0x10
    2284:	0cf87e63          	bleu	a5,a6,2360 <__divdi3+0x228>
    2288:	0ff00793          	li	a5,255
    228c:	0107f463          	bleu	a6,a5,2294 <__divdi3+0x15c>
    2290:	00800713          	li	a4,8
    2294:	00e857b3          	srl	a5,a6,a4
    2298:	00f686b3          	add	a3,a3,a5
    229c:	0006c783          	lbu	a5,0(a3)
    22a0:	02000693          	li	a3,32
    22a4:	00e787b3          	add	a5,a5,a4
    22a8:	40f686b3          	sub	a3,a3,a5
    22ac:	0c069463          	bnez	a3,2374 <__divdi3+0x23c>
    22b0:	41058733          	sub	a4,a1,a6
    22b4:	00100e13          	li	t3,1
    22b8:	01085613          	srli	a2,a6,0x10
    22bc:	01081593          	slli	a1,a6,0x10
    22c0:	0105d593          	srli	a1,a1,0x10
    22c4:	0108d693          	srli	a3,a7,0x10
    22c8:	02c777b3          	remu	a5,a4,a2
    22cc:	02c75733          	divu	a4,a4,a2
    22d0:	01079793          	slli	a5,a5,0x10
    22d4:	00d7e6b3          	or	a3,a5,a3
    22d8:	02e58533          	mul	a0,a1,a4
    22dc:	00070793          	mv	a5,a4
    22e0:	00a6fe63          	bleu	a0,a3,22fc <__divdi3+0x1c4>
    22e4:	010686b3          	add	a3,a3,a6
    22e8:	fff70793          	addi	a5,a4,-1
    22ec:	0106e863          	bltu	a3,a6,22fc <__divdi3+0x1c4>
    22f0:	00a6f663          	bleu	a0,a3,22fc <__divdi3+0x1c4>
    22f4:	ffe70793          	addi	a5,a4,-2
    22f8:	010686b3          	add	a3,a3,a6
    22fc:	40a686b3          	sub	a3,a3,a0
    2300:	02c6f733          	remu	a4,a3,a2
    2304:	01089893          	slli	a7,a7,0x10
    2308:	0108d893          	srli	a7,a7,0x10
    230c:	02c6d6b3          	divu	a3,a3,a2
    2310:	01071713          	slli	a4,a4,0x10
    2314:	011768b3          	or	a7,a4,a7
    2318:	02d585b3          	mul	a1,a1,a3
    231c:	00068513          	mv	a0,a3
    2320:	00b8fc63          	bleu	a1,a7,2338 <__divdi3+0x200>
    2324:	011808b3          	add	a7,a6,a7
    2328:	fff68513          	addi	a0,a3,-1
    232c:	0108e663          	bltu	a7,a6,2338 <__divdi3+0x200>
    2330:	00b8f463          	bleu	a1,a7,2338 <__divdi3+0x200>
    2334:	ffe68513          	addi	a0,a3,-2
    2338:	01079793          	slli	a5,a5,0x10
    233c:	00a7e7b3          	or	a5,a5,a0
    2340:	00078513          	mv	a0,a5
    2344:	000e0593          	mv	a1,t3
    2348:	00030a63          	beqz	t1,235c <__divdi3+0x224>
    234c:	40f00533          	neg	a0,a5
    2350:	00a037b3          	snez	a5,a0
    2354:	41c005b3          	neg	a1,t3
    2358:	40f585b3          	sub	a1,a1,a5
    235c:	00008067          	ret
    2360:	010007b7          	lui	a5,0x1000
    2364:	01000713          	li	a4,16
    2368:	f2f866e3          	bltu	a6,a5,2294 <__divdi3+0x15c>
    236c:	01800713          	li	a4,24
    2370:	f25ff06f          	j	2294 <__divdi3+0x15c>
    2374:	00d81833          	sll	a6,a6,a3
    2378:	00f5deb3          	srl	t4,a1,a5
    237c:	00d518b3          	sll	a7,a0,a3
    2380:	00f557b3          	srl	a5,a0,a5
    2384:	01085513          	srli	a0,a6,0x10
    2388:	00d59733          	sll	a4,a1,a3
    238c:	02aed5b3          	divu	a1,t4,a0
    2390:	00e7e633          	or	a2,a5,a4
    2394:	01081713          	slli	a4,a6,0x10
    2398:	01075713          	srli	a4,a4,0x10
    239c:	01065793          	srli	a5,a2,0x10
    23a0:	02aef6b3          	remu	a3,t4,a0
    23a4:	00058e13          	mv	t3,a1
    23a8:	02b70eb3          	mul	t4,a4,a1
    23ac:	01069693          	slli	a3,a3,0x10
    23b0:	00f6e7b3          	or	a5,a3,a5
    23b4:	01d7fe63          	bleu	t4,a5,23d0 <__divdi3+0x298>
    23b8:	010787b3          	add	a5,a5,a6
    23bc:	fff58e13          	addi	t3,a1,-1
    23c0:	0107e863          	bltu	a5,a6,23d0 <__divdi3+0x298>
    23c4:	01d7f663          	bleu	t4,a5,23d0 <__divdi3+0x298>
    23c8:	ffe58e13          	addi	t3,a1,-2
    23cc:	010787b3          	add	a5,a5,a6
    23d0:	41d787b3          	sub	a5,a5,t4
    23d4:	02a7f5b3          	remu	a1,a5,a0
    23d8:	01061613          	slli	a2,a2,0x10
    23dc:	01065613          	srli	a2,a2,0x10
    23e0:	02a7d7b3          	divu	a5,a5,a0
    23e4:	01059593          	slli	a1,a1,0x10
    23e8:	00c5e5b3          	or	a1,a1,a2
    23ec:	02f70733          	mul	a4,a4,a5
    23f0:	00078693          	mv	a3,a5
    23f4:	00e5fe63          	bleu	a4,a1,2410 <__divdi3+0x2d8>
    23f8:	010585b3          	add	a1,a1,a6
    23fc:	fff78693          	addi	a3,a5,-1 # ffffff <__stack_top+0xff000f>
    2400:	0105e863          	bltu	a1,a6,2410 <__divdi3+0x2d8>
    2404:	00e5f663          	bleu	a4,a1,2410 <__divdi3+0x2d8>
    2408:	ffe78693          	addi	a3,a5,-2
    240c:	010585b3          	add	a1,a1,a6
    2410:	010e1e13          	slli	t3,t3,0x10
    2414:	40e58733          	sub	a4,a1,a4
    2418:	00de6e33          	or	t3,t3,a3
    241c:	e9dff06f          	j	22b8 <__divdi3+0x180>
    2420:	18d5e663          	bltu	a1,a3,25ac <__divdi3+0x474>
    2424:	000107b7          	lui	a5,0x10
    2428:	04f6f463          	bleu	a5,a3,2470 <__divdi3+0x338>
    242c:	0ff00813          	li	a6,255
    2430:	00d838b3          	sltu	a7,a6,a3
    2434:	00389893          	slli	a7,a7,0x3
    2438:	00007737          	lui	a4,0x7
    243c:	0116d7b3          	srl	a5,a3,a7
    2440:	8d070713          	addi	a4,a4,-1840 # 68d0 <__clz_tab>
    2444:	00e787b3          	add	a5,a5,a4
    2448:	0007c803          	lbu	a6,0(a5) # 10000 <__stack_top+0x10>
    244c:	02000e13          	li	t3,32
    2450:	01180833          	add	a6,a6,a7
    2454:	410e0e33          	sub	t3,t3,a6
    2458:	020e1663          	bnez	t3,2484 <__divdi3+0x34c>
    245c:	00100793          	li	a5,1
    2460:	eeb6e0e3          	bltu	a3,a1,2340 <__divdi3+0x208>
    2464:	00c53633          	sltu	a2,a0,a2
    2468:	00164793          	xori	a5,a2,1
    246c:	ed5ff06f          	j	2340 <__divdi3+0x208>
    2470:	010007b7          	lui	a5,0x1000
    2474:	01000893          	li	a7,16
    2478:	fcf6e0e3          	bltu	a3,a5,2438 <__divdi3+0x300>
    247c:	01800893          	li	a7,24
    2480:	fb9ff06f          	j	2438 <__divdi3+0x300>
    2484:	010657b3          	srl	a5,a2,a6
    2488:	01c696b3          	sll	a3,a3,t3
    248c:	00d7e6b3          	or	a3,a5,a3
    2490:	0106df13          	srli	t5,a3,0x10
    2494:	0105d7b3          	srl	a5,a1,a6
    2498:	03e7f8b3          	remu	a7,a5,t5
    249c:	01069e93          	slli	t4,a3,0x10
    24a0:	010ede93          	srli	t4,t4,0x10
    24a4:	01c59733          	sll	a4,a1,t3
    24a8:	01055833          	srl	a6,a0,a6
    24ac:	00e86733          	or	a4,a6,a4
    24b0:	01075813          	srli	a6,a4,0x10
    24b4:	01c61633          	sll	a2,a2,t3
    24b8:	03e7d7b3          	divu	a5,a5,t5
    24bc:	01089893          	slli	a7,a7,0x10
    24c0:	0108e833          	or	a6,a7,a6
    24c4:	02fe8fb3          	mul	t6,t4,a5
    24c8:	00078593          	mv	a1,a5
    24cc:	01f87e63          	bleu	t6,a6,24e8 <__divdi3+0x3b0>
    24d0:	00d80833          	add	a6,a6,a3
    24d4:	fff78593          	addi	a1,a5,-1 # ffffff <__stack_top+0xff000f>
    24d8:	00d86863          	bltu	a6,a3,24e8 <__divdi3+0x3b0>
    24dc:	01f87663          	bleu	t6,a6,24e8 <__divdi3+0x3b0>
    24e0:	ffe78593          	addi	a1,a5,-2
    24e4:	00d80833          	add	a6,a6,a3
    24e8:	41f80833          	sub	a6,a6,t6
    24ec:	03e878b3          	remu	a7,a6,t5
    24f0:	01071713          	slli	a4,a4,0x10
    24f4:	01075713          	srli	a4,a4,0x10
    24f8:	03e85833          	divu	a6,a6,t5
    24fc:	01089893          	slli	a7,a7,0x10
    2500:	00e8e733          	or	a4,a7,a4
    2504:	030e8eb3          	mul	t4,t4,a6
    2508:	00080793          	mv	a5,a6
    250c:	01d77e63          	bleu	t4,a4,2528 <__divdi3+0x3f0>
    2510:	00d70733          	add	a4,a4,a3
    2514:	fff80793          	addi	a5,a6,-1
    2518:	00d76863          	bltu	a4,a3,2528 <__divdi3+0x3f0>
    251c:	01d77663          	bleu	t4,a4,2528 <__divdi3+0x3f0>
    2520:	ffe80793          	addi	a5,a6,-2
    2524:	00d70733          	add	a4,a4,a3
    2528:	01059593          	slli	a1,a1,0x10
    252c:	00010f37          	lui	t5,0x10
    2530:	00f5e7b3          	or	a5,a1,a5
    2534:	ffff0593          	addi	a1,t5,-1 # ffff <__stack_top+0xf>
    2538:	00b7f8b3          	and	a7,a5,a1
    253c:	0107d813          	srli	a6,a5,0x10
    2540:	00b675b3          	and	a1,a2,a1
    2544:	01065613          	srli	a2,a2,0x10
    2548:	41d70733          	sub	a4,a4,t4
    254c:	02b88eb3          	mul	t4,a7,a1
    2550:	02b805b3          	mul	a1,a6,a1
    2554:	010ed693          	srli	a3,t4,0x10
    2558:	02c888b3          	mul	a7,a7,a2
    255c:	00b888b3          	add	a7,a7,a1
    2560:	011686b3          	add	a3,a3,a7
    2564:	02c80833          	mul	a6,a6,a2
    2568:	00b6f463          	bleu	a1,a3,2570 <__divdi3+0x438>
    256c:	01e80833          	add	a6,a6,t5
    2570:	0106d613          	srli	a2,a3,0x10
    2574:	01060833          	add	a6,a2,a6
    2578:	03076663          	bltu	a4,a6,25a4 <__divdi3+0x46c>
    257c:	cd071ee3          	bne	a4,a6,2258 <__divdi3+0x120>
    2580:	00010737          	lui	a4,0x10
    2584:	fff70713          	addi	a4,a4,-1 # ffff <__stack_top+0xf>
    2588:	00e6f6b3          	and	a3,a3,a4
    258c:	01069693          	slli	a3,a3,0x10
    2590:	00eefeb3          	and	t4,t4,a4
    2594:	01c51533          	sll	a0,a0,t3
    2598:	01d686b3          	add	a3,a3,t4
    259c:	00000e13          	li	t3,0
    25a0:	dad570e3          	bleu	a3,a0,2340 <__divdi3+0x208>
    25a4:	fff78793          	addi	a5,a5,-1
    25a8:	cb1ff06f          	j	2258 <__divdi3+0x120>
    25ac:	00000e13          	li	t3,0
    25b0:	00000793          	li	a5,0
    25b4:	d8dff06f          	j	2340 <__divdi3+0x208>

000025b8 <__adddf3>:
    25b8:	00100837          	lui	a6,0x100
    25bc:	fff80813          	addi	a6,a6,-1 # fffff <__stack_top+0xf000f>
    25c0:	00b878b3          	and	a7,a6,a1
    25c4:	00389893          	slli	a7,a7,0x3
    25c8:	01d55793          	srli	a5,a0,0x1d
    25cc:	fe010113          	addi	sp,sp,-32
    25d0:	0145d713          	srli	a4,a1,0x14
    25d4:	00d87833          	and	a6,a6,a3
    25d8:	0117e7b3          	or	a5,a5,a7
    25dc:	0146d893          	srli	a7,a3,0x14
    25e0:	00381813          	slli	a6,a6,0x3
    25e4:	00912a23          	sw	s1,20(sp)
    25e8:	01212823          	sw	s2,16(sp)
    25ec:	7ff77493          	andi	s1,a4,2047
    25f0:	7ff8f893          	andi	a7,a7,2047
    25f4:	01d65713          	srli	a4,a2,0x1d
    25f8:	00112e23          	sw	ra,28(sp)
    25fc:	00812c23          	sw	s0,24(sp)
    2600:	01312623          	sw	s3,12(sp)
    2604:	01f5d913          	srli	s2,a1,0x1f
    2608:	01f6d693          	srli	a3,a3,0x1f
    260c:	01076733          	or	a4,a4,a6
    2610:	00351513          	slli	a0,a0,0x3
    2614:	00361613          	slli	a2,a2,0x3
    2618:	41148833          	sub	a6,s1,a7
    261c:	2cd91463          	bne	s2,a3,28e4 <__adddf3+0x32c>
    2620:	11005e63          	blez	a6,273c <__adddf3+0x184>
    2624:	04089063          	bnez	a7,2664 <__adddf3+0xac>
    2628:	00c766b3          	or	a3,a4,a2
    262c:	70068063          	beqz	a3,2d2c <__adddf3+0x774>
    2630:	fff80593          	addi	a1,a6,-1
    2634:	02059063          	bnez	a1,2654 <__adddf3+0x9c>
    2638:	00c50633          	add	a2,a0,a2
    263c:	00a63533          	sltu	a0,a2,a0
    2640:	00e787b3          	add	a5,a5,a4
    2644:	00a787b3          	add	a5,a5,a0
    2648:	00060513          	mv	a0,a2
    264c:	00100493          	li	s1,1
    2650:	0700006f          	j	26c0 <__adddf3+0x108>
    2654:	7ff00693          	li	a3,2047
    2658:	02d81063          	bne	a6,a3,2678 <__adddf3+0xc0>
    265c:	7ff00493          	li	s1,2047
    2660:	20c0006f          	j	286c <__adddf3+0x2b4>
    2664:	7ff00693          	li	a3,2047
    2668:	20d48263          	beq	s1,a3,286c <__adddf3+0x2b4>
    266c:	008006b7          	lui	a3,0x800
    2670:	00d76733          	or	a4,a4,a3
    2674:	00080593          	mv	a1,a6
    2678:	03800693          	li	a3,56
    267c:	0ab6ca63          	blt	a3,a1,2730 <__adddf3+0x178>
    2680:	01f00693          	li	a3,31
    2684:	06b6cc63          	blt	a3,a1,26fc <__adddf3+0x144>
    2688:	02000813          	li	a6,32
    268c:	40b80833          	sub	a6,a6,a1
    2690:	010716b3          	sll	a3,a4,a6
    2694:	00b658b3          	srl	a7,a2,a1
    2698:	01061633          	sll	a2,a2,a6
    269c:	0116e6b3          	or	a3,a3,a7
    26a0:	00c03633          	snez	a2,a2
    26a4:	00c6e633          	or	a2,a3,a2
    26a8:	00b75733          	srl	a4,a4,a1
    26ac:	00a60633          	add	a2,a2,a0
    26b0:	00f70733          	add	a4,a4,a5
    26b4:	00a637b3          	sltu	a5,a2,a0
    26b8:	00f707b3          	add	a5,a4,a5
    26bc:	00060513          	mv	a0,a2
    26c0:	00879713          	slli	a4,a5,0x8
    26c4:	1a075463          	bgez	a4,286c <__adddf3+0x2b4>
    26c8:	00148493          	addi	s1,s1,1
    26cc:	7ff00713          	li	a4,2047
    26d0:	5ce48463          	beq	s1,a4,2c98 <__adddf3+0x6e0>
    26d4:	ff8006b7          	lui	a3,0xff800
    26d8:	fff68693          	addi	a3,a3,-1 # ff7fffff <__stack_top+0xff7f000f>
    26dc:	00d7f6b3          	and	a3,a5,a3
    26e0:	00155593          	srli	a1,a0,0x1
    26e4:	00157513          	andi	a0,a0,1
    26e8:	01f69793          	slli	a5,a3,0x1f
    26ec:	00a5e533          	or	a0,a1,a0
    26f0:	00a7e533          	or	a0,a5,a0
    26f4:	0016d793          	srli	a5,a3,0x1
    26f8:	1740006f          	j	286c <__adddf3+0x2b4>
    26fc:	fe058693          	addi	a3,a1,-32
    2700:	02000893          	li	a7,32
    2704:	00d756b3          	srl	a3,a4,a3
    2708:	00000813          	li	a6,0
    270c:	01158863          	beq	a1,a7,271c <__adddf3+0x164>
    2710:	04000813          	li	a6,64
    2714:	40b805b3          	sub	a1,a6,a1
    2718:	00b71833          	sll	a6,a4,a1
    271c:	00c86633          	or	a2,a6,a2
    2720:	00c03633          	snez	a2,a2
    2724:	00c6e633          	or	a2,a3,a2
    2728:	00000713          	li	a4,0
    272c:	f81ff06f          	j	26ac <__adddf3+0xf4>
    2730:	00c76633          	or	a2,a4,a2
    2734:	00c03633          	snez	a2,a2
    2738:	ff1ff06f          	j	2728 <__adddf3+0x170>
    273c:	0e080263          	beqz	a6,2820 <__adddf3+0x268>
    2740:	409885b3          	sub	a1,a7,s1
    2744:	02049e63          	bnez	s1,2780 <__adddf3+0x1c8>
    2748:	00a7e6b3          	or	a3,a5,a0
    274c:	52068663          	beqz	a3,2c78 <__adddf3+0x6c0>
    2750:	fff58693          	addi	a3,a1,-1
    2754:	00069c63          	bnez	a3,276c <__adddf3+0x1b4>
    2758:	00c50533          	add	a0,a0,a2
    275c:	00e787b3          	add	a5,a5,a4
    2760:	00c53633          	sltu	a2,a0,a2
    2764:	00c787b3          	add	a5,a5,a2
    2768:	ee5ff06f          	j	264c <__adddf3+0x94>
    276c:	7ff00813          	li	a6,2047
    2770:	03059263          	bne	a1,a6,2794 <__adddf3+0x1dc>
    2774:	00070793          	mv	a5,a4
    2778:	00060513          	mv	a0,a2
    277c:	ee1ff06f          	j	265c <__adddf3+0xa4>
    2780:	7ff00693          	li	a3,2047
    2784:	fed888e3          	beq	a7,a3,2774 <__adddf3+0x1bc>
    2788:	008006b7          	lui	a3,0x800
    278c:	00d7e7b3          	or	a5,a5,a3
    2790:	00058693          	mv	a3,a1
    2794:	03800593          	li	a1,56
    2798:	06d5ce63          	blt	a1,a3,2814 <__adddf3+0x25c>
    279c:	01f00593          	li	a1,31
    27a0:	04d5c063          	blt	a1,a3,27e0 <__adddf3+0x228>
    27a4:	02000813          	li	a6,32
    27a8:	40d80833          	sub	a6,a6,a3
    27ac:	00d55333          	srl	t1,a0,a3
    27b0:	010795b3          	sll	a1,a5,a6
    27b4:	01051533          	sll	a0,a0,a6
    27b8:	0065e5b3          	or	a1,a1,t1
    27bc:	00a03533          	snez	a0,a0
    27c0:	00a5e533          	or	a0,a1,a0
    27c4:	00d7d6b3          	srl	a3,a5,a3
    27c8:	00c50533          	add	a0,a0,a2
    27cc:	00e687b3          	add	a5,a3,a4
    27d0:	00c53633          	sltu	a2,a0,a2
    27d4:	00c787b3          	add	a5,a5,a2
    27d8:	00088493          	mv	s1,a7
    27dc:	ee5ff06f          	j	26c0 <__adddf3+0x108>
    27e0:	fe068593          	addi	a1,a3,-32 # 7fffe0 <__stack_top+0x7efff0>
    27e4:	02000313          	li	t1,32
    27e8:	00b7d5b3          	srl	a1,a5,a1
    27ec:	00000813          	li	a6,0
    27f0:	00668863          	beq	a3,t1,2800 <__adddf3+0x248>
    27f4:	04000813          	li	a6,64
    27f8:	40d806b3          	sub	a3,a6,a3
    27fc:	00d79833          	sll	a6,a5,a3
    2800:	00a86533          	or	a0,a6,a0
    2804:	00a03533          	snez	a0,a0
    2808:	00a5e533          	or	a0,a1,a0
    280c:	00000693          	li	a3,0
    2810:	fb9ff06f          	j	27c8 <__adddf3+0x210>
    2814:	00a7e533          	or	a0,a5,a0
    2818:	00a03533          	snez	a0,a0
    281c:	ff1ff06f          	j	280c <__adddf3+0x254>
    2820:	00148693          	addi	a3,s1,1
    2824:	7fe6f593          	andi	a1,a3,2046
    2828:	08059663          	bnez	a1,28b4 <__adddf3+0x2fc>
    282c:	00a7e6b3          	or	a3,a5,a0
    2830:	06049263          	bnez	s1,2894 <__adddf3+0x2dc>
    2834:	44068a63          	beqz	a3,2c88 <__adddf3+0x6d0>
    2838:	00c766b3          	or	a3,a4,a2
    283c:	02068863          	beqz	a3,286c <__adddf3+0x2b4>
    2840:	00c50633          	add	a2,a0,a2
    2844:	00e787b3          	add	a5,a5,a4
    2848:	00a63533          	sltu	a0,a2,a0
    284c:	00a787b3          	add	a5,a5,a0
    2850:	00879713          	slli	a4,a5,0x8
    2854:	00060513          	mv	a0,a2
    2858:	00075a63          	bgez	a4,286c <__adddf3+0x2b4>
    285c:	ff800737          	lui	a4,0xff800
    2860:	fff70713          	addi	a4,a4,-1 # ff7fffff <__stack_top+0xff7f000f>
    2864:	00e7f7b3          	and	a5,a5,a4
    2868:	00100493          	li	s1,1
    286c:	00757713          	andi	a4,a0,7
    2870:	42070863          	beqz	a4,2ca0 <__adddf3+0x6e8>
    2874:	00f57713          	andi	a4,a0,15
    2878:	00400693          	li	a3,4
    287c:	42d70263          	beq	a4,a3,2ca0 <__adddf3+0x6e8>
    2880:	00450693          	addi	a3,a0,4
    2884:	00a6b533          	sltu	a0,a3,a0
    2888:	00a787b3          	add	a5,a5,a0
    288c:	00068513          	mv	a0,a3
    2890:	4100006f          	j	2ca0 <__adddf3+0x6e8>
    2894:	ee0680e3          	beqz	a3,2774 <__adddf3+0x1bc>
    2898:	00c76633          	or	a2,a4,a2
    289c:	dc0600e3          	beqz	a2,265c <__adddf3+0xa4>
    28a0:	00000913          	li	s2,0
    28a4:	004007b7          	lui	a5,0x400
    28a8:	00000513          	li	a0,0
    28ac:	7ff00493          	li	s1,2047
    28b0:	3f00006f          	j	2ca0 <__adddf3+0x6e8>
    28b4:	7ff00593          	li	a1,2047
    28b8:	3cb68e63          	beq	a3,a1,2c94 <__adddf3+0x6dc>
    28bc:	00c50633          	add	a2,a0,a2
    28c0:	00e78733          	add	a4,a5,a4
    28c4:	00a637b3          	sltu	a5,a2,a0
    28c8:	00f70733          	add	a4,a4,a5
    28cc:	01f71513          	slli	a0,a4,0x1f
    28d0:	00165613          	srli	a2,a2,0x1
    28d4:	00c56533          	or	a0,a0,a2
    28d8:	00175793          	srli	a5,a4,0x1
    28dc:	00068493          	mv	s1,a3
    28e0:	f8dff06f          	j	286c <__adddf3+0x2b4>
    28e4:	0f005c63          	blez	a6,29dc <__adddf3+0x424>
    28e8:	08089e63          	bnez	a7,2984 <__adddf3+0x3cc>
    28ec:	00c766b3          	or	a3,a4,a2
    28f0:	42068e63          	beqz	a3,2d2c <__adddf3+0x774>
    28f4:	fff80593          	addi	a1,a6,-1
    28f8:	02059063          	bnez	a1,2918 <__adddf3+0x360>
    28fc:	40c50633          	sub	a2,a0,a2
    2900:	00c53533          	sltu	a0,a0,a2
    2904:	40e787b3          	sub	a5,a5,a4
    2908:	40a787b3          	sub	a5,a5,a0
    290c:	00060513          	mv	a0,a2
    2910:	00100493          	li	s1,1
    2914:	0540006f          	j	2968 <__adddf3+0x3b0>
    2918:	7ff00693          	li	a3,2047
    291c:	d4d800e3          	beq	a6,a3,265c <__adddf3+0xa4>
    2920:	03800693          	li	a3,56
    2924:	0ab6c663          	blt	a3,a1,29d0 <__adddf3+0x418>
    2928:	01f00693          	li	a3,31
    292c:	06b6c863          	blt	a3,a1,299c <__adddf3+0x3e4>
    2930:	02000813          	li	a6,32
    2934:	40b80833          	sub	a6,a6,a1
    2938:	010716b3          	sll	a3,a4,a6
    293c:	00b658b3          	srl	a7,a2,a1
    2940:	01061633          	sll	a2,a2,a6
    2944:	0116e6b3          	or	a3,a3,a7
    2948:	00c03633          	snez	a2,a2
    294c:	00c6e633          	or	a2,a3,a2
    2950:	00b75733          	srl	a4,a4,a1
    2954:	40c50633          	sub	a2,a0,a2
    2958:	40e78733          	sub	a4,a5,a4
    295c:	00c537b3          	sltu	a5,a0,a2
    2960:	40f707b3          	sub	a5,a4,a5
    2964:	00060513          	mv	a0,a2
    2968:	00879713          	slli	a4,a5,0x8
    296c:	f00750e3          	bgez	a4,286c <__adddf3+0x2b4>
    2970:	00800437          	lui	s0,0x800
    2974:	fff40413          	addi	s0,s0,-1 # 7fffff <__stack_top+0x7f000f>
    2978:	0087f433          	and	s0,a5,s0
    297c:	00050993          	mv	s3,a0
    2980:	20c0006f          	j	2b8c <__adddf3+0x5d4>
    2984:	7ff00693          	li	a3,2047
    2988:	eed482e3          	beq	s1,a3,286c <__adddf3+0x2b4>
    298c:	008006b7          	lui	a3,0x800
    2990:	00d76733          	or	a4,a4,a3
    2994:	00080593          	mv	a1,a6
    2998:	f89ff06f          	j	2920 <__adddf3+0x368>
    299c:	fe058693          	addi	a3,a1,-32
    29a0:	02000893          	li	a7,32
    29a4:	00d756b3          	srl	a3,a4,a3
    29a8:	00000813          	li	a6,0
    29ac:	01158863          	beq	a1,a7,29bc <__adddf3+0x404>
    29b0:	04000813          	li	a6,64
    29b4:	40b805b3          	sub	a1,a6,a1
    29b8:	00b71833          	sll	a6,a4,a1
    29bc:	00c86633          	or	a2,a6,a2
    29c0:	00c03633          	snez	a2,a2
    29c4:	00c6e633          	or	a2,a3,a2
    29c8:	00000713          	li	a4,0
    29cc:	f89ff06f          	j	2954 <__adddf3+0x39c>
    29d0:	00c76633          	or	a2,a4,a2
    29d4:	00c03633          	snez	a2,a2
    29d8:	ff1ff06f          	j	29c8 <__adddf3+0x410>
    29dc:	0e080863          	beqz	a6,2acc <__adddf3+0x514>
    29e0:	40988833          	sub	a6,a7,s1
    29e4:	04049263          	bnez	s1,2a28 <__adddf3+0x470>
    29e8:	00a7e5b3          	or	a1,a5,a0
    29ec:	34058463          	beqz	a1,2d34 <__adddf3+0x77c>
    29f0:	fff80593          	addi	a1,a6,-1
    29f4:	00059e63          	bnez	a1,2a10 <__adddf3+0x458>
    29f8:	40a60533          	sub	a0,a2,a0
    29fc:	40f707b3          	sub	a5,a4,a5
    2a00:	00a63633          	sltu	a2,a2,a0
    2a04:	40c787b3          	sub	a5,a5,a2
    2a08:	00068913          	mv	s2,a3
    2a0c:	f05ff06f          	j	2910 <__adddf3+0x358>
    2a10:	7ff00313          	li	t1,2047
    2a14:	02681463          	bne	a6,t1,2a3c <__adddf3+0x484>
    2a18:	00070793          	mv	a5,a4
    2a1c:	00060513          	mv	a0,a2
    2a20:	7ff00493          	li	s1,2047
    2a24:	0d00006f          	j	2af4 <__adddf3+0x53c>
    2a28:	7ff00593          	li	a1,2047
    2a2c:	feb886e3          	beq	a7,a1,2a18 <__adddf3+0x460>
    2a30:	008005b7          	lui	a1,0x800
    2a34:	00b7e7b3          	or	a5,a5,a1
    2a38:	00080593          	mv	a1,a6
    2a3c:	03800813          	li	a6,56
    2a40:	08b84063          	blt	a6,a1,2ac0 <__adddf3+0x508>
    2a44:	01f00813          	li	a6,31
    2a48:	04b84263          	blt	a6,a1,2a8c <__adddf3+0x4d4>
    2a4c:	02000313          	li	t1,32
    2a50:	40b30333          	sub	t1,t1,a1
    2a54:	00b55e33          	srl	t3,a0,a1
    2a58:	00679833          	sll	a6,a5,t1
    2a5c:	00651533          	sll	a0,a0,t1
    2a60:	01c86833          	or	a6,a6,t3
    2a64:	00a03533          	snez	a0,a0
    2a68:	00a86533          	or	a0,a6,a0
    2a6c:	00b7d5b3          	srl	a1,a5,a1
    2a70:	40a60533          	sub	a0,a2,a0
    2a74:	40b707b3          	sub	a5,a4,a1
    2a78:	00a63633          	sltu	a2,a2,a0
    2a7c:	40c787b3          	sub	a5,a5,a2
    2a80:	00088493          	mv	s1,a7
    2a84:	00068913          	mv	s2,a3
    2a88:	ee1ff06f          	j	2968 <__adddf3+0x3b0>
    2a8c:	fe058813          	addi	a6,a1,-32 # 7fffe0 <__stack_top+0x7efff0>
    2a90:	02000e13          	li	t3,32
    2a94:	0107d833          	srl	a6,a5,a6
    2a98:	00000313          	li	t1,0
    2a9c:	01c58863          	beq	a1,t3,2aac <__adddf3+0x4f4>
    2aa0:	04000313          	li	t1,64
    2aa4:	40b305b3          	sub	a1,t1,a1
    2aa8:	00b79333          	sll	t1,a5,a1
    2aac:	00a36533          	or	a0,t1,a0
    2ab0:	00a03533          	snez	a0,a0
    2ab4:	00a86533          	or	a0,a6,a0
    2ab8:	00000593          	li	a1,0
    2abc:	fb5ff06f          	j	2a70 <__adddf3+0x4b8>
    2ac0:	00a7e533          	or	a0,a5,a0
    2ac4:	00a03533          	snez	a0,a0
    2ac8:	ff1ff06f          	j	2ab8 <__adddf3+0x500>
    2acc:	00148593          	addi	a1,s1,1
    2ad0:	7fe5f593          	andi	a1,a1,2046
    2ad4:	08059663          	bnez	a1,2b60 <__adddf3+0x5a8>
    2ad8:	00a7e833          	or	a6,a5,a0
    2adc:	00c765b3          	or	a1,a4,a2
    2ae0:	06049063          	bnez	s1,2b40 <__adddf3+0x588>
    2ae4:	00081c63          	bnez	a6,2afc <__adddf3+0x544>
    2ae8:	24058e63          	beqz	a1,2d44 <__adddf3+0x78c>
    2aec:	00070793          	mv	a5,a4
    2af0:	00060513          	mv	a0,a2
    2af4:	00068913          	mv	s2,a3
    2af8:	d75ff06f          	j	286c <__adddf3+0x2b4>
    2afc:	d60588e3          	beqz	a1,286c <__adddf3+0x2b4>
    2b00:	40c50833          	sub	a6,a0,a2
    2b04:	010538b3          	sltu	a7,a0,a6
    2b08:	40e785b3          	sub	a1,a5,a4
    2b0c:	411585b3          	sub	a1,a1,a7
    2b10:	00859893          	slli	a7,a1,0x8
    2b14:	0008dc63          	bgez	a7,2b2c <__adddf3+0x574>
    2b18:	40a60533          	sub	a0,a2,a0
    2b1c:	40f707b3          	sub	a5,a4,a5
    2b20:	00a63633          	sltu	a2,a2,a0
    2b24:	40c787b3          	sub	a5,a5,a2
    2b28:	fcdff06f          	j	2af4 <__adddf3+0x53c>
    2b2c:	00b86533          	or	a0,a6,a1
    2b30:	22050263          	beqz	a0,2d54 <__adddf3+0x79c>
    2b34:	00058793          	mv	a5,a1
    2b38:	00080513          	mv	a0,a6
    2b3c:	d31ff06f          	j	286c <__adddf3+0x2b4>
    2b40:	00081c63          	bnez	a6,2b58 <__adddf3+0x5a0>
    2b44:	20058c63          	beqz	a1,2d5c <__adddf3+0x7a4>
    2b48:	00070793          	mv	a5,a4
    2b4c:	00060513          	mv	a0,a2
    2b50:	00068913          	mv	s2,a3
    2b54:	b09ff06f          	j	265c <__adddf3+0xa4>
    2b58:	b00582e3          	beqz	a1,265c <__adddf3+0xa4>
    2b5c:	d45ff06f          	j	28a0 <__adddf3+0x2e8>
    2b60:	40c509b3          	sub	s3,a0,a2
    2b64:	013535b3          	sltu	a1,a0,s3
    2b68:	40e78433          	sub	s0,a5,a4
    2b6c:	40b40433          	sub	s0,s0,a1
    2b70:	00841593          	slli	a1,s0,0x8
    2b74:	0805d463          	bgez	a1,2bfc <__adddf3+0x644>
    2b78:	40a609b3          	sub	s3,a2,a0
    2b7c:	40f707b3          	sub	a5,a4,a5
    2b80:	01363633          	sltu	a2,a2,s3
    2b84:	40c78433          	sub	s0,a5,a2
    2b88:	00068913          	mv	s2,a3
    2b8c:	08040263          	beqz	s0,2c10 <__adddf3+0x658>
    2b90:	00040513          	mv	a0,s0
    2b94:	6d5010ef          	jal	ra,4a68 <__clzsi2>
    2b98:	ff850713          	addi	a4,a0,-8
    2b9c:	01f00793          	li	a5,31
    2ba0:	08e7c063          	blt	a5,a4,2c20 <__adddf3+0x668>
    2ba4:	02000793          	li	a5,32
    2ba8:	40e787b3          	sub	a5,a5,a4
    2bac:	00e41433          	sll	s0,s0,a4
    2bb0:	00f9d7b3          	srl	a5,s3,a5
    2bb4:	0087e433          	or	s0,a5,s0
    2bb8:	00e99533          	sll	a0,s3,a4
    2bbc:	0a974463          	blt	a4,s1,2c64 <__adddf3+0x6ac>
    2bc0:	40970733          	sub	a4,a4,s1
    2bc4:	00170793          	addi	a5,a4,1
    2bc8:	01f00693          	li	a3,31
    2bcc:	06f6c263          	blt	a3,a5,2c30 <__adddf3+0x678>
    2bd0:	02000713          	li	a4,32
    2bd4:	40f70733          	sub	a4,a4,a5
    2bd8:	00f55633          	srl	a2,a0,a5
    2bdc:	00e416b3          	sll	a3,s0,a4
    2be0:	00e51533          	sll	a0,a0,a4
    2be4:	00c6e6b3          	or	a3,a3,a2
    2be8:	00a03533          	snez	a0,a0
    2bec:	00a6e533          	or	a0,a3,a0
    2bf0:	00f457b3          	srl	a5,s0,a5
    2bf4:	00000493          	li	s1,0
    2bf8:	c75ff06f          	j	286c <__adddf3+0x2b4>
    2bfc:	0089e533          	or	a0,s3,s0
    2c00:	f80516e3          	bnez	a0,2b8c <__adddf3+0x5d4>
    2c04:	00000793          	li	a5,0
    2c08:	00000493          	li	s1,0
    2c0c:	1400006f          	j	2d4c <__adddf3+0x794>
    2c10:	00098513          	mv	a0,s3
    2c14:	655010ef          	jal	ra,4a68 <__clzsi2>
    2c18:	02050513          	addi	a0,a0,32
    2c1c:	f7dff06f          	j	2b98 <__adddf3+0x5e0>
    2c20:	fd850413          	addi	s0,a0,-40
    2c24:	00899433          	sll	s0,s3,s0
    2c28:	00000513          	li	a0,0
    2c2c:	f91ff06f          	j	2bbc <__adddf3+0x604>
    2c30:	fe170713          	addi	a4,a4,-31
    2c34:	02000613          	li	a2,32
    2c38:	00e45733          	srl	a4,s0,a4
    2c3c:	00000693          	li	a3,0
    2c40:	00c78863          	beq	a5,a2,2c50 <__adddf3+0x698>
    2c44:	04000693          	li	a3,64
    2c48:	40f686b3          	sub	a3,a3,a5
    2c4c:	00d416b3          	sll	a3,s0,a3
    2c50:	00d56533          	or	a0,a0,a3
    2c54:	00a03533          	snez	a0,a0
    2c58:	00a76533          	or	a0,a4,a0
    2c5c:	00000793          	li	a5,0
    2c60:	f95ff06f          	j	2bf4 <__adddf3+0x63c>
    2c64:	ff8007b7          	lui	a5,0xff800
    2c68:	fff78793          	addi	a5,a5,-1 # ff7fffff <__stack_top+0xff7f000f>
    2c6c:	40e484b3          	sub	s1,s1,a4
    2c70:	00f477b3          	and	a5,s0,a5
    2c74:	bf9ff06f          	j	286c <__adddf3+0x2b4>
    2c78:	00070793          	mv	a5,a4
    2c7c:	00060513          	mv	a0,a2
    2c80:	00058493          	mv	s1,a1
    2c84:	be9ff06f          	j	286c <__adddf3+0x2b4>
    2c88:	00070793          	mv	a5,a4
    2c8c:	00060513          	mv	a0,a2
    2c90:	bddff06f          	j	286c <__adddf3+0x2b4>
    2c94:	7ff00493          	li	s1,2047
    2c98:	00000793          	li	a5,0
    2c9c:	00000513          	li	a0,0
    2ca0:	00879713          	slli	a4,a5,0x8
    2ca4:	00075e63          	bgez	a4,2cc0 <__adddf3+0x708>
    2ca8:	00148493          	addi	s1,s1,1
    2cac:	7ff00713          	li	a4,2047
    2cb0:	0ae48e63          	beq	s1,a4,2d6c <__adddf3+0x7b4>
    2cb4:	ff800737          	lui	a4,0xff800
    2cb8:	fff70713          	addi	a4,a4,-1 # ff7fffff <__stack_top+0xff7f000f>
    2cbc:	00e7f7b3          	and	a5,a5,a4
    2cc0:	01d79713          	slli	a4,a5,0x1d
    2cc4:	00355513          	srli	a0,a0,0x3
    2cc8:	00a76533          	or	a0,a4,a0
    2ccc:	7ff00713          	li	a4,2047
    2cd0:	0037d793          	srli	a5,a5,0x3
    2cd4:	00e49e63          	bne	s1,a4,2cf0 <__adddf3+0x738>
    2cd8:	00f56533          	or	a0,a0,a5
    2cdc:	00000793          	li	a5,0
    2ce0:	00050863          	beqz	a0,2cf0 <__adddf3+0x738>
    2ce4:	000807b7          	lui	a5,0x80
    2ce8:	00000513          	li	a0,0
    2cec:	00000913          	li	s2,0
    2cf0:	7ff4f713          	andi	a4,s1,2047
    2cf4:	00c79793          	slli	a5,a5,0xc
    2cf8:	01471713          	slli	a4,a4,0x14
    2cfc:	01c12083          	lw	ra,28(sp)
    2d00:	01812403          	lw	s0,24(sp)
    2d04:	00c7d793          	srli	a5,a5,0xc
    2d08:	01f91593          	slli	a1,s2,0x1f
    2d0c:	00e7e7b3          	or	a5,a5,a4
    2d10:	00b7e733          	or	a4,a5,a1
    2d14:	01412483          	lw	s1,20(sp)
    2d18:	01012903          	lw	s2,16(sp)
    2d1c:	00c12983          	lw	s3,12(sp)
    2d20:	00070593          	mv	a1,a4
    2d24:	02010113          	addi	sp,sp,32
    2d28:	00008067          	ret
    2d2c:	00080493          	mv	s1,a6
    2d30:	b3dff06f          	j	286c <__adddf3+0x2b4>
    2d34:	00070793          	mv	a5,a4
    2d38:	00060513          	mv	a0,a2
    2d3c:	00080493          	mv	s1,a6
    2d40:	db5ff06f          	j	2af4 <__adddf3+0x53c>
    2d44:	00000793          	li	a5,0
    2d48:	00000513          	li	a0,0
    2d4c:	00000913          	li	s2,0
    2d50:	f51ff06f          	j	2ca0 <__adddf3+0x6e8>
    2d54:	00000793          	li	a5,0
    2d58:	ff5ff06f          	j	2d4c <__adddf3+0x794>
    2d5c:	00000513          	li	a0,0
    2d60:	00000913          	li	s2,0
    2d64:	004007b7          	lui	a5,0x400
    2d68:	b45ff06f          	j	28ac <__adddf3+0x2f4>
    2d6c:	00000793          	li	a5,0
    2d70:	00000513          	li	a0,0
    2d74:	f4dff06f          	j	2cc0 <__adddf3+0x708>

00002d78 <__divdf3>:
    2d78:	fd010113          	addi	sp,sp,-48
    2d7c:	02812423          	sw	s0,40(sp)
    2d80:	01612823          	sw	s6,16(sp)
    2d84:	00050413          	mv	s0,a0
    2d88:	00050b13          	mv	s6,a0
    2d8c:	0145d513          	srli	a0,a1,0x14
    2d90:	03212023          	sw	s2,32(sp)
    2d94:	01312e23          	sw	s3,28(sp)
    2d98:	01412c23          	sw	s4,24(sp)
    2d9c:	01712623          	sw	s7,12(sp)
    2da0:	00c59913          	slli	s2,a1,0xc
    2da4:	02112623          	sw	ra,44(sp)
    2da8:	02912223          	sw	s1,36(sp)
    2dac:	01512a23          	sw	s5,20(sp)
    2db0:	7ff57513          	andi	a0,a0,2047
    2db4:	00060b93          	mv	s7,a2
    2db8:	00068a13          	mv	s4,a3
    2dbc:	00c95913          	srli	s2,s2,0xc
    2dc0:	01f5d993          	srli	s3,a1,0x1f
    2dc4:	0a050263          	beqz	a0,2e68 <__divdf3+0xf0>
    2dc8:	7ff00793          	li	a5,2047
    2dcc:	10f50263          	beq	a0,a5,2ed0 <__divdf3+0x158>
    2dd0:	01db5a93          	srli	s5,s6,0x1d
    2dd4:	00391913          	slli	s2,s2,0x3
    2dd8:	012ae933          	or	s2,s5,s2
    2ddc:	00800ab7          	lui	s5,0x800
    2de0:	01596ab3          	or	s5,s2,s5
    2de4:	003b1413          	slli	s0,s6,0x3
    2de8:	c0150493          	addi	s1,a0,-1023
    2dec:	00000b13          	li	s6,0
    2df0:	014a5513          	srli	a0,s4,0x14
    2df4:	00ca1913          	slli	s2,s4,0xc
    2df8:	7ff57513          	andi	a0,a0,2047
    2dfc:	000b8813          	mv	a6,s7
    2e00:	00c95913          	srli	s2,s2,0xc
    2e04:	01fa5a13          	srli	s4,s4,0x1f
    2e08:	10050063          	beqz	a0,2f08 <__divdf3+0x190>
    2e0c:	7ff00793          	li	a5,2047
    2e10:	16f50063          	beq	a0,a5,2f70 <__divdf3+0x1f8>
    2e14:	01dbd793          	srli	a5,s7,0x1d
    2e18:	00391913          	slli	s2,s2,0x3
    2e1c:	0127e7b3          	or	a5,a5,s2
    2e20:	008008b7          	lui	a7,0x800
    2e24:	0117e8b3          	or	a7,a5,a7
    2e28:	003b9813          	slli	a6,s7,0x3
    2e2c:	c0150513          	addi	a0,a0,-1023
    2e30:	00000793          	li	a5,0
    2e34:	002b1713          	slli	a4,s6,0x2
    2e38:	00f76733          	or	a4,a4,a5
    2e3c:	fff70713          	addi	a4,a4,-1
    2e40:	00e00693          	li	a3,14
    2e44:	0149c633          	xor	a2,s3,s4
    2e48:	40a48533          	sub	a0,s1,a0
    2e4c:	14e6ee63          	bltu	a3,a4,2fa8 <__divdf3+0x230>
    2e50:	000076b7          	lui	a3,0x7
    2e54:	00271713          	slli	a4,a4,0x2
    2e58:	81c68693          	addi	a3,a3,-2020 # 681c <heap_top+0x1600>
    2e5c:	00d70733          	add	a4,a4,a3
    2e60:	00072703          	lw	a4,0(a4)
    2e64:	00070067          	jr	a4
    2e68:	01696ab3          	or	s5,s2,s6
    2e6c:	060a8e63          	beqz	s5,2ee8 <__divdf3+0x170>
    2e70:	04090063          	beqz	s2,2eb0 <__divdf3+0x138>
    2e74:	00090513          	mv	a0,s2
    2e78:	3f1010ef          	jal	ra,4a68 <__clzsi2>
    2e7c:	ff550793          	addi	a5,a0,-11
    2e80:	01c00713          	li	a4,28
    2e84:	02f74e63          	blt	a4,a5,2ec0 <__divdf3+0x148>
    2e88:	01d00a93          	li	s5,29
    2e8c:	ff850413          	addi	s0,a0,-8
    2e90:	40fa8ab3          	sub	s5,s5,a5
    2e94:	00891933          	sll	s2,s2,s0
    2e98:	015b5ab3          	srl	s5,s6,s5
    2e9c:	012aeab3          	or	s5,s5,s2
    2ea0:	008b1433          	sll	s0,s6,s0
    2ea4:	c0d00493          	li	s1,-1011
    2ea8:	40a484b3          	sub	s1,s1,a0
    2eac:	f41ff06f          	j	2dec <__divdf3+0x74>
    2eb0:	000b0513          	mv	a0,s6
    2eb4:	3b5010ef          	jal	ra,4a68 <__clzsi2>
    2eb8:	02050513          	addi	a0,a0,32
    2ebc:	fc1ff06f          	j	2e7c <__divdf3+0x104>
    2ec0:	fd850913          	addi	s2,a0,-40
    2ec4:	012b1ab3          	sll	s5,s6,s2
    2ec8:	00000413          	li	s0,0
    2ecc:	fd9ff06f          	j	2ea4 <__divdf3+0x12c>
    2ed0:	01696ab3          	or	s5,s2,s6
    2ed4:	020a8263          	beqz	s5,2ef8 <__divdf3+0x180>
    2ed8:	00090a93          	mv	s5,s2
    2edc:	7ff00493          	li	s1,2047
    2ee0:	00300b13          	li	s6,3
    2ee4:	f0dff06f          	j	2df0 <__divdf3+0x78>
    2ee8:	00000413          	li	s0,0
    2eec:	00000493          	li	s1,0
    2ef0:	00100b13          	li	s6,1
    2ef4:	efdff06f          	j	2df0 <__divdf3+0x78>
    2ef8:	00000413          	li	s0,0
    2efc:	7ff00493          	li	s1,2047
    2f00:	00200b13          	li	s6,2
    2f04:	eedff06f          	j	2df0 <__divdf3+0x78>
    2f08:	017968b3          	or	a7,s2,s7
    2f0c:	06088e63          	beqz	a7,2f88 <__divdf3+0x210>
    2f10:	04090063          	beqz	s2,2f50 <__divdf3+0x1d8>
    2f14:	00090513          	mv	a0,s2
    2f18:	351010ef          	jal	ra,4a68 <__clzsi2>
    2f1c:	ff550893          	addi	a7,a0,-11
    2f20:	01c00793          	li	a5,28
    2f24:	0317ce63          	blt	a5,a7,2f60 <__divdf3+0x1e8>
    2f28:	01d00793          	li	a5,29
    2f2c:	ff850813          	addi	a6,a0,-8
    2f30:	411787b3          	sub	a5,a5,a7
    2f34:	01091933          	sll	s2,s2,a6
    2f38:	00fbd7b3          	srl	a5,s7,a5
    2f3c:	0127e8b3          	or	a7,a5,s2
    2f40:	010b9833          	sll	a6,s7,a6
    2f44:	c0d00793          	li	a5,-1011
    2f48:	40a78533          	sub	a0,a5,a0
    2f4c:	ee5ff06f          	j	2e30 <__divdf3+0xb8>
    2f50:	000b8513          	mv	a0,s7
    2f54:	315010ef          	jal	ra,4a68 <__clzsi2>
    2f58:	02050513          	addi	a0,a0,32
    2f5c:	fc1ff06f          	j	2f1c <__divdf3+0x1a4>
    2f60:	fd850793          	addi	a5,a0,-40
    2f64:	00fb98b3          	sll	a7,s7,a5
    2f68:	00000813          	li	a6,0
    2f6c:	fd9ff06f          	j	2f44 <__divdf3+0x1cc>
    2f70:	017968b3          	or	a7,s2,s7
    2f74:	02088263          	beqz	a7,2f98 <__divdf3+0x220>
    2f78:	00090893          	mv	a7,s2
    2f7c:	7ff00513          	li	a0,2047
    2f80:	00300793          	li	a5,3
    2f84:	eb1ff06f          	j	2e34 <__divdf3+0xbc>
    2f88:	00000813          	li	a6,0
    2f8c:	00000513          	li	a0,0
    2f90:	00100793          	li	a5,1
    2f94:	ea1ff06f          	j	2e34 <__divdf3+0xbc>
    2f98:	00000813          	li	a6,0
    2f9c:	7ff00513          	li	a0,2047
    2fa0:	00200793          	li	a5,2
    2fa4:	e91ff06f          	j	2e34 <__divdf3+0xbc>
    2fa8:	0158e663          	bltu	a7,s5,2fb4 <__divdf3+0x23c>
    2fac:	351a9863          	bne	s5,a7,32fc <__divdf3+0x584>
    2fb0:	35046663          	bltu	s0,a6,32fc <__divdf3+0x584>
    2fb4:	01fa9693          	slli	a3,s5,0x1f
    2fb8:	00145793          	srli	a5,s0,0x1
    2fbc:	01f41713          	slli	a4,s0,0x1f
    2fc0:	001ada93          	srli	s5,s5,0x1
    2fc4:	00f6e433          	or	s0,a3,a5
    2fc8:	00889793          	slli	a5,a7,0x8
    2fcc:	01885893          	srli	a7,a6,0x18
    2fd0:	00f8e7b3          	or	a5,a7,a5
    2fd4:	0107de93          	srli	t4,a5,0x10
    2fd8:	03dad8b3          	divu	a7,s5,t4
    2fdc:	01079e13          	slli	t3,a5,0x10
    2fe0:	010e5e13          	srli	t3,t3,0x10
    2fe4:	00881313          	slli	t1,a6,0x8
    2fe8:	01045693          	srli	a3,s0,0x10
    2fec:	03daf933          	remu	s2,s5,t4
    2ff0:	00088593          	mv	a1,a7
    2ff4:	031e0833          	mul	a6,t3,a7
    2ff8:	01091a93          	slli	s5,s2,0x10
    2ffc:	0156e6b3          	or	a3,a3,s5
    3000:	0106fe63          	bleu	a6,a3,301c <__divdf3+0x2a4>
    3004:	00f686b3          	add	a3,a3,a5
    3008:	fff88593          	addi	a1,a7,-1 # 7fffff <__stack_top+0x7f000f>
    300c:	00f6e863          	bltu	a3,a5,301c <__divdf3+0x2a4>
    3010:	0106f663          	bleu	a6,a3,301c <__divdf3+0x2a4>
    3014:	ffe88593          	addi	a1,a7,-2
    3018:	00f686b3          	add	a3,a3,a5
    301c:	410686b3          	sub	a3,a3,a6
    3020:	03d6df33          	divu	t5,a3,t4
    3024:	01041413          	slli	s0,s0,0x10
    3028:	01045413          	srli	s0,s0,0x10
    302c:	03d6f6b3          	remu	a3,a3,t4
    3030:	000f0813          	mv	a6,t5
    3034:	03ee08b3          	mul	a7,t3,t5
    3038:	01069693          	slli	a3,a3,0x10
    303c:	00d466b3          	or	a3,s0,a3
    3040:	0116fe63          	bleu	a7,a3,305c <__divdf3+0x2e4>
    3044:	00f686b3          	add	a3,a3,a5
    3048:	ffff0813          	addi	a6,t5,-1
    304c:	00f6e863          	bltu	a3,a5,305c <__divdf3+0x2e4>
    3050:	0116f663          	bleu	a7,a3,305c <__divdf3+0x2e4>
    3054:	ffef0813          	addi	a6,t5,-2
    3058:	00f686b3          	add	a3,a3,a5
    305c:	41168433          	sub	s0,a3,a7
    3060:	01059693          	slli	a3,a1,0x10
    3064:	000105b7          	lui	a1,0x10
    3068:	0106e6b3          	or	a3,a3,a6
    306c:	fff58f13          	addi	t5,a1,-1 # ffff <__stack_top+0xf>
    3070:	0106d293          	srli	t0,a3,0x10
    3074:	01e6f833          	and	a6,a3,t5
    3078:	01035f93          	srli	t6,t1,0x10
    307c:	01e37f33          	and	t5,t1,t5
    3080:	03e803b3          	mul	t2,a6,t5
    3084:	03e284b3          	mul	s1,t0,t5
    3088:	030f8833          	mul	a6,t6,a6
    308c:	03f288b3          	mul	a7,t0,t6
    3090:	009802b3          	add	t0,a6,s1
    3094:	0103d813          	srli	a6,t2,0x10
    3098:	00580833          	add	a6,a6,t0
    309c:	00987463          	bleu	s1,a6,30a4 <__divdf3+0x32c>
    30a0:	00b888b3          	add	a7,a7,a1
    30a4:	01085293          	srli	t0,a6,0x10
    30a8:	011282b3          	add	t0,t0,a7
    30ac:	000108b7          	lui	a7,0x10
    30b0:	fff88893          	addi	a7,a7,-1 # ffff <__stack_top+0xf>
    30b4:	011875b3          	and	a1,a6,a7
    30b8:	01059593          	slli	a1,a1,0x10
    30bc:	0113f3b3          	and	t2,t2,a7
    30c0:	007585b3          	add	a1,a1,t2
    30c4:	00546863          	bltu	s0,t0,30d4 <__divdf3+0x35c>
    30c8:	00068893          	mv	a7,a3
    30cc:	04541463          	bne	s0,t0,3114 <__divdf3+0x39c>
    30d0:	04b77263          	bleu	a1,a4,3114 <__divdf3+0x39c>
    30d4:	00670733          	add	a4,a4,t1
    30d8:	00673833          	sltu	a6,a4,t1
    30dc:	00f80833          	add	a6,a6,a5
    30e0:	01040433          	add	s0,s0,a6
    30e4:	fff68893          	addi	a7,a3,-1
    30e8:	0087e663          	bltu	a5,s0,30f4 <__divdf3+0x37c>
    30ec:	02879463          	bne	a5,s0,3114 <__divdf3+0x39c>
    30f0:	02676263          	bltu	a4,t1,3114 <__divdf3+0x39c>
    30f4:	00546663          	bltu	s0,t0,3100 <__divdf3+0x388>
    30f8:	00829e63          	bne	t0,s0,3114 <__divdf3+0x39c>
    30fc:	00b77c63          	bleu	a1,a4,3114 <__divdf3+0x39c>
    3100:	00670733          	add	a4,a4,t1
    3104:	ffe68893          	addi	a7,a3,-2
    3108:	006736b3          	sltu	a3,a4,t1
    310c:	00f686b3          	add	a3,a3,a5
    3110:	00d40433          	add	s0,s0,a3
    3114:	40b705b3          	sub	a1,a4,a1
    3118:	40540433          	sub	s0,s0,t0
    311c:	00b73733          	sltu	a4,a4,a1
    3120:	40e40433          	sub	s0,s0,a4
    3124:	fff00813          	li	a6,-1
    3128:	12878463          	beq	a5,s0,3250 <__divdf3+0x4d8>
    312c:	03d452b3          	divu	t0,s0,t4
    3130:	0105d693          	srli	a3,a1,0x10
    3134:	03d47433          	remu	s0,s0,t4
    3138:	00028813          	mv	a6,t0
    313c:	025e0733          	mul	a4,t3,t0
    3140:	01041413          	slli	s0,s0,0x10
    3144:	0086e433          	or	s0,a3,s0
    3148:	00e47e63          	bleu	a4,s0,3164 <__divdf3+0x3ec>
    314c:	00f40433          	add	s0,s0,a5
    3150:	fff28813          	addi	a6,t0,-1
    3154:	00f46863          	bltu	s0,a5,3164 <__divdf3+0x3ec>
    3158:	00e47663          	bleu	a4,s0,3164 <__divdf3+0x3ec>
    315c:	ffe28813          	addi	a6,t0,-2
    3160:	00f40433          	add	s0,s0,a5
    3164:	40e40433          	sub	s0,s0,a4
    3168:	03d456b3          	divu	a3,s0,t4
    316c:	01059593          	slli	a1,a1,0x10
    3170:	0105d593          	srli	a1,a1,0x10
    3174:	03d47433          	remu	s0,s0,t4
    3178:	00068713          	mv	a4,a3
    317c:	02de0e33          	mul	t3,t3,a3
    3180:	01041413          	slli	s0,s0,0x10
    3184:	0085e433          	or	s0,a1,s0
    3188:	01c47e63          	bleu	t3,s0,31a4 <__divdf3+0x42c>
    318c:	00f40433          	add	s0,s0,a5
    3190:	fff68713          	addi	a4,a3,-1
    3194:	00f46863          	bltu	s0,a5,31a4 <__divdf3+0x42c>
    3198:	01c47663          	bleu	t3,s0,31a4 <__divdf3+0x42c>
    319c:	ffe68713          	addi	a4,a3,-2
    31a0:	00f40433          	add	s0,s0,a5
    31a4:	01081813          	slli	a6,a6,0x10
    31a8:	00e86833          	or	a6,a6,a4
    31ac:	01081693          	slli	a3,a6,0x10
    31b0:	0106d693          	srli	a3,a3,0x10
    31b4:	01085593          	srli	a1,a6,0x10
    31b8:	03e68eb3          	mul	t4,a3,t5
    31bc:	41c40433          	sub	s0,s0,t3
    31c0:	03e58f33          	mul	t5,a1,t5
    31c4:	02bf8e33          	mul	t3,t6,a1
    31c8:	02df8fb3          	mul	t6,t6,a3
    31cc:	010ed693          	srli	a3,t4,0x10
    31d0:	01ef8fb3          	add	t6,t6,t5
    31d4:	01f686b3          	add	a3,a3,t6
    31d8:	01e6f663          	bleu	t5,a3,31e4 <__divdf3+0x46c>
    31dc:	00010737          	lui	a4,0x10
    31e0:	00ee0e33          	add	t3,t3,a4
    31e4:	0106d593          	srli	a1,a3,0x10
    31e8:	01c585b3          	add	a1,a1,t3
    31ec:	00010e37          	lui	t3,0x10
    31f0:	fffe0e13          	addi	t3,t3,-1 # ffff <__stack_top+0xf>
    31f4:	01c6f733          	and	a4,a3,t3
    31f8:	01071713          	slli	a4,a4,0x10
    31fc:	01cefeb3          	and	t4,t4,t3
    3200:	01d70733          	add	a4,a4,t4
    3204:	00b46663          	bltu	s0,a1,3210 <__divdf3+0x498>
    3208:	22b41c63          	bne	s0,a1,3440 <__divdf3+0x6c8>
    320c:	04070263          	beqz	a4,3250 <__divdf3+0x4d8>
    3210:	00878433          	add	s0,a5,s0
    3214:	fff80693          	addi	a3,a6,-1
    3218:	02f46463          	bltu	s0,a5,3240 <__divdf3+0x4c8>
    321c:	00b46663          	bltu	s0,a1,3228 <__divdf3+0x4b0>
    3220:	20b41e63          	bne	s0,a1,343c <__divdf3+0x6c4>
    3224:	02e37063          	bleu	a4,t1,3244 <__divdf3+0x4cc>
    3228:	ffe80693          	addi	a3,a6,-2
    322c:	00131813          	slli	a6,t1,0x1
    3230:	00683333          	sltu	t1,a6,t1
    3234:	00f307b3          	add	a5,t1,a5
    3238:	00f40433          	add	s0,s0,a5
    323c:	00080313          	mv	t1,a6
    3240:	00b41663          	bne	s0,a1,324c <__divdf3+0x4d4>
    3244:	00068813          	mv	a6,a3
    3248:	00670463          	beq	a4,t1,3250 <__divdf3+0x4d8>
    324c:	0016e813          	ori	a6,a3,1
    3250:	3ff50693          	addi	a3,a0,1023
    3254:	10d05263          	blez	a3,3358 <__divdf3+0x5e0>
    3258:	00787793          	andi	a5,a6,7
    325c:	02078063          	beqz	a5,327c <__divdf3+0x504>
    3260:	00f87793          	andi	a5,a6,15
    3264:	00400713          	li	a4,4
    3268:	00e78a63          	beq	a5,a4,327c <__divdf3+0x504>
    326c:	00480793          	addi	a5,a6,4
    3270:	0107b833          	sltu	a6,a5,a6
    3274:	010888b3          	add	a7,a7,a6
    3278:	00078813          	mv	a6,a5
    327c:	00789793          	slli	a5,a7,0x7
    3280:	0007da63          	bgez	a5,3294 <__divdf3+0x51c>
    3284:	ff0007b7          	lui	a5,0xff000
    3288:	fff78793          	addi	a5,a5,-1 # feffffff <__stack_top+0xfeff000f>
    328c:	00f8f8b3          	and	a7,a7,a5
    3290:	40050693          	addi	a3,a0,1024
    3294:	7fe00793          	li	a5,2046
    3298:	18d7c263          	blt	a5,a3,341c <__divdf3+0x6a4>
    329c:	00385813          	srli	a6,a6,0x3
    32a0:	01d89713          	slli	a4,a7,0x1d
    32a4:	01076733          	or	a4,a4,a6
    32a8:	0038d793          	srli	a5,a7,0x3
    32ac:	00c79793          	slli	a5,a5,0xc
    32b0:	7ff6f693          	andi	a3,a3,2047
    32b4:	01469693          	slli	a3,a3,0x14
    32b8:	02c12083          	lw	ra,44(sp)
    32bc:	02812403          	lw	s0,40(sp)
    32c0:	00c7d793          	srli	a5,a5,0xc
    32c4:	01f61613          	slli	a2,a2,0x1f
    32c8:	00d7e7b3          	or	a5,a5,a3
    32cc:	00c7e6b3          	or	a3,a5,a2
    32d0:	02412483          	lw	s1,36(sp)
    32d4:	02012903          	lw	s2,32(sp)
    32d8:	01c12983          	lw	s3,28(sp)
    32dc:	01812a03          	lw	s4,24(sp)
    32e0:	01412a83          	lw	s5,20(sp)
    32e4:	01012b03          	lw	s6,16(sp)
    32e8:	00c12b83          	lw	s7,12(sp)
    32ec:	00070513          	mv	a0,a4
    32f0:	00068593          	mv	a1,a3
    32f4:	03010113          	addi	sp,sp,48
    32f8:	00008067          	ret
    32fc:	fff50513          	addi	a0,a0,-1
    3300:	00000713          	li	a4,0
    3304:	cc5ff06f          	j	2fc8 <__divdf3+0x250>
    3308:	00098613          	mv	a2,s3
    330c:	000a8893          	mv	a7,s5
    3310:	00040813          	mv	a6,s0
    3314:	000b0793          	mv	a5,s6
    3318:	00200713          	li	a4,2
    331c:	10e78063          	beq	a5,a4,341c <__divdf3+0x6a4>
    3320:	00300713          	li	a4,3
    3324:	0ee78263          	beq	a5,a4,3408 <__divdf3+0x690>
    3328:	00100713          	li	a4,1
    332c:	f2e792e3          	bne	a5,a4,3250 <__divdf3+0x4d8>
    3330:	00000793          	li	a5,0
    3334:	00000713          	li	a4,0
    3338:	0940006f          	j	33cc <__divdf3+0x654>
    333c:	000a0613          	mv	a2,s4
    3340:	fd9ff06f          	j	3318 <__divdf3+0x5a0>
    3344:	000808b7          	lui	a7,0x80
    3348:	00000813          	li	a6,0
    334c:	00000613          	li	a2,0
    3350:	00300793          	li	a5,3
    3354:	fc5ff06f          	j	3318 <__divdf3+0x5a0>
    3358:	00100793          	li	a5,1
    335c:	40d787b3          	sub	a5,a5,a3
    3360:	03800713          	li	a4,56
    3364:	fcf746e3          	blt	a4,a5,3330 <__divdf3+0x5b8>
    3368:	01f00713          	li	a4,31
    336c:	06f74463          	blt	a4,a5,33d4 <__divdf3+0x65c>
    3370:	41e50513          	addi	a0,a0,1054
    3374:	00a89733          	sll	a4,a7,a0
    3378:	00f856b3          	srl	a3,a6,a5
    337c:	00a81533          	sll	a0,a6,a0
    3380:	00d76733          	or	a4,a4,a3
    3384:	00a03533          	snez	a0,a0
    3388:	00a76733          	or	a4,a4,a0
    338c:	00f8d7b3          	srl	a5,a7,a5
    3390:	00777693          	andi	a3,a4,7
    3394:	02068063          	beqz	a3,33b4 <__divdf3+0x63c>
    3398:	00f77693          	andi	a3,a4,15
    339c:	00400593          	li	a1,4
    33a0:	00b68a63          	beq	a3,a1,33b4 <__divdf3+0x63c>
    33a4:	00470693          	addi	a3,a4,4 # 10004 <__stack_top+0x14>
    33a8:	00e6b733          	sltu	a4,a3,a4
    33ac:	00e787b3          	add	a5,a5,a4
    33b0:	00068713          	mv	a4,a3
    33b4:	00879693          	slli	a3,a5,0x8
    33b8:	0606ca63          	bltz	a3,342c <__divdf3+0x6b4>
    33bc:	01d79813          	slli	a6,a5,0x1d
    33c0:	00375713          	srli	a4,a4,0x3
    33c4:	00e86733          	or	a4,a6,a4
    33c8:	0037d793          	srli	a5,a5,0x3
    33cc:	00000693          	li	a3,0
    33d0:	eddff06f          	j	32ac <__divdf3+0x534>
    33d4:	fe100713          	li	a4,-31
    33d8:	40d70733          	sub	a4,a4,a3
    33dc:	02000593          	li	a1,32
    33e0:	00e8d733          	srl	a4,a7,a4
    33e4:	00000693          	li	a3,0
    33e8:	00b78663          	beq	a5,a1,33f4 <__divdf3+0x67c>
    33ec:	43e50513          	addi	a0,a0,1086
    33f0:	00a896b3          	sll	a3,a7,a0
    33f4:	0106e6b3          	or	a3,a3,a6
    33f8:	00d036b3          	snez	a3,a3
    33fc:	00d76733          	or	a4,a4,a3
    3400:	00000793          	li	a5,0
    3404:	f8dff06f          	j	3390 <__divdf3+0x618>
    3408:	000807b7          	lui	a5,0x80
    340c:	00000713          	li	a4,0
    3410:	7ff00693          	li	a3,2047
    3414:	00000613          	li	a2,0
    3418:	e95ff06f          	j	32ac <__divdf3+0x534>
    341c:	00000793          	li	a5,0
    3420:	00000713          	li	a4,0
    3424:	7ff00693          	li	a3,2047
    3428:	e85ff06f          	j	32ac <__divdf3+0x534>
    342c:	00000793          	li	a5,0
    3430:	00000713          	li	a4,0
    3434:	00100693          	li	a3,1
    3438:	e75ff06f          	j	32ac <__divdf3+0x534>
    343c:	00068813          	mv	a6,a3
    3440:	00080693          	mv	a3,a6
    3444:	e09ff06f          	j	324c <__divdf3+0x4d4>

00003448 <__ledf2>:
    3448:	0145d813          	srli	a6,a1,0x14
    344c:	001007b7          	lui	a5,0x100
    3450:	fff78793          	addi	a5,a5,-1 # fffff <__stack_top+0xf000f>
    3454:	0146d713          	srli	a4,a3,0x14
    3458:	00050313          	mv	t1,a0
    345c:	00050e93          	mv	t4,a0
    3460:	7ff87813          	andi	a6,a6,2047
    3464:	7ff00513          	li	a0,2047
    3468:	00b7f8b3          	and	a7,a5,a1
    346c:	00060f13          	mv	t5,a2
    3470:	00d7f7b3          	and	a5,a5,a3
    3474:	01f5d593          	srli	a1,a1,0x1f
    3478:	7ff77713          	andi	a4,a4,2047
    347c:	01f6d693          	srli	a3,a3,0x1f
    3480:	00a81a63          	bne	a6,a0,3494 <__ledf2+0x4c>
    3484:	0068ee33          	or	t3,a7,t1
    3488:	00200513          	li	a0,2
    348c:	080e0a63          	beqz	t3,3520 <__ledf2+0xd8>
    3490:	00008067          	ret
    3494:	00a71863          	bne	a4,a0,34a4 <__ledf2+0x5c>
    3498:	00c7ee33          	or	t3,a5,a2
    349c:	00200513          	li	a0,2
    34a0:	020e1663          	bnez	t3,34cc <__ledf2+0x84>
    34a4:	08081063          	bnez	a6,3524 <__ledf2+0xdc>
    34a8:	0068e533          	or	a0,a7,t1
    34ac:	00153513          	seqz	a0,a0
    34b0:	00071663          	bnez	a4,34bc <__ledf2+0x74>
    34b4:	00c7e633          	or	a2,a5,a2
    34b8:	04060a63          	beqz	a2,350c <__ledf2+0xc4>
    34bc:	00051a63          	bnez	a0,34d0 <__ledf2+0x88>
    34c0:	00d58e63          	beq	a1,a3,34dc <__ledf2+0x94>
    34c4:	00100513          	li	a0,1
    34c8:	00059663          	bnez	a1,34d4 <__ledf2+0x8c>
    34cc:	00008067          	ret
    34d0:	fe069ee3          	bnez	a3,34cc <__ledf2+0x84>
    34d4:	fff00513          	li	a0,-1
    34d8:	00008067          	ret
    34dc:	ff0744e3          	blt	a4,a6,34c4 <__ledf2+0x7c>
    34e0:	00e85a63          	ble	a4,a6,34f4 <__ledf2+0xac>
    34e4:	fff00513          	li	a0,-1
    34e8:	fe0582e3          	beqz	a1,34cc <__ledf2+0x84>
    34ec:	00100513          	li	a0,1
    34f0:	00008067          	ret
    34f4:	fd17e8e3          	bltu	a5,a7,34c4 <__ledf2+0x7c>
    34f8:	02f89063          	bne	a7,a5,3518 <__ledf2+0xd0>
    34fc:	fddf64e3          	bltu	t5,t4,34c4 <__ledf2+0x7c>
    3500:	00000513          	li	a0,0
    3504:	fdeef4e3          	bleu	t5,t4,34cc <__ledf2+0x84>
    3508:	fddff06f          	j	34e4 <__ledf2+0x9c>
    350c:	fa050ce3          	beqz	a0,34c4 <__ledf2+0x7c>
    3510:	00000513          	li	a0,0
    3514:	00008067          	ret
    3518:	fcf8e6e3          	bltu	a7,a5,34e4 <__ledf2+0x9c>
    351c:	ff5ff06f          	j	3510 <__ledf2+0xc8>
    3520:	f7070ce3          	beq	a4,a6,3498 <__ledf2+0x50>
    3524:	f8071ee3          	bnez	a4,34c0 <__ledf2+0x78>
    3528:	00000513          	li	a0,0
    352c:	f89ff06f          	j	34b4 <__ledf2+0x6c>

00003530 <__muldf3>:
    3530:	fd010113          	addi	sp,sp,-48
    3534:	03212023          	sw	s2,32(sp)
    3538:	0145d913          	srli	s2,a1,0x14
    353c:	01312e23          	sw	s3,28(sp)
    3540:	01412c23          	sw	s4,24(sp)
    3544:	01512a23          	sw	s5,20(sp)
    3548:	01612823          	sw	s6,16(sp)
    354c:	01712623          	sw	s7,12(sp)
    3550:	00c59a93          	slli	s5,a1,0xc
    3554:	02112623          	sw	ra,44(sp)
    3558:	02812423          	sw	s0,40(sp)
    355c:	02912223          	sw	s1,36(sp)
    3560:	7ff97913          	andi	s2,s2,2047
    3564:	00050b13          	mv	s6,a0
    3568:	00060b93          	mv	s7,a2
    356c:	00068a13          	mv	s4,a3
    3570:	00cada93          	srli	s5,s5,0xc
    3574:	01f5d993          	srli	s3,a1,0x1f
    3578:	0a090463          	beqz	s2,3620 <__muldf3+0xf0>
    357c:	7ff00793          	li	a5,2047
    3580:	10f90263          	beq	s2,a5,3684 <__muldf3+0x154>
    3584:	01d55413          	srli	s0,a0,0x1d
    3588:	003a9a93          	slli	s5,s5,0x3
    358c:	01546ab3          	or	s5,s0,s5
    3590:	00800437          	lui	s0,0x800
    3594:	008ae433          	or	s0,s5,s0
    3598:	00351493          	slli	s1,a0,0x3
    359c:	c0190913          	addi	s2,s2,-1023
    35a0:	00000b13          	li	s6,0
    35a4:	014a5513          	srli	a0,s4,0x14
    35a8:	00ca1a93          	slli	s5,s4,0xc
    35ac:	7ff57513          	andi	a0,a0,2047
    35b0:	000b8713          	mv	a4,s7
    35b4:	00cada93          	srli	s5,s5,0xc
    35b8:	01fa5a13          	srli	s4,s4,0x1f
    35bc:	10050263          	beqz	a0,36c0 <__muldf3+0x190>
    35c0:	7ff00793          	li	a5,2047
    35c4:	16f50263          	beq	a0,a5,3728 <__muldf3+0x1f8>
    35c8:	01dbd793          	srli	a5,s7,0x1d
    35cc:	003a9a93          	slli	s5,s5,0x3
    35d0:	0157eab3          	or	s5,a5,s5
    35d4:	008007b7          	lui	a5,0x800
    35d8:	00fae7b3          	or	a5,s5,a5
    35dc:	003b9713          	slli	a4,s7,0x3
    35e0:	c0150513          	addi	a0,a0,-1023
    35e4:	00000693          	li	a3,0
    35e8:	002b1593          	slli	a1,s6,0x2
    35ec:	00d5e5b3          	or	a1,a1,a3
    35f0:	00a90533          	add	a0,s2,a0
    35f4:	fff58593          	addi	a1,a1,-1
    35f8:	00e00893          	li	a7,14
    35fc:	0149c633          	xor	a2,s3,s4
    3600:	00150813          	addi	a6,a0,1
    3604:	14b8ee63          	bltu	a7,a1,3760 <__muldf3+0x230>
    3608:	00007537          	lui	a0,0x7
    360c:	00259593          	slli	a1,a1,0x2
    3610:	85850513          	addi	a0,a0,-1960 # 6858 <heap_top+0x163c>
    3614:	00a585b3          	add	a1,a1,a0
    3618:	0005a583          	lw	a1,0(a1)
    361c:	00058067          	jr	a1
    3620:	00aae433          	or	s0,s5,a0
    3624:	06040e63          	beqz	s0,36a0 <__muldf3+0x170>
    3628:	040a8063          	beqz	s5,3668 <__muldf3+0x138>
    362c:	000a8513          	mv	a0,s5
    3630:	438010ef          	jal	ra,4a68 <__clzsi2>
    3634:	ff550793          	addi	a5,a0,-11
    3638:	01c00713          	li	a4,28
    363c:	02f74c63          	blt	a4,a5,3674 <__muldf3+0x144>
    3640:	01d00413          	li	s0,29
    3644:	ff850493          	addi	s1,a0,-8
    3648:	40f40433          	sub	s0,s0,a5
    364c:	009a9ab3          	sll	s5,s5,s1
    3650:	008b5433          	srl	s0,s6,s0
    3654:	01546433          	or	s0,s0,s5
    3658:	009b14b3          	sll	s1,s6,s1
    365c:	c0d00913          	li	s2,-1011
    3660:	40a90933          	sub	s2,s2,a0
    3664:	f3dff06f          	j	35a0 <__muldf3+0x70>
    3668:	400010ef          	jal	ra,4a68 <__clzsi2>
    366c:	02050513          	addi	a0,a0,32
    3670:	fc5ff06f          	j	3634 <__muldf3+0x104>
    3674:	fd850413          	addi	s0,a0,-40
    3678:	008b1433          	sll	s0,s6,s0
    367c:	00000493          	li	s1,0
    3680:	fddff06f          	j	365c <__muldf3+0x12c>
    3684:	00aae433          	or	s0,s5,a0
    3688:	02040463          	beqz	s0,36b0 <__muldf3+0x180>
    368c:	00050493          	mv	s1,a0
    3690:	000a8413          	mv	s0,s5
    3694:	7ff00913          	li	s2,2047
    3698:	00300b13          	li	s6,3
    369c:	f09ff06f          	j	35a4 <__muldf3+0x74>
    36a0:	00000493          	li	s1,0
    36a4:	00000913          	li	s2,0
    36a8:	00100b13          	li	s6,1
    36ac:	ef9ff06f          	j	35a4 <__muldf3+0x74>
    36b0:	00000493          	li	s1,0
    36b4:	7ff00913          	li	s2,2047
    36b8:	00200b13          	li	s6,2
    36bc:	ee9ff06f          	j	35a4 <__muldf3+0x74>
    36c0:	017ae7b3          	or	a5,s5,s7
    36c4:	06078e63          	beqz	a5,3740 <__muldf3+0x210>
    36c8:	040a8063          	beqz	s5,3708 <__muldf3+0x1d8>
    36cc:	000a8513          	mv	a0,s5
    36d0:	398010ef          	jal	ra,4a68 <__clzsi2>
    36d4:	ff550693          	addi	a3,a0,-11
    36d8:	01c00793          	li	a5,28
    36dc:	02d7ce63          	blt	a5,a3,3718 <__muldf3+0x1e8>
    36e0:	01d00793          	li	a5,29
    36e4:	ff850713          	addi	a4,a0,-8
    36e8:	40d787b3          	sub	a5,a5,a3
    36ec:	00ea9ab3          	sll	s5,s5,a4
    36f0:	00fbd7b3          	srl	a5,s7,a5
    36f4:	0157e7b3          	or	a5,a5,s5
    36f8:	00eb9733          	sll	a4,s7,a4
    36fc:	c0d00613          	li	a2,-1011
    3700:	40a60533          	sub	a0,a2,a0
    3704:	ee1ff06f          	j	35e4 <__muldf3+0xb4>
    3708:	000b8513          	mv	a0,s7
    370c:	35c010ef          	jal	ra,4a68 <__clzsi2>
    3710:	02050513          	addi	a0,a0,32
    3714:	fc1ff06f          	j	36d4 <__muldf3+0x1a4>
    3718:	fd850793          	addi	a5,a0,-40
    371c:	00fb97b3          	sll	a5,s7,a5
    3720:	00000713          	li	a4,0
    3724:	fd9ff06f          	j	36fc <__muldf3+0x1cc>
    3728:	017ae7b3          	or	a5,s5,s7
    372c:	02078263          	beqz	a5,3750 <__muldf3+0x220>
    3730:	000a8793          	mv	a5,s5
    3734:	7ff00513          	li	a0,2047
    3738:	00300693          	li	a3,3
    373c:	eadff06f          	j	35e8 <__muldf3+0xb8>
    3740:	00000713          	li	a4,0
    3744:	00000513          	li	a0,0
    3748:	00100693          	li	a3,1
    374c:	e9dff06f          	j	35e8 <__muldf3+0xb8>
    3750:	00000713          	li	a4,0
    3754:	7ff00513          	li	a0,2047
    3758:	00200693          	li	a3,2
    375c:	e8dff06f          	j	35e8 <__muldf3+0xb8>
    3760:	00010fb7          	lui	t6,0x10
    3764:	ffff8f13          	addi	t5,t6,-1 # ffff <__stack_top+0xf>
    3768:	0104d693          	srli	a3,s1,0x10
    376c:	01075313          	srli	t1,a4,0x10
    3770:	01e4f4b3          	and	s1,s1,t5
    3774:	01e77733          	and	a4,a4,t5
    3778:	029308b3          	mul	a7,t1,s1
    377c:	029705b3          	mul	a1,a4,s1
    3780:	02e682b3          	mul	t0,a3,a4
    3784:	00588e33          	add	t3,a7,t0
    3788:	0105d893          	srli	a7,a1,0x10
    378c:	01c888b3          	add	a7,a7,t3
    3790:	02668eb3          	mul	t4,a3,t1
    3794:	0058f463          	bleu	t0,a7,379c <__muldf3+0x26c>
    3798:	01fe8eb3          	add	t4,t4,t6
    379c:	0108d913          	srli	s2,a7,0x10
    37a0:	01e8f8b3          	and	a7,a7,t5
    37a4:	0107df93          	srli	t6,a5,0x10
    37a8:	01e5f5b3          	and	a1,a1,t5
    37ac:	01e7f3b3          	and	t2,a5,t5
    37b0:	01089893          	slli	a7,a7,0x10
    37b4:	00b888b3          	add	a7,a7,a1
    37b8:	027687b3          	mul	a5,a3,t2
    37bc:	029385b3          	mul	a1,t2,s1
    37c0:	029f84b3          	mul	s1,t6,s1
    37c4:	00f48e33          	add	t3,s1,a5
    37c8:	0105d493          	srli	s1,a1,0x10
    37cc:	01c484b3          	add	s1,s1,t3
    37d0:	03f686b3          	mul	a3,a3,t6
    37d4:	00f4f663          	bleu	a5,s1,37e0 <__muldf3+0x2b0>
    37d8:	000107b7          	lui	a5,0x10
    37dc:	00f686b3          	add	a3,a3,a5
    37e0:	0104df13          	srli	t5,s1,0x10
    37e4:	000109b7          	lui	s3,0x10
    37e8:	00df0f33          	add	t5,t5,a3
    37ec:	fff98693          	addi	a3,s3,-1 # ffff <__stack_top+0xf>
    37f0:	00d4f4b3          	and	s1,s1,a3
    37f4:	00d5f5b3          	and	a1,a1,a3
    37f8:	01045793          	srli	a5,s0,0x10
    37fc:	01049493          	slli	s1,s1,0x10
    3800:	00d47433          	and	s0,s0,a3
    3804:	00b484b3          	add	s1,s1,a1
    3808:	028706b3          	mul	a3,a4,s0
    380c:	00990933          	add	s2,s2,s1
    3810:	02e78e33          	mul	t3,a5,a4
    3814:	028305b3          	mul	a1,t1,s0
    3818:	02f30733          	mul	a4,t1,a5
    381c:	01c58333          	add	t1,a1,t3
    3820:	0106d593          	srli	a1,a3,0x10
    3824:	006585b3          	add	a1,a1,t1
    3828:	01c5f463          	bleu	t3,a1,3830 <__muldf3+0x300>
    382c:	01370733          	add	a4,a4,s3
    3830:	0105d313          	srli	t1,a1,0x10
    3834:	000109b7          	lui	s3,0x10
    3838:	00e302b3          	add	t0,t1,a4
    383c:	fff98713          	addi	a4,s3,-1 # ffff <__stack_top+0xf>
    3840:	00e5f5b3          	and	a1,a1,a4
    3844:	00e6f6b3          	and	a3,a3,a4
    3848:	02838333          	mul	t1,t2,s0
    384c:	01059593          	slli	a1,a1,0x10
    3850:	00d585b3          	add	a1,a1,a3
    3854:	02778733          	mul	a4,a5,t2
    3858:	028f8433          	mul	s0,t6,s0
    385c:	02ff8e33          	mul	t3,t6,a5
    3860:	00e40433          	add	s0,s0,a4
    3864:	01035793          	srli	a5,t1,0x10
    3868:	00878433          	add	s0,a5,s0
    386c:	00e47463          	bleu	a4,s0,3874 <__muldf3+0x344>
    3870:	013e0e33          	add	t3,t3,s3
    3874:	000107b7          	lui	a5,0x10
    3878:	fff78793          	addi	a5,a5,-1 # ffff <__stack_top+0xf>
    387c:	00f476b3          	and	a3,s0,a5
    3880:	00f37333          	and	t1,t1,a5
    3884:	01069693          	slli	a3,a3,0x10
    3888:	012e8eb3          	add	t4,t4,s2
    388c:	006686b3          	add	a3,a3,t1
    3890:	009eb4b3          	sltu	s1,t4,s1
    3894:	01e686b3          	add	a3,a3,t5
    3898:	009687b3          	add	a5,a3,s1
    389c:	00be8eb3          	add	t4,t4,a1
    38a0:	00beb5b3          	sltu	a1,t4,a1
    38a4:	00578333          	add	t1,a5,t0
    38a8:	00b30fb3          	add	t6,t1,a1
    38ac:	01e6b6b3          	sltu	a3,a3,t5
    38b0:	0097b7b3          	sltu	a5,a5,s1
    38b4:	00f6e7b3          	or	a5,a3,a5
    38b8:	01045413          	srli	s0,s0,0x10
    38bc:	00533333          	sltu	t1,t1,t0
    38c0:	00bfb5b3          	sltu	a1,t6,a1
    38c4:	008787b3          	add	a5,a5,s0
    38c8:	00b365b3          	or	a1,t1,a1
    38cc:	00b787b3          	add	a5,a5,a1
    38d0:	01c787b3          	add	a5,a5,t3
    38d4:	017fd713          	srli	a4,t6,0x17
    38d8:	00979793          	slli	a5,a5,0x9
    38dc:	00e7e7b3          	or	a5,a5,a4
    38e0:	009e9713          	slli	a4,t4,0x9
    38e4:	01176733          	or	a4,a4,a7
    38e8:	00e03733          	snez	a4,a4
    38ec:	017ede93          	srli	t4,t4,0x17
    38f0:	009f9693          	slli	a3,t6,0x9
    38f4:	01d76733          	or	a4,a4,t4
    38f8:	00d76733          	or	a4,a4,a3
    38fc:	00779693          	slli	a3,a5,0x7
    3900:	1006d263          	bgez	a3,3a04 <__muldf3+0x4d4>
    3904:	00175693          	srli	a3,a4,0x1
    3908:	00177713          	andi	a4,a4,1
    390c:	00e6e733          	or	a4,a3,a4
    3910:	01f79693          	slli	a3,a5,0x1f
    3914:	00d76733          	or	a4,a4,a3
    3918:	0017d793          	srli	a5,a5,0x1
    391c:	3ff80593          	addi	a1,a6,1023
    3920:	0eb05663          	blez	a1,3a0c <__muldf3+0x4dc>
    3924:	00777693          	andi	a3,a4,7
    3928:	02068063          	beqz	a3,3948 <__muldf3+0x418>
    392c:	00f77693          	andi	a3,a4,15
    3930:	00400513          	li	a0,4
    3934:	00a68a63          	beq	a3,a0,3948 <__muldf3+0x418>
    3938:	00470693          	addi	a3,a4,4
    393c:	00e6b733          	sltu	a4,a3,a4
    3940:	00e787b3          	add	a5,a5,a4
    3944:	00068713          	mv	a4,a3
    3948:	00779693          	slli	a3,a5,0x7
    394c:	0006da63          	bgez	a3,3960 <__muldf3+0x430>
    3950:	ff0006b7          	lui	a3,0xff000
    3954:	fff68693          	addi	a3,a3,-1 # feffffff <__stack_top+0xfeff000f>
    3958:	00d7f7b3          	and	a5,a5,a3
    395c:	40080593          	addi	a1,a6,1024
    3960:	7fe00693          	li	a3,2046
    3964:	16b6c663          	blt	a3,a1,3ad0 <__muldf3+0x5a0>
    3968:	00375693          	srli	a3,a4,0x3
    396c:	01d79713          	slli	a4,a5,0x1d
    3970:	00d76733          	or	a4,a4,a3
    3974:	0037d793          	srli	a5,a5,0x3
    3978:	7ff5f693          	andi	a3,a1,2047
    397c:	00c79793          	slli	a5,a5,0xc
    3980:	01469693          	slli	a3,a3,0x14
    3984:	02c12083          	lw	ra,44(sp)
    3988:	02812403          	lw	s0,40(sp)
    398c:	00c7d793          	srli	a5,a5,0xc
    3990:	01f61613          	slli	a2,a2,0x1f
    3994:	00d7e7b3          	or	a5,a5,a3
    3998:	00c7e6b3          	or	a3,a5,a2
    399c:	02412483          	lw	s1,36(sp)
    39a0:	02012903          	lw	s2,32(sp)
    39a4:	01c12983          	lw	s3,28(sp)
    39a8:	01812a03          	lw	s4,24(sp)
    39ac:	01412a83          	lw	s5,20(sp)
    39b0:	01012b03          	lw	s6,16(sp)
    39b4:	00c12b83          	lw	s7,12(sp)
    39b8:	00070513          	mv	a0,a4
    39bc:	00068593          	mv	a1,a3
    39c0:	03010113          	addi	sp,sp,48
    39c4:	00008067          	ret
    39c8:	00098613          	mv	a2,s3
    39cc:	00040793          	mv	a5,s0
    39d0:	00048713          	mv	a4,s1
    39d4:	000b0693          	mv	a3,s6
    39d8:	00200593          	li	a1,2
    39dc:	0eb68a63          	beq	a3,a1,3ad0 <__muldf3+0x5a0>
    39e0:	00300593          	li	a1,3
    39e4:	0cb68c63          	beq	a3,a1,3abc <__muldf3+0x58c>
    39e8:	00100593          	li	a1,1
    39ec:	f2b698e3          	bne	a3,a1,391c <__muldf3+0x3ec>
    39f0:	00000793          	li	a5,0
    39f4:	00000713          	li	a4,0
    39f8:	0880006f          	j	3a80 <__muldf3+0x550>
    39fc:	000a0613          	mv	a2,s4
    3a00:	fd9ff06f          	j	39d8 <__muldf3+0x4a8>
    3a04:	00050813          	mv	a6,a0
    3a08:	f15ff06f          	j	391c <__muldf3+0x3ec>
    3a0c:	00100513          	li	a0,1
    3a10:	40b50533          	sub	a0,a0,a1
    3a14:	03800693          	li	a3,56
    3a18:	fca6cce3          	blt	a3,a0,39f0 <__muldf3+0x4c0>
    3a1c:	01f00693          	li	a3,31
    3a20:	06a6c463          	blt	a3,a0,3a88 <__muldf3+0x558>
    3a24:	41e80813          	addi	a6,a6,1054
    3a28:	010796b3          	sll	a3,a5,a6
    3a2c:	00a755b3          	srl	a1,a4,a0
    3a30:	01071733          	sll	a4,a4,a6
    3a34:	00b6e6b3          	or	a3,a3,a1
    3a38:	00e03733          	snez	a4,a4
    3a3c:	00e6e733          	or	a4,a3,a4
    3a40:	00a7d7b3          	srl	a5,a5,a0
    3a44:	00777693          	andi	a3,a4,7
    3a48:	02068063          	beqz	a3,3a68 <__muldf3+0x538>
    3a4c:	00f77693          	andi	a3,a4,15
    3a50:	00400593          	li	a1,4
    3a54:	00b68a63          	beq	a3,a1,3a68 <__muldf3+0x538>
    3a58:	00470693          	addi	a3,a4,4
    3a5c:	00e6b733          	sltu	a4,a3,a4
    3a60:	00e787b3          	add	a5,a5,a4
    3a64:	00068713          	mv	a4,a3
    3a68:	00879693          	slli	a3,a5,0x8
    3a6c:	0606ca63          	bltz	a3,3ae0 <__muldf3+0x5b0>
    3a70:	01d79693          	slli	a3,a5,0x1d
    3a74:	00375713          	srli	a4,a4,0x3
    3a78:	00e6e733          	or	a4,a3,a4
    3a7c:	0037d793          	srli	a5,a5,0x3
    3a80:	00000593          	li	a1,0
    3a84:	ef5ff06f          	j	3978 <__muldf3+0x448>
    3a88:	fe100693          	li	a3,-31
    3a8c:	40b686b3          	sub	a3,a3,a1
    3a90:	02000893          	li	a7,32
    3a94:	00d7d6b3          	srl	a3,a5,a3
    3a98:	00000593          	li	a1,0
    3a9c:	01150663          	beq	a0,a7,3aa8 <__muldf3+0x578>
    3aa0:	43e80813          	addi	a6,a6,1086
    3aa4:	010795b3          	sll	a1,a5,a6
    3aa8:	00e5e733          	or	a4,a1,a4
    3aac:	00e03733          	snez	a4,a4
    3ab0:	00e6e733          	or	a4,a3,a4
    3ab4:	00000793          	li	a5,0
    3ab8:	f8dff06f          	j	3a44 <__muldf3+0x514>
    3abc:	000807b7          	lui	a5,0x80
    3ac0:	00000713          	li	a4,0
    3ac4:	7ff00593          	li	a1,2047
    3ac8:	00000613          	li	a2,0
    3acc:	eadff06f          	j	3978 <__muldf3+0x448>
    3ad0:	00000793          	li	a5,0
    3ad4:	00000713          	li	a4,0
    3ad8:	7ff00593          	li	a1,2047
    3adc:	e9dff06f          	j	3978 <__muldf3+0x448>
    3ae0:	00000793          	li	a5,0
    3ae4:	00000713          	li	a4,0
    3ae8:	00100593          	li	a1,1
    3aec:	e8dff06f          	j	3978 <__muldf3+0x448>

00003af0 <__subdf3>:
    3af0:	00100837          	lui	a6,0x100
    3af4:	fff80813          	addi	a6,a6,-1 # fffff <__stack_top+0xf000f>
    3af8:	00b878b3          	and	a7,a6,a1
    3afc:	00389893          	slli	a7,a7,0x3
    3b00:	01d55793          	srli	a5,a0,0x1d
    3b04:	fe010113          	addi	sp,sp,-32
    3b08:	0145d713          	srli	a4,a1,0x14
    3b0c:	00d87833          	and	a6,a6,a3
    3b10:	0117e7b3          	or	a5,a5,a7
    3b14:	0146d893          	srli	a7,a3,0x14
    3b18:	00912a23          	sw	s1,20(sp)
    3b1c:	01212823          	sw	s2,16(sp)
    3b20:	7ff77493          	andi	s1,a4,2047
    3b24:	01f5d913          	srli	s2,a1,0x1f
    3b28:	01d65713          	srli	a4,a2,0x1d
    3b2c:	00381813          	slli	a6,a6,0x3
    3b30:	00112e23          	sw	ra,28(sp)
    3b34:	00812c23          	sw	s0,24(sp)
    3b38:	01312623          	sw	s3,12(sp)
    3b3c:	7ff8f893          	andi	a7,a7,2047
    3b40:	7ff00593          	li	a1,2047
    3b44:	00351513          	slli	a0,a0,0x3
    3b48:	01f6d693          	srli	a3,a3,0x1f
    3b4c:	01076733          	or	a4,a4,a6
    3b50:	00361613          	slli	a2,a2,0x3
    3b54:	00b89663          	bne	a7,a1,3b60 <__subdf3+0x70>
    3b58:	00c765b3          	or	a1,a4,a2
    3b5c:	00059463          	bnez	a1,3b64 <__subdf3+0x74>
    3b60:	0016c693          	xori	a3,a3,1
    3b64:	41148833          	sub	a6,s1,a7
    3b68:	2d269063          	bne	a3,s2,3e28 <__subdf3+0x338>
    3b6c:	13005c63          	blez	a6,3ca4 <__subdf3+0x1b4>
    3b70:	06089063          	bnez	a7,3bd0 <__subdf3+0xe0>
    3b74:	00c766b3          	or	a3,a4,a2
    3b78:	02068863          	beqz	a3,3ba8 <__subdf3+0xb8>
    3b7c:	fff48813          	addi	a6,s1,-1
    3b80:	02081063          	bnez	a6,3ba0 <__subdf3+0xb0>
    3b84:	00c50633          	add	a2,a0,a2
    3b88:	00a63533          	sltu	a0,a2,a0
    3b8c:	00e787b3          	add	a5,a5,a4
    3b90:	00a787b3          	add	a5,a5,a0
    3b94:	00060513          	mv	a0,a2
    3b98:	00100493          	li	s1,1
    3b9c:	08c0006f          	j	3c28 <__subdf3+0x138>
    3ba0:	7ff00693          	li	a3,2047
    3ba4:	02d49e63          	bne	s1,a3,3be0 <__subdf3+0xf0>
    3ba8:	00757713          	andi	a4,a0,7
    3bac:	62070c63          	beqz	a4,41e4 <__subdf3+0x6f4>
    3bb0:	00f57713          	andi	a4,a0,15
    3bb4:	00400693          	li	a3,4
    3bb8:	62d70663          	beq	a4,a3,41e4 <__subdf3+0x6f4>
    3bbc:	00450693          	addi	a3,a0,4
    3bc0:	00a6b533          	sltu	a0,a3,a0
    3bc4:	00a787b3          	add	a5,a5,a0
    3bc8:	00068513          	mv	a0,a3
    3bcc:	6180006f          	j	41e4 <__subdf3+0x6f4>
    3bd0:	7ff00693          	li	a3,2047
    3bd4:	fcd48ae3          	beq	s1,a3,3ba8 <__subdf3+0xb8>
    3bd8:	008006b7          	lui	a3,0x800
    3bdc:	00d76733          	or	a4,a4,a3
    3be0:	03800693          	li	a3,56
    3be4:	0b06ca63          	blt	a3,a6,3c98 <__subdf3+0x1a8>
    3be8:	01f00693          	li	a3,31
    3bec:	0706cc63          	blt	a3,a6,3c64 <__subdf3+0x174>
    3bf0:	02000593          	li	a1,32
    3bf4:	410585b3          	sub	a1,a1,a6
    3bf8:	00b716b3          	sll	a3,a4,a1
    3bfc:	010658b3          	srl	a7,a2,a6
    3c00:	00b61633          	sll	a2,a2,a1
    3c04:	0116e6b3          	or	a3,a3,a7
    3c08:	00c03633          	snez	a2,a2
    3c0c:	00c6e633          	or	a2,a3,a2
    3c10:	01075733          	srl	a4,a4,a6
    3c14:	00a60633          	add	a2,a2,a0
    3c18:	00f70733          	add	a4,a4,a5
    3c1c:	00a637b3          	sltu	a5,a2,a0
    3c20:	00f707b3          	add	a5,a4,a5
    3c24:	00060513          	mv	a0,a2
    3c28:	00879713          	slli	a4,a5,0x8
    3c2c:	f6075ee3          	bgez	a4,3ba8 <__subdf3+0xb8>
    3c30:	00148493          	addi	s1,s1,1
    3c34:	7ff00713          	li	a4,2047
    3c38:	5ae48263          	beq	s1,a4,41dc <__subdf3+0x6ec>
    3c3c:	ff8006b7          	lui	a3,0xff800
    3c40:	fff68693          	addi	a3,a3,-1 # ff7fffff <__stack_top+0xff7f000f>
    3c44:	00d7f6b3          	and	a3,a5,a3
    3c48:	00155593          	srli	a1,a0,0x1
    3c4c:	00157513          	andi	a0,a0,1
    3c50:	01f69793          	slli	a5,a3,0x1f
    3c54:	00a5e533          	or	a0,a1,a0
    3c58:	00a7e533          	or	a0,a5,a0
    3c5c:	0016d793          	srli	a5,a3,0x1
    3c60:	f49ff06f          	j	3ba8 <__subdf3+0xb8>
    3c64:	fe080693          	addi	a3,a6,-32
    3c68:	02000893          	li	a7,32
    3c6c:	00d756b3          	srl	a3,a4,a3
    3c70:	00000593          	li	a1,0
    3c74:	01180863          	beq	a6,a7,3c84 <__subdf3+0x194>
    3c78:	04000593          	li	a1,64
    3c7c:	41058833          	sub	a6,a1,a6
    3c80:	010715b3          	sll	a1,a4,a6
    3c84:	00c5e633          	or	a2,a1,a2
    3c88:	00c03633          	snez	a2,a2
    3c8c:	00c6e633          	or	a2,a3,a2
    3c90:	00000713          	li	a4,0
    3c94:	f81ff06f          	j	3c14 <__subdf3+0x124>
    3c98:	00c76633          	or	a2,a4,a2
    3c9c:	00c03633          	snez	a2,a2
    3ca0:	ff1ff06f          	j	3c90 <__subdf3+0x1a0>
    3ca4:	0e080263          	beqz	a6,3d88 <__subdf3+0x298>
    3ca8:	409885b3          	sub	a1,a7,s1
    3cac:	02049e63          	bnez	s1,3ce8 <__subdf3+0x1f8>
    3cb0:	00a7e6b3          	or	a3,a5,a0
    3cb4:	50068463          	beqz	a3,41bc <__subdf3+0x6cc>
    3cb8:	fff58693          	addi	a3,a1,-1
    3cbc:	00069c63          	bnez	a3,3cd4 <__subdf3+0x1e4>
    3cc0:	00c50533          	add	a0,a0,a2
    3cc4:	00e787b3          	add	a5,a5,a4
    3cc8:	00c53633          	sltu	a2,a0,a2
    3ccc:	00c787b3          	add	a5,a5,a2
    3cd0:	ec9ff06f          	j	3b98 <__subdf3+0xa8>
    3cd4:	7ff00813          	li	a6,2047
    3cd8:	03059263          	bne	a1,a6,3cfc <__subdf3+0x20c>
    3cdc:	00070793          	mv	a5,a4
    3ce0:	00060513          	mv	a0,a2
    3ce4:	3b00006f          	j	4094 <__subdf3+0x5a4>
    3ce8:	7ff00693          	li	a3,2047
    3cec:	fed888e3          	beq	a7,a3,3cdc <__subdf3+0x1ec>
    3cf0:	008006b7          	lui	a3,0x800
    3cf4:	00d7e7b3          	or	a5,a5,a3
    3cf8:	00058693          	mv	a3,a1
    3cfc:	03800593          	li	a1,56
    3d00:	06d5ce63          	blt	a1,a3,3d7c <__subdf3+0x28c>
    3d04:	01f00593          	li	a1,31
    3d08:	04d5c063          	blt	a1,a3,3d48 <__subdf3+0x258>
    3d0c:	02000813          	li	a6,32
    3d10:	40d80833          	sub	a6,a6,a3
    3d14:	00d55333          	srl	t1,a0,a3
    3d18:	010795b3          	sll	a1,a5,a6
    3d1c:	01051533          	sll	a0,a0,a6
    3d20:	0065e5b3          	or	a1,a1,t1
    3d24:	00a03533          	snez	a0,a0
    3d28:	00a5e533          	or	a0,a1,a0
    3d2c:	00d7d6b3          	srl	a3,a5,a3
    3d30:	00c50533          	add	a0,a0,a2
    3d34:	00e687b3          	add	a5,a3,a4
    3d38:	00c53633          	sltu	a2,a0,a2
    3d3c:	00c787b3          	add	a5,a5,a2
    3d40:	00088493          	mv	s1,a7
    3d44:	ee5ff06f          	j	3c28 <__subdf3+0x138>
    3d48:	fe068593          	addi	a1,a3,-32 # 7fffe0 <__stack_top+0x7efff0>
    3d4c:	02000313          	li	t1,32
    3d50:	00b7d5b3          	srl	a1,a5,a1
    3d54:	00000813          	li	a6,0
    3d58:	00668863          	beq	a3,t1,3d68 <__subdf3+0x278>
    3d5c:	04000813          	li	a6,64
    3d60:	40d806b3          	sub	a3,a6,a3
    3d64:	00d79833          	sll	a6,a5,a3
    3d68:	00a86533          	or	a0,a6,a0
    3d6c:	00a03533          	snez	a0,a0
    3d70:	00a5e533          	or	a0,a1,a0
    3d74:	00000693          	li	a3,0
    3d78:	fb9ff06f          	j	3d30 <__subdf3+0x240>
    3d7c:	00a7e533          	or	a0,a5,a0
    3d80:	00a03533          	snez	a0,a0
    3d84:	ff1ff06f          	j	3d74 <__subdf3+0x284>
    3d88:	00148693          	addi	a3,s1,1
    3d8c:	7fe6f593          	andi	a1,a3,2046
    3d90:	06059463          	bnez	a1,3df8 <__subdf3+0x308>
    3d94:	00a7e6b3          	or	a3,a5,a0
    3d98:	04049063          	bnez	s1,3dd8 <__subdf3+0x2e8>
    3d9c:	42068863          	beqz	a3,41cc <__subdf3+0x6dc>
    3da0:	00c766b3          	or	a3,a4,a2
    3da4:	e00682e3          	beqz	a3,3ba8 <__subdf3+0xb8>
    3da8:	00c50633          	add	a2,a0,a2
    3dac:	00e787b3          	add	a5,a5,a4
    3db0:	00a63533          	sltu	a0,a2,a0
    3db4:	00a787b3          	add	a5,a5,a0
    3db8:	00879713          	slli	a4,a5,0x8
    3dbc:	00060513          	mv	a0,a2
    3dc0:	de0754e3          	bgez	a4,3ba8 <__subdf3+0xb8>
    3dc4:	ff800737          	lui	a4,0xff800
    3dc8:	fff70713          	addi	a4,a4,-1 # ff7fffff <__stack_top+0xff7f000f>
    3dcc:	00e7f7b3          	and	a5,a5,a4
    3dd0:	00100493          	li	s1,1
    3dd4:	dd5ff06f          	j	3ba8 <__subdf3+0xb8>
    3dd8:	f00682e3          	beqz	a3,3cdc <__subdf3+0x1ec>
    3ddc:	00c76633          	or	a2,a4,a2
    3de0:	2a060a63          	beqz	a2,4094 <__subdf3+0x5a4>
    3de4:	00000913          	li	s2,0
    3de8:	004007b7          	lui	a5,0x400
    3dec:	00000513          	li	a0,0
    3df0:	7ff00493          	li	s1,2047
    3df4:	3f00006f          	j	41e4 <__subdf3+0x6f4>
    3df8:	7ff00593          	li	a1,2047
    3dfc:	3cb68e63          	beq	a3,a1,41d8 <__subdf3+0x6e8>
    3e00:	00c50633          	add	a2,a0,a2
    3e04:	00e78733          	add	a4,a5,a4
    3e08:	00a637b3          	sltu	a5,a2,a0
    3e0c:	00f70733          	add	a4,a4,a5
    3e10:	01f71513          	slli	a0,a4,0x1f
    3e14:	00165613          	srli	a2,a2,0x1
    3e18:	00c56533          	or	a0,a0,a2
    3e1c:	00175793          	srli	a5,a4,0x1
    3e20:	00068493          	mv	s1,a3
    3e24:	d85ff06f          	j	3ba8 <__subdf3+0xb8>
    3e28:	0f005a63          	blez	a6,3f1c <__subdf3+0x42c>
    3e2c:	08089e63          	bnez	a7,3ec8 <__subdf3+0x3d8>
    3e30:	00c766b3          	or	a3,a4,a2
    3e34:	d6068ae3          	beqz	a3,3ba8 <__subdf3+0xb8>
    3e38:	fff48813          	addi	a6,s1,-1
    3e3c:	02081063          	bnez	a6,3e5c <__subdf3+0x36c>
    3e40:	40c50633          	sub	a2,a0,a2
    3e44:	00c53533          	sltu	a0,a0,a2
    3e48:	40e787b3          	sub	a5,a5,a4
    3e4c:	40a787b3          	sub	a5,a5,a0
    3e50:	00060513          	mv	a0,a2
    3e54:	00100493          	li	s1,1
    3e58:	0540006f          	j	3eac <__subdf3+0x3bc>
    3e5c:	7ff00693          	li	a3,2047
    3e60:	d4d484e3          	beq	s1,a3,3ba8 <__subdf3+0xb8>
    3e64:	03800693          	li	a3,56
    3e68:	0b06c463          	blt	a3,a6,3f10 <__subdf3+0x420>
    3e6c:	01f00693          	li	a3,31
    3e70:	0706c663          	blt	a3,a6,3edc <__subdf3+0x3ec>
    3e74:	02000593          	li	a1,32
    3e78:	410585b3          	sub	a1,a1,a6
    3e7c:	00b716b3          	sll	a3,a4,a1
    3e80:	010658b3          	srl	a7,a2,a6
    3e84:	00b61633          	sll	a2,a2,a1
    3e88:	0116e6b3          	or	a3,a3,a7
    3e8c:	00c03633          	snez	a2,a2
    3e90:	00c6e633          	or	a2,a3,a2
    3e94:	01075733          	srl	a4,a4,a6
    3e98:	40c50633          	sub	a2,a0,a2
    3e9c:	40e78733          	sub	a4,a5,a4
    3ea0:	00c537b3          	sltu	a5,a0,a2
    3ea4:	40f707b3          	sub	a5,a4,a5
    3ea8:	00060513          	mv	a0,a2
    3eac:	00879713          	slli	a4,a5,0x8
    3eb0:	ce075ce3          	bgez	a4,3ba8 <__subdf3+0xb8>
    3eb4:	00800437          	lui	s0,0x800
    3eb8:	fff40413          	addi	s0,s0,-1 # 7fffff <__stack_top+0x7f000f>
    3ebc:	0087f433          	and	s0,a5,s0
    3ec0:	00050993          	mv	s3,a0
    3ec4:	20c0006f          	j	40d0 <__subdf3+0x5e0>
    3ec8:	7ff00693          	li	a3,2047
    3ecc:	ccd48ee3          	beq	s1,a3,3ba8 <__subdf3+0xb8>
    3ed0:	008006b7          	lui	a3,0x800
    3ed4:	00d76733          	or	a4,a4,a3
    3ed8:	f8dff06f          	j	3e64 <__subdf3+0x374>
    3edc:	fe080693          	addi	a3,a6,-32
    3ee0:	02000893          	li	a7,32
    3ee4:	00d756b3          	srl	a3,a4,a3
    3ee8:	00000593          	li	a1,0
    3eec:	01180863          	beq	a6,a7,3efc <__subdf3+0x40c>
    3ef0:	04000593          	li	a1,64
    3ef4:	41058833          	sub	a6,a1,a6
    3ef8:	010715b3          	sll	a1,a4,a6
    3efc:	00c5e633          	or	a2,a1,a2
    3f00:	00c03633          	snez	a2,a2
    3f04:	00c6e633          	or	a2,a3,a2
    3f08:	00000713          	li	a4,0
    3f0c:	f8dff06f          	j	3e98 <__subdf3+0x3a8>
    3f10:	00c76633          	or	a2,a4,a2
    3f14:	00c03633          	snez	a2,a2
    3f18:	ff1ff06f          	j	3f08 <__subdf3+0x418>
    3f1c:	0e080863          	beqz	a6,400c <__subdf3+0x51c>
    3f20:	40988833          	sub	a6,a7,s1
    3f24:	04049263          	bnez	s1,3f68 <__subdf3+0x478>
    3f28:	00a7e5b3          	or	a1,a5,a0
    3f2c:	34058263          	beqz	a1,4270 <__subdf3+0x780>
    3f30:	fff80593          	addi	a1,a6,-1
    3f34:	00059e63          	bnez	a1,3f50 <__subdf3+0x460>
    3f38:	40a60533          	sub	a0,a2,a0
    3f3c:	40f707b3          	sub	a5,a4,a5
    3f40:	00a63633          	sltu	a2,a2,a0
    3f44:	40c787b3          	sub	a5,a5,a2
    3f48:	00068913          	mv	s2,a3
    3f4c:	f09ff06f          	j	3e54 <__subdf3+0x364>
    3f50:	7ff00313          	li	t1,2047
    3f54:	02681463          	bne	a6,t1,3f7c <__subdf3+0x48c>
    3f58:	00070793          	mv	a5,a4
    3f5c:	00060513          	mv	a0,a2
    3f60:	7ff00493          	li	s1,2047
    3f64:	0d00006f          	j	4034 <__subdf3+0x544>
    3f68:	7ff00593          	li	a1,2047
    3f6c:	feb886e3          	beq	a7,a1,3f58 <__subdf3+0x468>
    3f70:	008005b7          	lui	a1,0x800
    3f74:	00b7e7b3          	or	a5,a5,a1
    3f78:	00080593          	mv	a1,a6
    3f7c:	03800813          	li	a6,56
    3f80:	08b84063          	blt	a6,a1,4000 <__subdf3+0x510>
    3f84:	01f00813          	li	a6,31
    3f88:	04b84263          	blt	a6,a1,3fcc <__subdf3+0x4dc>
    3f8c:	02000313          	li	t1,32
    3f90:	40b30333          	sub	t1,t1,a1
    3f94:	00b55e33          	srl	t3,a0,a1
    3f98:	00679833          	sll	a6,a5,t1
    3f9c:	00651533          	sll	a0,a0,t1
    3fa0:	01c86833          	or	a6,a6,t3
    3fa4:	00a03533          	snez	a0,a0
    3fa8:	00a86533          	or	a0,a6,a0
    3fac:	00b7d5b3          	srl	a1,a5,a1
    3fb0:	40a60533          	sub	a0,a2,a0
    3fb4:	40b707b3          	sub	a5,a4,a1
    3fb8:	00a63633          	sltu	a2,a2,a0
    3fbc:	40c787b3          	sub	a5,a5,a2
    3fc0:	00088493          	mv	s1,a7
    3fc4:	00068913          	mv	s2,a3
    3fc8:	ee5ff06f          	j	3eac <__subdf3+0x3bc>
    3fcc:	fe058813          	addi	a6,a1,-32 # 7fffe0 <__stack_top+0x7efff0>
    3fd0:	02000e13          	li	t3,32
    3fd4:	0107d833          	srl	a6,a5,a6
    3fd8:	00000313          	li	t1,0
    3fdc:	01c58863          	beq	a1,t3,3fec <__subdf3+0x4fc>
    3fe0:	04000313          	li	t1,64
    3fe4:	40b305b3          	sub	a1,t1,a1
    3fe8:	00b79333          	sll	t1,a5,a1
    3fec:	00a36533          	or	a0,t1,a0
    3ff0:	00a03533          	snez	a0,a0
    3ff4:	00a86533          	or	a0,a6,a0
    3ff8:	00000593          	li	a1,0
    3ffc:	fb5ff06f          	j	3fb0 <__subdf3+0x4c0>
    4000:	00a7e533          	or	a0,a5,a0
    4004:	00a03533          	snez	a0,a0
    4008:	ff1ff06f          	j	3ff8 <__subdf3+0x508>
    400c:	00148593          	addi	a1,s1,1
    4010:	7fe5f593          	andi	a1,a1,2046
    4014:	08059863          	bnez	a1,40a4 <__subdf3+0x5b4>
    4018:	00a7e833          	or	a6,a5,a0
    401c:	00c765b3          	or	a1,a4,a2
    4020:	06049063          	bnez	s1,4080 <__subdf3+0x590>
    4024:	00081c63          	bnez	a6,403c <__subdf3+0x54c>
    4028:	24058c63          	beqz	a1,4280 <__subdf3+0x790>
    402c:	00070793          	mv	a5,a4
    4030:	00060513          	mv	a0,a2
    4034:	00068913          	mv	s2,a3
    4038:	b71ff06f          	j	3ba8 <__subdf3+0xb8>
    403c:	b60586e3          	beqz	a1,3ba8 <__subdf3+0xb8>
    4040:	40c50833          	sub	a6,a0,a2
    4044:	010538b3          	sltu	a7,a0,a6
    4048:	40e785b3          	sub	a1,a5,a4
    404c:	411585b3          	sub	a1,a1,a7
    4050:	00859893          	slli	a7,a1,0x8
    4054:	0008dc63          	bgez	a7,406c <__subdf3+0x57c>
    4058:	40a60533          	sub	a0,a2,a0
    405c:	40f707b3          	sub	a5,a4,a5
    4060:	00a63633          	sltu	a2,a2,a0
    4064:	40c787b3          	sub	a5,a5,a2
    4068:	fcdff06f          	j	4034 <__subdf3+0x544>
    406c:	00b86533          	or	a0,a6,a1
    4070:	22050063          	beqz	a0,4290 <__subdf3+0x7a0>
    4074:	00058793          	mv	a5,a1
    4078:	00080513          	mv	a0,a6
    407c:	b2dff06f          	j	3ba8 <__subdf3+0xb8>
    4080:	00081e63          	bnez	a6,409c <__subdf3+0x5ac>
    4084:	20058a63          	beqz	a1,4298 <__subdf3+0x7a8>
    4088:	00070793          	mv	a5,a4
    408c:	00060513          	mv	a0,a2
    4090:	00068913          	mv	s2,a3
    4094:	7ff00493          	li	s1,2047
    4098:	b11ff06f          	j	3ba8 <__subdf3+0xb8>
    409c:	fe058ce3          	beqz	a1,4094 <__subdf3+0x5a4>
    40a0:	d45ff06f          	j	3de4 <__subdf3+0x2f4>
    40a4:	40c509b3          	sub	s3,a0,a2
    40a8:	013535b3          	sltu	a1,a0,s3
    40ac:	40e78433          	sub	s0,a5,a4
    40b0:	40b40433          	sub	s0,s0,a1
    40b4:	00841593          	slli	a1,s0,0x8
    40b8:	0805d463          	bgez	a1,4140 <__subdf3+0x650>
    40bc:	40a609b3          	sub	s3,a2,a0
    40c0:	40f707b3          	sub	a5,a4,a5
    40c4:	01363633          	sltu	a2,a2,s3
    40c8:	40c78433          	sub	s0,a5,a2
    40cc:	00068913          	mv	s2,a3
    40d0:	08040263          	beqz	s0,4154 <__subdf3+0x664>
    40d4:	00040513          	mv	a0,s0
    40d8:	191000ef          	jal	ra,4a68 <__clzsi2>
    40dc:	ff850713          	addi	a4,a0,-8
    40e0:	01f00793          	li	a5,31
    40e4:	08e7c063          	blt	a5,a4,4164 <__subdf3+0x674>
    40e8:	02000793          	li	a5,32
    40ec:	40e787b3          	sub	a5,a5,a4
    40f0:	00e41433          	sll	s0,s0,a4
    40f4:	00f9d7b3          	srl	a5,s3,a5
    40f8:	0087e433          	or	s0,a5,s0
    40fc:	00e99533          	sll	a0,s3,a4
    4100:	0a974463          	blt	a4,s1,41a8 <__subdf3+0x6b8>
    4104:	40970733          	sub	a4,a4,s1
    4108:	00170793          	addi	a5,a4,1
    410c:	01f00693          	li	a3,31
    4110:	06f6c263          	blt	a3,a5,4174 <__subdf3+0x684>
    4114:	02000713          	li	a4,32
    4118:	40f70733          	sub	a4,a4,a5
    411c:	00f55633          	srl	a2,a0,a5
    4120:	00e416b3          	sll	a3,s0,a4
    4124:	00e51533          	sll	a0,a0,a4
    4128:	00c6e6b3          	or	a3,a3,a2
    412c:	00a03533          	snez	a0,a0
    4130:	00a6e533          	or	a0,a3,a0
    4134:	00f457b3          	srl	a5,s0,a5
    4138:	00000493          	li	s1,0
    413c:	a6dff06f          	j	3ba8 <__subdf3+0xb8>
    4140:	0089e533          	or	a0,s3,s0
    4144:	f80516e3          	bnez	a0,40d0 <__subdf3+0x5e0>
    4148:	00000793          	li	a5,0
    414c:	00000493          	li	s1,0
    4150:	1380006f          	j	4288 <__subdf3+0x798>
    4154:	00098513          	mv	a0,s3
    4158:	111000ef          	jal	ra,4a68 <__clzsi2>
    415c:	02050513          	addi	a0,a0,32
    4160:	f7dff06f          	j	40dc <__subdf3+0x5ec>
    4164:	fd850413          	addi	s0,a0,-40
    4168:	00899433          	sll	s0,s3,s0
    416c:	00000513          	li	a0,0
    4170:	f91ff06f          	j	4100 <__subdf3+0x610>
    4174:	fe170713          	addi	a4,a4,-31
    4178:	02000613          	li	a2,32
    417c:	00e45733          	srl	a4,s0,a4
    4180:	00000693          	li	a3,0
    4184:	00c78863          	beq	a5,a2,4194 <__subdf3+0x6a4>
    4188:	04000693          	li	a3,64
    418c:	40f686b3          	sub	a3,a3,a5
    4190:	00d416b3          	sll	a3,s0,a3
    4194:	00d56533          	or	a0,a0,a3
    4198:	00a03533          	snez	a0,a0
    419c:	00a76533          	or	a0,a4,a0
    41a0:	00000793          	li	a5,0
    41a4:	f95ff06f          	j	4138 <__subdf3+0x648>
    41a8:	ff8007b7          	lui	a5,0xff800
    41ac:	fff78793          	addi	a5,a5,-1 # ff7fffff <__stack_top+0xff7f000f>
    41b0:	40e484b3          	sub	s1,s1,a4
    41b4:	00f477b3          	and	a5,s0,a5
    41b8:	9f1ff06f          	j	3ba8 <__subdf3+0xb8>
    41bc:	00070793          	mv	a5,a4
    41c0:	00060513          	mv	a0,a2
    41c4:	00058493          	mv	s1,a1
    41c8:	9e1ff06f          	j	3ba8 <__subdf3+0xb8>
    41cc:	00070793          	mv	a5,a4
    41d0:	00060513          	mv	a0,a2
    41d4:	9d5ff06f          	j	3ba8 <__subdf3+0xb8>
    41d8:	7ff00493          	li	s1,2047
    41dc:	00000793          	li	a5,0
    41e0:	00000513          	li	a0,0
    41e4:	00879713          	slli	a4,a5,0x8
    41e8:	00075e63          	bgez	a4,4204 <__subdf3+0x714>
    41ec:	00148493          	addi	s1,s1,1
    41f0:	7ff00713          	li	a4,2047
    41f4:	0ae48a63          	beq	s1,a4,42a8 <__subdf3+0x7b8>
    41f8:	ff800737          	lui	a4,0xff800
    41fc:	fff70713          	addi	a4,a4,-1 # ff7fffff <__stack_top+0xff7f000f>
    4200:	00e7f7b3          	and	a5,a5,a4
    4204:	01d79713          	slli	a4,a5,0x1d
    4208:	00355513          	srli	a0,a0,0x3
    420c:	00a76533          	or	a0,a4,a0
    4210:	7ff00713          	li	a4,2047
    4214:	0037d793          	srli	a5,a5,0x3
    4218:	00e49e63          	bne	s1,a4,4234 <__subdf3+0x744>
    421c:	00f56533          	or	a0,a0,a5
    4220:	00000793          	li	a5,0
    4224:	00050863          	beqz	a0,4234 <__subdf3+0x744>
    4228:	000807b7          	lui	a5,0x80
    422c:	00000513          	li	a0,0
    4230:	00000913          	li	s2,0
    4234:	7ff4f713          	andi	a4,s1,2047
    4238:	00c79793          	slli	a5,a5,0xc
    423c:	01471713          	slli	a4,a4,0x14
    4240:	01c12083          	lw	ra,28(sp)
    4244:	01812403          	lw	s0,24(sp)
    4248:	00c7d793          	srli	a5,a5,0xc
    424c:	01f91593          	slli	a1,s2,0x1f
    4250:	00e7e7b3          	or	a5,a5,a4
    4254:	00b7e733          	or	a4,a5,a1
    4258:	01412483          	lw	s1,20(sp)
    425c:	01012903          	lw	s2,16(sp)
    4260:	00c12983          	lw	s3,12(sp)
    4264:	00070593          	mv	a1,a4
    4268:	02010113          	addi	sp,sp,32
    426c:	00008067          	ret
    4270:	00070793          	mv	a5,a4
    4274:	00060513          	mv	a0,a2
    4278:	00080493          	mv	s1,a6
    427c:	db9ff06f          	j	4034 <__subdf3+0x544>
    4280:	00000793          	li	a5,0
    4284:	00000513          	li	a0,0
    4288:	00000913          	li	s2,0
    428c:	f59ff06f          	j	41e4 <__subdf3+0x6f4>
    4290:	00000793          	li	a5,0
    4294:	ff5ff06f          	j	4288 <__subdf3+0x798>
    4298:	00000513          	li	a0,0
    429c:	00000913          	li	s2,0
    42a0:	004007b7          	lui	a5,0x400
    42a4:	b4dff06f          	j	3df0 <__subdf3+0x300>
    42a8:	00000793          	li	a5,0
    42ac:	00000513          	li	a0,0
    42b0:	f55ff06f          	j	4204 <__subdf3+0x714>

000042b4 <__fixdfsi>:
    42b4:	0145d713          	srli	a4,a1,0x14
    42b8:	001006b7          	lui	a3,0x100
    42bc:	fff68793          	addi	a5,a3,-1 # fffff <__stack_top+0xf000f>
    42c0:	7ff77713          	andi	a4,a4,2047
    42c4:	3fe00613          	li	a2,1022
    42c8:	00b7f7b3          	and	a5,a5,a1
    42cc:	01f5d593          	srli	a1,a1,0x1f
    42d0:	04e65e63          	ble	a4,a2,432c <__fixdfsi+0x78>
    42d4:	41d00613          	li	a2,1053
    42d8:	00e65a63          	ble	a4,a2,42ec <__fixdfsi+0x38>
    42dc:	80000537          	lui	a0,0x80000
    42e0:	fff54513          	not	a0,a0
    42e4:	00a58533          	add	a0,a1,a0
    42e8:	00008067          	ret
    42ec:	00d7e7b3          	or	a5,a5,a3
    42f0:	43300693          	li	a3,1075
    42f4:	40e686b3          	sub	a3,a3,a4
    42f8:	01f00613          	li	a2,31
    42fc:	02d64063          	blt	a2,a3,431c <__fixdfsi+0x68>
    4300:	bed70713          	addi	a4,a4,-1043
    4304:	00e797b3          	sll	a5,a5,a4
    4308:	00d55533          	srl	a0,a0,a3
    430c:	00a7e533          	or	a0,a5,a0
    4310:	02058063          	beqz	a1,4330 <__fixdfsi+0x7c>
    4314:	40a00533          	neg	a0,a0
    4318:	00008067          	ret
    431c:	41300513          	li	a0,1043
    4320:	40e50533          	sub	a0,a0,a4
    4324:	00a7d533          	srl	a0,a5,a0
    4328:	fe9ff06f          	j	4310 <__fixdfsi+0x5c>
    432c:	00000513          	li	a0,0
    4330:	00008067          	ret

00004334 <__floatsidf>:
    4334:	ff010113          	addi	sp,sp,-16
    4338:	00112623          	sw	ra,12(sp)
    433c:	00812423          	sw	s0,8(sp)
    4340:	00912223          	sw	s1,4(sp)
    4344:	08050463          	beqz	a0,43cc <__floatsidf+0x98>
    4348:	41f55793          	srai	a5,a0,0x1f
    434c:	00a7c433          	xor	s0,a5,a0
    4350:	40f40433          	sub	s0,s0,a5
    4354:	01f55493          	srli	s1,a0,0x1f
    4358:	00040513          	mv	a0,s0
    435c:	70c000ef          	jal	ra,4a68 <__clzsi2>
    4360:	41e00713          	li	a4,1054
    4364:	00a00793          	li	a5,10
    4368:	40a70733          	sub	a4,a4,a0
    436c:	04a7c863          	blt	a5,a0,43bc <__floatsidf+0x88>
    4370:	00b00793          	li	a5,11
    4374:	40a787b3          	sub	a5,a5,a0
    4378:	01550513          	addi	a0,a0,21 # 80000015 <__stack_top+0x7fff0025>
    437c:	00f457b3          	srl	a5,s0,a5
    4380:	00a41433          	sll	s0,s0,a0
    4384:	00c79793          	slli	a5,a5,0xc
    4388:	7ff77713          	andi	a4,a4,2047
    438c:	01471713          	slli	a4,a4,0x14
    4390:	00040513          	mv	a0,s0
    4394:	00c12083          	lw	ra,12(sp)
    4398:	00812403          	lw	s0,8(sp)
    439c:	00c7d793          	srli	a5,a5,0xc
    43a0:	01f49493          	slli	s1,s1,0x1f
    43a4:	00e7e7b3          	or	a5,a5,a4
    43a8:	0097e733          	or	a4,a5,s1
    43ac:	00070593          	mv	a1,a4
    43b0:	00412483          	lw	s1,4(sp)
    43b4:	01010113          	addi	sp,sp,16
    43b8:	00008067          	ret
    43bc:	ff550513          	addi	a0,a0,-11
    43c0:	00a417b3          	sll	a5,s0,a0
    43c4:	00000413          	li	s0,0
    43c8:	fbdff06f          	j	4384 <__floatsidf+0x50>
    43cc:	00000793          	li	a5,0
    43d0:	00000413          	li	s0,0
    43d4:	00000713          	li	a4,0
    43d8:	00000493          	li	s1,0
    43dc:	fa9ff06f          	j	4384 <__floatsidf+0x50>

000043e0 <__divsf3>:
    43e0:	fe010113          	addi	sp,sp,-32
    43e4:	00912a23          	sw	s1,20(sp)
    43e8:	01755493          	srli	s1,a0,0x17
    43ec:	01212823          	sw	s2,16(sp)
    43f0:	01312623          	sw	s3,12(sp)
    43f4:	01412423          	sw	s4,8(sp)
    43f8:	00951993          	slli	s3,a0,0x9
    43fc:	00112e23          	sw	ra,28(sp)
    4400:	00812c23          	sw	s0,24(sp)
    4404:	01512223          	sw	s5,4(sp)
    4408:	0ff4f493          	andi	s1,s1,255
    440c:	00058a13          	mv	s4,a1
    4410:	0099d993          	srli	s3,s3,0x9
    4414:	01f55913          	srli	s2,a0,0x1f
    4418:	08048463          	beqz	s1,44a0 <__divsf3+0xc0>
    441c:	0ff00793          	li	a5,255
    4420:	0af48063          	beq	s1,a5,44c0 <__divsf3+0xe0>
    4424:	00399993          	slli	s3,s3,0x3
    4428:	040007b7          	lui	a5,0x4000
    442c:	00f9e9b3          	or	s3,s3,a5
    4430:	f8148493          	addi	s1,s1,-127
    4434:	00000a93          	li	s5,0
    4438:	017a5513          	srli	a0,s4,0x17
    443c:	009a1413          	slli	s0,s4,0x9
    4440:	0ff57513          	andi	a0,a0,255
    4444:	00945413          	srli	s0,s0,0x9
    4448:	01fa5a13          	srli	s4,s4,0x1f
    444c:	08050a63          	beqz	a0,44e0 <__divsf3+0x100>
    4450:	0ff00793          	li	a5,255
    4454:	0af50663          	beq	a0,a5,4500 <__divsf3+0x120>
    4458:	00341413          	slli	s0,s0,0x3
    445c:	040007b7          	lui	a5,0x4000
    4460:	00f46433          	or	s0,s0,a5
    4464:	f8150513          	addi	a0,a0,-127
    4468:	00000793          	li	a5,0
    446c:	002a9693          	slli	a3,s5,0x2
    4470:	00f6e6b3          	or	a3,a3,a5
    4474:	fff68693          	addi	a3,a3,-1
    4478:	00e00713          	li	a4,14
    447c:	01494633          	xor	a2,s2,s4
    4480:	40a48533          	sub	a0,s1,a0
    4484:	08d76e63          	bltu	a4,a3,4520 <__divsf3+0x140>
    4488:	00007737          	lui	a4,0x7
    448c:	89470713          	addi	a4,a4,-1900 # 6894 <heap_top+0x1678>
    4490:	00269693          	slli	a3,a3,0x2
    4494:	00e686b3          	add	a3,a3,a4
    4498:	0006a703          	lw	a4,0(a3)
    449c:	00070067          	jr	a4
    44a0:	02098a63          	beqz	s3,44d4 <__divsf3+0xf4>
    44a4:	00098513          	mv	a0,s3
    44a8:	5c0000ef          	jal	ra,4a68 <__clzsi2>
    44ac:	ffb50793          	addi	a5,a0,-5
    44b0:	f8a00493          	li	s1,-118
    44b4:	00f999b3          	sll	s3,s3,a5
    44b8:	40a484b3          	sub	s1,s1,a0
    44bc:	f79ff06f          	j	4434 <__divsf3+0x54>
    44c0:	0ff00493          	li	s1,255
    44c4:	00200a93          	li	s5,2
    44c8:	f60988e3          	beqz	s3,4438 <__divsf3+0x58>
    44cc:	00300a93          	li	s5,3
    44d0:	f69ff06f          	j	4438 <__divsf3+0x58>
    44d4:	00000493          	li	s1,0
    44d8:	00100a93          	li	s5,1
    44dc:	f5dff06f          	j	4438 <__divsf3+0x58>
    44e0:	02040a63          	beqz	s0,4514 <__divsf3+0x134>
    44e4:	00040513          	mv	a0,s0
    44e8:	580000ef          	jal	ra,4a68 <__clzsi2>
    44ec:	ffb50793          	addi	a5,a0,-5
    44f0:	00f41433          	sll	s0,s0,a5
    44f4:	f8a00793          	li	a5,-118
    44f8:	40a78533          	sub	a0,a5,a0
    44fc:	f6dff06f          	j	4468 <__divsf3+0x88>
    4500:	0ff00513          	li	a0,255
    4504:	00200793          	li	a5,2
    4508:	f60402e3          	beqz	s0,446c <__divsf3+0x8c>
    450c:	00300793          	li	a5,3
    4510:	f5dff06f          	j	446c <__divsf3+0x8c>
    4514:	00000513          	li	a0,0
    4518:	00100793          	li	a5,1
    451c:	f51ff06f          	j	446c <__divsf3+0x8c>
    4520:	00541813          	slli	a6,s0,0x5
    4524:	0e89f663          	bleu	s0,s3,4610 <__divsf3+0x230>
    4528:	fff50513          	addi	a0,a0,-1
    452c:	00000693          	li	a3,0
    4530:	01085413          	srli	s0,a6,0x10
    4534:	0289d333          	divu	t1,s3,s0
    4538:	000107b7          	lui	a5,0x10
    453c:	fff78793          	addi	a5,a5,-1 # ffff <__stack_top+0xf>
    4540:	00f877b3          	and	a5,a6,a5
    4544:	0106d693          	srli	a3,a3,0x10
    4548:	0289f733          	remu	a4,s3,s0
    454c:	00030593          	mv	a1,t1
    4550:	026788b3          	mul	a7,a5,t1
    4554:	01071713          	slli	a4,a4,0x10
    4558:	00e6e733          	or	a4,a3,a4
    455c:	01177e63          	bleu	a7,a4,4578 <__divsf3+0x198>
    4560:	01070733          	add	a4,a4,a6
    4564:	fff30593          	addi	a1,t1,-1
    4568:	01076863          	bltu	a4,a6,4578 <__divsf3+0x198>
    456c:	01177663          	bleu	a7,a4,4578 <__divsf3+0x198>
    4570:	ffe30593          	addi	a1,t1,-2
    4574:	01070733          	add	a4,a4,a6
    4578:	41170733          	sub	a4,a4,a7
    457c:	028758b3          	divu	a7,a4,s0
    4580:	02877733          	remu	a4,a4,s0
    4584:	031786b3          	mul	a3,a5,a7
    4588:	01071793          	slli	a5,a4,0x10
    458c:	00088713          	mv	a4,a7
    4590:	00d7fe63          	bleu	a3,a5,45ac <__divsf3+0x1cc>
    4594:	010787b3          	add	a5,a5,a6
    4598:	fff88713          	addi	a4,a7,-1 # 7ffff <__stack_top+0x7000f>
    459c:	0107e863          	bltu	a5,a6,45ac <__divsf3+0x1cc>
    45a0:	00d7f663          	bleu	a3,a5,45ac <__divsf3+0x1cc>
    45a4:	ffe88713          	addi	a4,a7,-2
    45a8:	010787b3          	add	a5,a5,a6
    45ac:	01059413          	slli	s0,a1,0x10
    45b0:	40d787b3          	sub	a5,a5,a3
    45b4:	00e46433          	or	s0,s0,a4
    45b8:	00f037b3          	snez	a5,a5
    45bc:	00f46433          	or	s0,s0,a5
    45c0:	07f50713          	addi	a4,a0,127
    45c4:	0ce05e63          	blez	a4,46a0 <__divsf3+0x2c0>
    45c8:	00747793          	andi	a5,s0,7
    45cc:	00078a63          	beqz	a5,45e0 <__divsf3+0x200>
    45d0:	00f47793          	andi	a5,s0,15
    45d4:	00400693          	li	a3,4
    45d8:	00d78463          	beq	a5,a3,45e0 <__divsf3+0x200>
    45dc:	00440413          	addi	s0,s0,4
    45e0:	00441793          	slli	a5,s0,0x4
    45e4:	0007da63          	bgez	a5,45f8 <__divsf3+0x218>
    45e8:	f80007b7          	lui	a5,0xf8000
    45ec:	fff78793          	addi	a5,a5,-1 # f7ffffff <__stack_top+0xf7ff000f>
    45f0:	00f47433          	and	s0,s0,a5
    45f4:	08050713          	addi	a4,a0,128
    45f8:	0fe00793          	li	a5,254
    45fc:	00345413          	srli	s0,s0,0x3
    4600:	04e7d463          	ble	a4,a5,4648 <__divsf3+0x268>
    4604:	00000413          	li	s0,0
    4608:	0ff00713          	li	a4,255
    460c:	03c0006f          	j	4648 <__divsf3+0x268>
    4610:	01f99693          	slli	a3,s3,0x1f
    4614:	0019d993          	srli	s3,s3,0x1
    4618:	f19ff06f          	j	4530 <__divsf3+0x150>
    461c:	00090613          	mv	a2,s2
    4620:	00098413          	mv	s0,s3
    4624:	000a8793          	mv	a5,s5
    4628:	00200713          	li	a4,2
    462c:	fce78ce3          	beq	a5,a4,4604 <__divsf3+0x224>
    4630:	00300713          	li	a4,3
    4634:	0ce78063          	beq	a5,a4,46f4 <__divsf3+0x314>
    4638:	00100713          	li	a4,1
    463c:	f8e792e3          	bne	a5,a4,45c0 <__divsf3+0x1e0>
    4640:	00000413          	li	s0,0
    4644:	00000713          	li	a4,0
    4648:	00941413          	slli	s0,s0,0x9
    464c:	0ff77713          	andi	a4,a4,255
    4650:	01771713          	slli	a4,a4,0x17
    4654:	00945413          	srli	s0,s0,0x9
    4658:	00e46433          	or	s0,s0,a4
    465c:	01f61513          	slli	a0,a2,0x1f
    4660:	00a46533          	or	a0,s0,a0
    4664:	01c12083          	lw	ra,28(sp)
    4668:	01812403          	lw	s0,24(sp)
    466c:	01412483          	lw	s1,20(sp)
    4670:	01012903          	lw	s2,16(sp)
    4674:	00c12983          	lw	s3,12(sp)
    4678:	00812a03          	lw	s4,8(sp)
    467c:	00412a83          	lw	s5,4(sp)
    4680:	02010113          	addi	sp,sp,32
    4684:	00008067          	ret
    4688:	000a0613          	mv	a2,s4
    468c:	f9dff06f          	j	4628 <__divsf3+0x248>
    4690:	00400437          	lui	s0,0x400
    4694:	00000613          	li	a2,0
    4698:	00300793          	li	a5,3
    469c:	f8dff06f          	j	4628 <__divsf3+0x248>
    46a0:	00100793          	li	a5,1
    46a4:	40e787b3          	sub	a5,a5,a4
    46a8:	01b00713          	li	a4,27
    46ac:	f8f74ae3          	blt	a4,a5,4640 <__divsf3+0x260>
    46b0:	09e50513          	addi	a0,a0,158
    46b4:	00f457b3          	srl	a5,s0,a5
    46b8:	00a41433          	sll	s0,s0,a0
    46bc:	00803433          	snez	s0,s0
    46c0:	0087e433          	or	s0,a5,s0
    46c4:	00747793          	andi	a5,s0,7
    46c8:	00078a63          	beqz	a5,46dc <__divsf3+0x2fc>
    46cc:	00f47793          	andi	a5,s0,15
    46d0:	00400713          	li	a4,4
    46d4:	00e78463          	beq	a5,a4,46dc <__divsf3+0x2fc>
    46d8:	00440413          	addi	s0,s0,4 # 400004 <__stack_top+0x3f0014>
    46dc:	00541793          	slli	a5,s0,0x5
    46e0:	00345413          	srli	s0,s0,0x3
    46e4:	f607d0e3          	bgez	a5,4644 <__divsf3+0x264>
    46e8:	00000413          	li	s0,0
    46ec:	00100713          	li	a4,1
    46f0:	f59ff06f          	j	4648 <__divsf3+0x268>
    46f4:	00400437          	lui	s0,0x400
    46f8:	0ff00713          	li	a4,255
    46fc:	00000613          	li	a2,0
    4700:	f49ff06f          	j	4648 <__divsf3+0x268>

00004704 <__floatsisf>:
    4704:	ff010113          	addi	sp,sp,-16
    4708:	00112623          	sw	ra,12(sp)
    470c:	00812423          	sw	s0,8(sp)
    4710:	00912223          	sw	s1,4(sp)
    4714:	0e050463          	beqz	a0,47fc <__floatsisf+0xf8>
    4718:	41f55793          	srai	a5,a0,0x1f
    471c:	00a7c433          	xor	s0,a5,a0
    4720:	40f40433          	sub	s0,s0,a5
    4724:	01f55493          	srli	s1,a0,0x1f
    4728:	00040513          	mv	a0,s0
    472c:	33c000ef          	jal	ra,4a68 <__clzsi2>
    4730:	09e00793          	li	a5,158
    4734:	40a787b3          	sub	a5,a5,a0
    4738:	09600713          	li	a4,150
    473c:	04f74263          	blt	a4,a5,4780 <__floatsisf+0x7c>
    4740:	00800713          	li	a4,8
    4744:	00a75663          	ble	a0,a4,4750 <__floatsisf+0x4c>
    4748:	ff850513          	addi	a0,a0,-8
    474c:	00a41433          	sll	s0,s0,a0
    4750:	00941413          	slli	s0,s0,0x9
    4754:	0ff7f793          	andi	a5,a5,255
    4758:	01779793          	slli	a5,a5,0x17
    475c:	00945413          	srli	s0,s0,0x9
    4760:	01f49513          	slli	a0,s1,0x1f
    4764:	00f46433          	or	s0,s0,a5
    4768:	00a46533          	or	a0,s0,a0
    476c:	00c12083          	lw	ra,12(sp)
    4770:	00812403          	lw	s0,8(sp)
    4774:	00412483          	lw	s1,4(sp)
    4778:	01010113          	addi	sp,sp,16
    477c:	00008067          	ret
    4780:	09900713          	li	a4,153
    4784:	02f75063          	ble	a5,a4,47a4 <__floatsisf+0xa0>
    4788:	00500713          	li	a4,5
    478c:	40a70733          	sub	a4,a4,a0
    4790:	01b50693          	addi	a3,a0,27
    4794:	00e45733          	srl	a4,s0,a4
    4798:	00d41433          	sll	s0,s0,a3
    479c:	00803433          	snez	s0,s0
    47a0:	00876433          	or	s0,a4,s0
    47a4:	00500713          	li	a4,5
    47a8:	00a75663          	ble	a0,a4,47b4 <__floatsisf+0xb0>
    47ac:	ffb50713          	addi	a4,a0,-5
    47b0:	00e41433          	sll	s0,s0,a4
    47b4:	fc000737          	lui	a4,0xfc000
    47b8:	fff70713          	addi	a4,a4,-1 # fbffffff <__stack_top+0xfbff000f>
    47bc:	00747693          	andi	a3,s0,7
    47c0:	00e47733          	and	a4,s0,a4
    47c4:	00068a63          	beqz	a3,47d8 <__floatsisf+0xd4>
    47c8:	00f47413          	andi	s0,s0,15
    47cc:	00400693          	li	a3,4
    47d0:	00d40463          	beq	s0,a3,47d8 <__floatsisf+0xd4>
    47d4:	00470713          	addi	a4,a4,4
    47d8:	00571693          	slli	a3,a4,0x5
    47dc:	0006dc63          	bgez	a3,47f4 <__floatsisf+0xf0>
    47e0:	fc0007b7          	lui	a5,0xfc000
    47e4:	fff78793          	addi	a5,a5,-1 # fbffffff <__stack_top+0xfbff000f>
    47e8:	00f77733          	and	a4,a4,a5
    47ec:	09f00793          	li	a5,159
    47f0:	40a787b3          	sub	a5,a5,a0
    47f4:	00375413          	srli	s0,a4,0x3
    47f8:	f59ff06f          	j	4750 <__floatsisf+0x4c>
    47fc:	00000413          	li	s0,0
    4800:	00000793          	li	a5,0
    4804:	00000493          	li	s1,0
    4808:	f49ff06f          	j	4750 <__floatsisf+0x4c>

0000480c <__extendsfdf2>:
    480c:	01755793          	srli	a5,a0,0x17
    4810:	ff010113          	addi	sp,sp,-16
    4814:	0ff7f793          	andi	a5,a5,255
    4818:	00812423          	sw	s0,8(sp)
    481c:	00912223          	sw	s1,4(sp)
    4820:	00951413          	slli	s0,a0,0x9
    4824:	01f55493          	srli	s1,a0,0x1f
    4828:	00178513          	addi	a0,a5,1
    482c:	00112623          	sw	ra,12(sp)
    4830:	0fe57513          	andi	a0,a0,254
    4834:	00945413          	srli	s0,s0,0x9
    4838:	04050463          	beqz	a0,4880 <__extendsfdf2+0x74>
    483c:	38078513          	addi	a0,a5,896
    4840:	00345793          	srli	a5,s0,0x3
    4844:	01d41413          	slli	s0,s0,0x1d
    4848:	00c79793          	slli	a5,a5,0xc
    484c:	7ff57513          	andi	a0,a0,2047
    4850:	01451513          	slli	a0,a0,0x14
    4854:	00c7d793          	srli	a5,a5,0xc
    4858:	00a7e7b3          	or	a5,a5,a0
    485c:	00c12083          	lw	ra,12(sp)
    4860:	00040513          	mv	a0,s0
    4864:	00812403          	lw	s0,8(sp)
    4868:	01f49493          	slli	s1,s1,0x1f
    486c:	0097e733          	or	a4,a5,s1
    4870:	00070593          	mv	a1,a4
    4874:	00412483          	lw	s1,4(sp)
    4878:	01010113          	addi	sp,sp,16
    487c:	00008067          	ret
    4880:	04079463          	bnez	a5,48c8 <__extendsfdf2+0xbc>
    4884:	fc0402e3          	beqz	s0,4848 <__extendsfdf2+0x3c>
    4888:	00040513          	mv	a0,s0
    488c:	1dc000ef          	jal	ra,4a68 <__clzsi2>
    4890:	00a00793          	li	a5,10
    4894:	02a7c263          	blt	a5,a0,48b8 <__extendsfdf2+0xac>
    4898:	00b00793          	li	a5,11
    489c:	40a787b3          	sub	a5,a5,a0
    48a0:	01550713          	addi	a4,a0,21
    48a4:	00f457b3          	srl	a5,s0,a5
    48a8:	00e41433          	sll	s0,s0,a4
    48ac:	38900713          	li	a4,905
    48b0:	40a70533          	sub	a0,a4,a0
    48b4:	f95ff06f          	j	4848 <__extendsfdf2+0x3c>
    48b8:	ff550793          	addi	a5,a0,-11
    48bc:	00f417b3          	sll	a5,s0,a5
    48c0:	00000413          	li	s0,0
    48c4:	fe9ff06f          	j	48ac <__extendsfdf2+0xa0>
    48c8:	00000793          	li	a5,0
    48cc:	00040a63          	beqz	s0,48e0 <__extendsfdf2+0xd4>
    48d0:	00345793          	srli	a5,s0,0x3
    48d4:	00080737          	lui	a4,0x80
    48d8:	01d41413          	slli	s0,s0,0x1d
    48dc:	00e7e7b3          	or	a5,a5,a4
    48e0:	7ff00513          	li	a0,2047
    48e4:	f65ff06f          	j	4848 <__extendsfdf2+0x3c>

000048e8 <__truncdfsf2>:
    48e8:	00c59613          	slli	a2,a1,0xc
    48ec:	00c65613          	srli	a2,a2,0xc
    48f0:	0145d813          	srli	a6,a1,0x14
    48f4:	00361793          	slli	a5,a2,0x3
    48f8:	7ff87813          	andi	a6,a6,2047
    48fc:	01d55613          	srli	a2,a0,0x1d
    4900:	00f66633          	or	a2,a2,a5
    4904:	00180793          	addi	a5,a6,1
    4908:	7fe7f793          	andi	a5,a5,2046
    490c:	01f5d593          	srli	a1,a1,0x1f
    4910:	00351713          	slli	a4,a0,0x3
    4914:	0a078663          	beqz	a5,49c0 <__truncdfsf2+0xd8>
    4918:	c8080693          	addi	a3,a6,-896
    491c:	0fe00793          	li	a5,254
    4920:	0cd7c263          	blt	a5,a3,49e4 <__truncdfsf2+0xfc>
    4924:	08d04063          	bgtz	a3,49a4 <__truncdfsf2+0xbc>
    4928:	fe900793          	li	a5,-23
    492c:	10f6cc63          	blt	a3,a5,4a44 <__truncdfsf2+0x15c>
    4930:	008007b7          	lui	a5,0x800
    4934:	01e00513          	li	a0,30
    4938:	00f66633          	or	a2,a2,a5
    493c:	40d50533          	sub	a0,a0,a3
    4940:	01f00793          	li	a5,31
    4944:	02a7c863          	blt	a5,a0,4974 <__truncdfsf2+0x8c>
    4948:	c8280813          	addi	a6,a6,-894
    494c:	010717b3          	sll	a5,a4,a6
    4950:	00f037b3          	snez	a5,a5
    4954:	01061633          	sll	a2,a2,a6
    4958:	00a75533          	srl	a0,a4,a0
    495c:	00c7e7b3          	or	a5,a5,a2
    4960:	00f567b3          	or	a5,a0,a5
    4964:	00000693          	li	a3,0
    4968:	0077f713          	andi	a4,a5,7
    496c:	08070063          	beqz	a4,49ec <__truncdfsf2+0x104>
    4970:	0dc0006f          	j	4a4c <__truncdfsf2+0x164>
    4974:	ffe00793          	li	a5,-2
    4978:	40d786b3          	sub	a3,a5,a3
    497c:	02000793          	li	a5,32
    4980:	00d656b3          	srl	a3,a2,a3
    4984:	00000893          	li	a7,0
    4988:	00f50663          	beq	a0,a5,4994 <__truncdfsf2+0xac>
    498c:	ca280813          	addi	a6,a6,-862
    4990:	010618b3          	sll	a7,a2,a6
    4994:	00e8e7b3          	or	a5,a7,a4
    4998:	00f037b3          	snez	a5,a5
    499c:	00f6e7b3          	or	a5,a3,a5
    49a0:	fc5ff06f          	j	4964 <__truncdfsf2+0x7c>
    49a4:	00651513          	slli	a0,a0,0x6
    49a8:	00a03533          	snez	a0,a0
    49ac:	00361613          	slli	a2,a2,0x3
    49b0:	01d75793          	srli	a5,a4,0x1d
    49b4:	00c56633          	or	a2,a0,a2
    49b8:	00f667b3          	or	a5,a2,a5
    49bc:	fadff06f          	j	4968 <__truncdfsf2+0x80>
    49c0:	00e667b3          	or	a5,a2,a4
    49c4:	00081663          	bnez	a6,49d0 <__truncdfsf2+0xe8>
    49c8:	00f037b3          	snez	a5,a5
    49cc:	f99ff06f          	j	4964 <__truncdfsf2+0x7c>
    49d0:	0ff00693          	li	a3,255
    49d4:	00078c63          	beqz	a5,49ec <__truncdfsf2+0x104>
    49d8:	00361613          	slli	a2,a2,0x3
    49dc:	020007b7          	lui	a5,0x2000
    49e0:	fd9ff06f          	j	49b8 <__truncdfsf2+0xd0>
    49e4:	00000793          	li	a5,0
    49e8:	0ff00693          	li	a3,255
    49ec:	00579713          	slli	a4,a5,0x5
    49f0:	00075e63          	bgez	a4,4a0c <__truncdfsf2+0x124>
    49f4:	00168693          	addi	a3,a3,1
    49f8:	0ff00713          	li	a4,255
    49fc:	06e68263          	beq	a3,a4,4a60 <__truncdfsf2+0x178>
    4a00:	fc000737          	lui	a4,0xfc000
    4a04:	fff70713          	addi	a4,a4,-1 # fbffffff <__stack_top+0xfbff000f>
    4a08:	00e7f7b3          	and	a5,a5,a4
    4a0c:	0ff00713          	li	a4,255
    4a10:	0037d793          	srli	a5,a5,0x3
    4a14:	00e69863          	bne	a3,a4,4a24 <__truncdfsf2+0x13c>
    4a18:	00078663          	beqz	a5,4a24 <__truncdfsf2+0x13c>
    4a1c:	004007b7          	lui	a5,0x400
    4a20:	00000593          	li	a1,0
    4a24:	00979793          	slli	a5,a5,0x9
    4a28:	0ff6f693          	andi	a3,a3,255
    4a2c:	01769693          	slli	a3,a3,0x17
    4a30:	0097d793          	srli	a5,a5,0x9
    4a34:	01f59593          	slli	a1,a1,0x1f
    4a38:	00d7e7b3          	or	a5,a5,a3
    4a3c:	00b7e533          	or	a0,a5,a1
    4a40:	00008067          	ret
    4a44:	00100793          	li	a5,1
    4a48:	00000693          	li	a3,0
    4a4c:	00f7f713          	andi	a4,a5,15
    4a50:	00400613          	li	a2,4
    4a54:	f8c70ce3          	beq	a4,a2,49ec <__truncdfsf2+0x104>
    4a58:	00478793          	addi	a5,a5,4 # 400004 <__stack_top+0x3f0014>
    4a5c:	f91ff06f          	j	49ec <__truncdfsf2+0x104>
    4a60:	00000793          	li	a5,0
    4a64:	fa9ff06f          	j	4a0c <__truncdfsf2+0x124>

00004a68 <__clzsi2>:
    4a68:	000107b7          	lui	a5,0x10
    4a6c:	02f57a63          	bleu	a5,a0,4aa0 <__clzsi2+0x38>
    4a70:	0ff00793          	li	a5,255
    4a74:	00a7b7b3          	sltu	a5,a5,a0
    4a78:	00379793          	slli	a5,a5,0x3
    4a7c:	02000713          	li	a4,32
    4a80:	40f70733          	sub	a4,a4,a5
    4a84:	00f557b3          	srl	a5,a0,a5
    4a88:	00007537          	lui	a0,0x7
    4a8c:	8d050513          	addi	a0,a0,-1840 # 68d0 <__clz_tab>
    4a90:	00a787b3          	add	a5,a5,a0
    4a94:	0007c503          	lbu	a0,0(a5) # 10000 <__stack_top+0x10>
    4a98:	40a70533          	sub	a0,a4,a0
    4a9c:	00008067          	ret
    4aa0:	01000737          	lui	a4,0x1000
    4aa4:	01000793          	li	a5,16
    4aa8:	fce56ae3          	bltu	a0,a4,4a7c <__clzsi2+0x14>
    4aac:	01800793          	li	a5,24
    4ab0:	fcdff06f          	j	4a7c <__clzsi2+0x14>

Disassembly of section .text.startup:

00004ab4 <main>:
    4ab4:	f6010113          	addi	sp,sp,-160
    4ab8:	03000513          	li	a0,48
    4abc:	08112e23          	sw	ra,156(sp)
    4ac0:	08812c23          	sw	s0,152(sp)
    4ac4:	07812c23          	sw	s8,120(sp)
    4ac8:	00009437          	lui	s0,0x9
    4acc:	07a12823          	sw	s10,112(sp)
    4ad0:	08912a23          	sw	s1,148(sp)
    4ad4:	09212823          	sw	s2,144(sp)
    4ad8:	09312623          	sw	s3,140(sp)
    4adc:	09412423          	sw	s4,136(sp)
    4ae0:	09512223          	sw	s5,132(sp)
    4ae4:	09612023          	sw	s6,128(sp)
    4ae8:	07712e23          	sw	s7,124(sp)
    4aec:	07912a23          	sw	s9,116(sp)
    4af0:	07b12623          	sw	s11,108(sp)
    4af4:	87cfd0ef          	jal	ra,1b70 <malloc>
    4af8:	12a42223          	sw	a0,292(s0) # 9124 <Next_Ptr_Glob>
    4afc:	03000513          	li	a0,48
    4b00:	870fd0ef          	jal	ra,1b70 <malloc>
    4b04:	12442783          	lw	a5,292(s0)
    4b08:	00009c37          	lui	s8,0x9
    4b0c:	12ac2823          	sw	a0,304(s8) # 9130 <Ptr_Glob>
    4b10:	00f52023          	sw	a5,0(a0)
    4b14:	00200793          	li	a5,2
    4b18:	00f52423          	sw	a5,8(a0)
    4b1c:	000065b7          	lui	a1,0x6
    4b20:	02800793          	li	a5,40
    4b24:	00f52623          	sw	a5,12(a0)
    4b28:	00058593          	mv	a1,a1
    4b2c:	00052223          	sw	zero,4(a0)
    4b30:	01050513          	addi	a0,a0,16
    4b34:	b64fd0ef          	jal	ra,1e98 <strcpy>
    4b38:	000065b7          	lui	a1,0x6
    4b3c:	02058593          	addi	a1,a1,32 # 6020 <heap_top+0xe04>
    4b40:	02010513          	addi	a0,sp,32
    4b44:	b54fd0ef          	jal	ra,1e98 <strcpy>
    4b48:	00006437          	lui	s0,0x6
    4b4c:	00007d37          	lui	s10,0x7
    4b50:	00a00793          	li	a5,10
    4b54:	a10d0713          	addi	a4,s10,-1520 # 6a10 <Arr_2_Glob>
    4b58:	6f840513          	addi	a0,s0,1784 # 66f8 <heap_top+0x14dc>
    4b5c:	64f72e23          	sw	a5,1628(a4) # 100065c <__stack_top+0xff066c>
    4b60:	d01fc0ef          	jal	ra,1860 <printf>
    4b64:	00006537          	lui	a0,0x6
    4b68:	04050513          	addi	a0,a0,64 # 6040 <heap_top+0xe24>
    4b6c:	cf5fc0ef          	jal	ra,1860 <printf>
    4b70:	6f840513          	addi	a0,s0,1784
    4b74:	cedfc0ef          	jal	ra,1860 <printf>
    4b78:	000097b7          	lui	a5,0x9
    4b7c:	2047a783          	lw	a5,516(a5) # 9204 <Reg>
    4b80:	64078a63          	beqz	a5,51d4 <__heap_size+0x1d4>
    4b84:	00006537          	lui	a0,0x6
    4b88:	07050513          	addi	a0,a0,112 # 6070 <heap_top+0xe54>
    4b8c:	cd5fc0ef          	jal	ra,1860 <printf>
    4b90:	6f840513          	addi	a0,s0,1784
    4b94:	ccdfc0ef          	jal	ra,1860 <printf>
    4b98:	000f4937          	lui	s2,0xf4
    4b9c:	00006537          	lui	a0,0x6
    4ba0:	24090593          	addi	a1,s2,576 # f4240 <__stack_top+0xe4250>
    4ba4:	0cc50513          	addi	a0,a0,204 # 60cc <heap_top+0xeb0>
    4ba8:	cb9fc0ef          	jal	ra,1860 <printf>
    4bac:	d0cfd0ef          	jal	ra,20b8 <clock>
    4bb0:	000077b7          	lui	a5,0x7
    4bb4:	a0a7a623          	sw	a0,-1524(a5) # 6a0c <Begin_Time>
    4bb8:	24190793          	addi	a5,s2,577
    4bbc:	00100493          	li	s1,1
    4bc0:	000099b7          	lui	s3,0x9
    4bc4:	00009a37          	lui	s4,0x9
    4bc8:	00009437          	lui	s0,0x9
    4bcc:	00009cb7          	lui	s9,0x9
    4bd0:	00009b37          	lui	s6,0x9
    4bd4:	00100a93          	li	s5,1
    4bd8:	00006bb7          	lui	s7,0x6
    4bdc:	00f12223          	sw	a5,4(sp)
    4be0:	000067b7          	lui	a5,0x6
    4be4:	0fc78593          	addi	a1,a5,252 # 60fc <heap_top+0xee0>
    4be8:	04100793          	li	a5,65
    4bec:	12f98623          	sb	a5,300(s3) # 912c <Ch_1_Glob>
    4bf0:	04010513          	addi	a0,sp,64
    4bf4:	04200793          	li	a5,66
    4bf8:	12f406a3          	sb	a5,301(s0) # 912d <Ch_2_Glob>
    4bfc:	215a2023          	sw	s5,512(s4) # 9200 <Bool_Glob>
    4c00:	a98fd0ef          	jal	ra,1e98 <strcpy>
    4c04:	04010593          	addi	a1,sp,64
    4c08:	02010513          	addi	a0,sp,32
    4c0c:	01512e23          	sw	s5,28(sp)
    4c10:	f14fc0ef          	jal	ra,1324 <Func_2>
    4c14:	00153793          	seqz	a5,a0
    4c18:	01810613          	addi	a2,sp,24
    4c1c:	00300593          	li	a1,3
    4c20:	20fa2023          	sw	a5,512(s4)
    4c24:	00200513          	li	a0,2
    4c28:	00700793          	li	a5,7
    4c2c:	00f12c23          	sw	a5,24(sp)
    4c30:	e58fc0ef          	jal	ra,1288 <Proc_7>
    4c34:	01812683          	lw	a3,24(sp)
    4c38:	00300613          	li	a2,3
    4c3c:	a10d0593          	addi	a1,s10,-1520
    4c40:	138c8513          	addi	a0,s9,312 # 9138 <Arr_1_Glob>
    4c44:	e54fc0ef          	jal	ra,1298 <Proc_8>
    4c48:	130c2503          	lw	a0,304(s8)
    4c4c:	c40fc0ef          	jal	ra,108c <Proc_1>
    4c50:	12d44703          	lbu	a4,301(s0)
    4c54:	04000793          	li	a5,64
    4c58:	54e7f863          	bleu	a4,a5,51a8 <__heap_size+0x1a8>
    4c5c:	04100d93          	li	s11,65
    4c60:	00300913          	li	s2,3
    4c64:	0140006f          	j	4c78 <main+0x1c4>
    4c68:	12d44703          	lbu	a4,301(s0)
    4c6c:	001d8793          	addi	a5,s11,1
    4c70:	0ff7fd93          	andi	s11,a5,255
    4c74:	05b76463          	bltu	a4,s11,4cbc <main+0x208>
    4c78:	04300593          	li	a1,67
    4c7c:	000d8513          	mv	a0,s11
    4c80:	e80fc0ef          	jal	ra,1300 <Func_1>
    4c84:	01c12703          	lw	a4,28(sp)
    4c88:	fee510e3          	bne	a0,a4,4c68 <main+0x1b4>
    4c8c:	01c10593          	addi	a1,sp,28
    4c90:	00000513          	li	a0,0
    4c94:	da0fc0ef          	jal	ra,1234 <Proc_6>
    4c98:	11cb8593          	addi	a1,s7,284 # 611c <heap_top+0xf00>
    4c9c:	04010513          	addi	a0,sp,64
    4ca0:	9f8fd0ef          	jal	ra,1e98 <strcpy>
    4ca4:	12d44703          	lbu	a4,301(s0)
    4ca8:	001d8793          	addi	a5,s11,1
    4cac:	129b2423          	sw	s1,296(s6) # 9128 <Int_Glob>
    4cb0:	0ff7fd93          	andi	s11,a5,255
    4cb4:	00048913          	mv	s2,s1
    4cb8:	fdb770e3          	bleu	s11,a4,4c78 <main+0x1c4>
    4cbc:	00191793          	slli	a5,s2,0x1
    4cc0:	01278933          	add	s2,a5,s2
    4cc4:	01812603          	lw	a2,24(sp)
    4cc8:	12c9c703          	lbu	a4,300(s3)
    4ccc:	04100593          	li	a1,65
    4cd0:	02c946b3          	div	a3,s2,a2
    4cd4:	00068793          	mv	a5,a3
    4cd8:	00b71863          	bne	a4,a1,4ce8 <main+0x234>
    4cdc:	128b2783          	lw	a5,296(s6)
    4ce0:	00968713          	addi	a4,a3,9
    4ce4:	40f707b3          	sub	a5,a4,a5
    4ce8:	00412703          	lw	a4,4(sp)
    4cec:	00148493          	addi	s1,s1,1
    4cf0:	eee498e3          	bne	s1,a4,4be0 <main+0x12c>
    4cf4:	00d12423          	sw	a3,8(sp)
    4cf8:	00c12223          	sw	a2,4(sp)
    4cfc:	00f12623          	sw	a5,12(sp)
    4d00:	00009d37          	lui	s10,0x9
    4d04:	bb4fd0ef          	jal	ra,20b8 <clock>
    4d08:	12ad2023          	sw	a0,288(s10) # 9120 <End_Time>
    4d0c:	00006537          	lui	a0,0x6
    4d10:	13c50513          	addi	a0,a0,316 # 613c <heap_top+0xf20>
    4d14:	b4dfc0ef          	jal	ra,1860 <printf>
    4d18:	00006db7          	lui	s11,0x6
    4d1c:	6f8d8513          	addi	a0,s11,1784 # 66f8 <heap_top+0x14dc>
    4d20:	b41fc0ef          	jal	ra,1860 <printf>
    4d24:	00006537          	lui	a0,0x6
    4d28:	14c50513          	addi	a0,a0,332 # 614c <heap_top+0xf30>
    4d2c:	b35fc0ef          	jal	ra,1860 <printf>
    4d30:	6f8d8513          	addi	a0,s11,1784
    4d34:	b2dfc0ef          	jal	ra,1860 <printf>
    4d38:	128b2583          	lw	a1,296(s6)
    4d3c:	00006537          	lui	a0,0x6
    4d40:	18450513          	addi	a0,a0,388 # 6184 <heap_top+0xf68>
    4d44:	000064b7          	lui	s1,0x6
    4d48:	b19fc0ef          	jal	ra,1860 <printf>
    4d4c:	00500593          	li	a1,5
    4d50:	1a048513          	addi	a0,s1,416 # 61a0 <heap_top+0xf84>
    4d54:	b0dfc0ef          	jal	ra,1860 <printf>
    4d58:	200a2583          	lw	a1,512(s4)
    4d5c:	00006537          	lui	a0,0x6
    4d60:	1bc50513          	addi	a0,a0,444 # 61bc <heap_top+0xfa0>
    4d64:	afdfc0ef          	jal	ra,1860 <printf>
    4d68:	00100593          	li	a1,1
    4d6c:	1a048513          	addi	a0,s1,416
    4d70:	af1fc0ef          	jal	ra,1860 <printf>
    4d74:	12c9c583          	lbu	a1,300(s3)
    4d78:	00006537          	lui	a0,0x6
    4d7c:	1d850513          	addi	a0,a0,472 # 61d8 <heap_top+0xfbc>
    4d80:	ae1fc0ef          	jal	ra,1860 <printf>
    4d84:	000069b7          	lui	s3,0x6
    4d88:	04100593          	li	a1,65
    4d8c:	1f498513          	addi	a0,s3,500 # 61f4 <heap_top+0xfd8>
    4d90:	ad1fc0ef          	jal	ra,1860 <printf>
    4d94:	12d44583          	lbu	a1,301(s0)
    4d98:	00006537          	lui	a0,0x6
    4d9c:	21050513          	addi	a0,a0,528 # 6210 <heap_top+0xff4>
    4da0:	ac1fc0ef          	jal	ra,1860 <printf>
    4da4:	04200593          	li	a1,66
    4da8:	1f498513          	addi	a0,s3,500
    4dac:	ab5fc0ef          	jal	ra,1860 <printf>
    4db0:	138c8c93          	addi	s9,s9,312
    4db4:	020ca583          	lw	a1,32(s9)
    4db8:	00006537          	lui	a0,0x6
    4dbc:	22c50513          	addi	a0,a0,556 # 622c <heap_top+0x1010>
    4dc0:	aa1fc0ef          	jal	ra,1860 <printf>
    4dc4:	00700593          	li	a1,7
    4dc8:	1a048513          	addi	a0,s1,416
    4dcc:	a95fc0ef          	jal	ra,1860 <printf>
    4dd0:	000077b7          	lui	a5,0x7
    4dd4:	a1078793          	addi	a5,a5,-1520 # 6a10 <Arr_2_Glob>
    4dd8:	65c7a583          	lw	a1,1628(a5)
    4ddc:	00006537          	lui	a0,0x6
    4de0:	24850513          	addi	a0,a0,584 # 6248 <heap_top+0x102c>
    4de4:	a7dfc0ef          	jal	ra,1860 <printf>
    4de8:	00006537          	lui	a0,0x6
    4dec:	26450513          	addi	a0,a0,612 # 6264 <heap_top+0x1048>
    4df0:	a71fc0ef          	jal	ra,1860 <printf>
    4df4:	00006537          	lui	a0,0x6
    4df8:	29050513          	addi	a0,a0,656 # 6290 <heap_top+0x1074>
    4dfc:	a65fc0ef          	jal	ra,1860 <printf>
    4e00:	130c2703          	lw	a4,304(s8)
    4e04:	00006cb7          	lui	s9,0x6
    4e08:	29cc8513          	addi	a0,s9,668 # 629c <heap_top+0x1080>
    4e0c:	00072583          	lw	a1,0(a4)
    4e10:	00006bb7          	lui	s7,0x6
    4e14:	00006b37          	lui	s6,0x6
    4e18:	a49fc0ef          	jal	ra,1860 <printf>
    4e1c:	00006537          	lui	a0,0x6
    4e20:	2b850513          	addi	a0,a0,696 # 62b8 <heap_top+0x109c>
    4e24:	a3dfc0ef          	jal	ra,1860 <printf>
    4e28:	130c2703          	lw	a4,304(s8)
    4e2c:	2ecb8513          	addi	a0,s7,748 # 62ec <heap_top+0x10d0>
    4e30:	00006ab7          	lui	s5,0x6
    4e34:	00472583          	lw	a1,4(a4)
    4e38:	00006a37          	lui	s4,0x6
    4e3c:	000069b7          	lui	s3,0x6
    4e40:	a21fc0ef          	jal	ra,1860 <printf>
    4e44:	00000593          	li	a1,0
    4e48:	1a048513          	addi	a0,s1,416
    4e4c:	a15fc0ef          	jal	ra,1860 <printf>
    4e50:	130c2703          	lw	a4,304(s8)
    4e54:	308b0513          	addi	a0,s6,776 # 6308 <heap_top+0x10ec>
    4e58:	00007437          	lui	s0,0x7
    4e5c:	00872583          	lw	a1,8(a4)
    4e60:	a01fc0ef          	jal	ra,1860 <printf>
    4e64:	00200593          	li	a1,2
    4e68:	1a048513          	addi	a0,s1,416
    4e6c:	9f5fc0ef          	jal	ra,1860 <printf>
    4e70:	130c2703          	lw	a4,304(s8)
    4e74:	324a8513          	addi	a0,s5,804 # 6324 <heap_top+0x1108>
    4e78:	00c72583          	lw	a1,12(a4)
    4e7c:	9e5fc0ef          	jal	ra,1860 <printf>
    4e80:	01100593          	li	a1,17
    4e84:	1a048513          	addi	a0,s1,416
    4e88:	9d9fc0ef          	jal	ra,1860 <printf>
    4e8c:	130c2583          	lw	a1,304(s8)
    4e90:	340a0513          	addi	a0,s4,832 # 6340 <heap_top+0x1124>
    4e94:	00009c37          	lui	s8,0x9
    4e98:	01058593          	addi	a1,a1,16
    4e9c:	9c5fc0ef          	jal	ra,1860 <printf>
    4ea0:	35c98513          	addi	a0,s3,860 # 635c <heap_top+0x1140>
    4ea4:	9bdfc0ef          	jal	ra,1860 <printf>
    4ea8:	00006537          	lui	a0,0x6
    4eac:	39450513          	addi	a0,a0,916 # 6394 <heap_top+0x1178>
    4eb0:	9b1fc0ef          	jal	ra,1860 <printf>
    4eb4:	124c2703          	lw	a4,292(s8) # 9124 <Next_Ptr_Glob>
    4eb8:	29cc8513          	addi	a0,s9,668
    4ebc:	00072583          	lw	a1,0(a4)
    4ec0:	9a1fc0ef          	jal	ra,1860 <printf>
    4ec4:	00006537          	lui	a0,0x6
    4ec8:	3a850513          	addi	a0,a0,936 # 63a8 <heap_top+0x118c>
    4ecc:	995fc0ef          	jal	ra,1860 <printf>
    4ed0:	124c2703          	lw	a4,292(s8)
    4ed4:	2ecb8513          	addi	a0,s7,748
    4ed8:	00472583          	lw	a1,4(a4)
    4edc:	985fc0ef          	jal	ra,1860 <printf>
    4ee0:	00000593          	li	a1,0
    4ee4:	1a048513          	addi	a0,s1,416
    4ee8:	979fc0ef          	jal	ra,1860 <printf>
    4eec:	124c2703          	lw	a4,292(s8)
    4ef0:	308b0513          	addi	a0,s6,776
    4ef4:	00872583          	lw	a1,8(a4)
    4ef8:	969fc0ef          	jal	ra,1860 <printf>
    4efc:	00100593          	li	a1,1
    4f00:	1a048513          	addi	a0,s1,416
    4f04:	95dfc0ef          	jal	ra,1860 <printf>
    4f08:	124c2703          	lw	a4,292(s8)
    4f0c:	324a8513          	addi	a0,s5,804
    4f10:	00c72583          	lw	a1,12(a4)
    4f14:	94dfc0ef          	jal	ra,1860 <printf>
    4f18:	01200593          	li	a1,18
    4f1c:	1a048513          	addi	a0,s1,416
    4f20:	941fc0ef          	jal	ra,1860 <printf>
    4f24:	124c2583          	lw	a1,292(s8)
    4f28:	340a0513          	addi	a0,s4,832
    4f2c:	01058593          	addi	a1,a1,16
    4f30:	931fc0ef          	jal	ra,1860 <printf>
    4f34:	35c98513          	addi	a0,s3,860
    4f38:	929fc0ef          	jal	ra,1860 <printf>
    4f3c:	00c12783          	lw	a5,12(sp)
    4f40:	00006537          	lui	a0,0x6
    4f44:	3e850513          	addi	a0,a0,1000 # 63e8 <heap_top+0x11cc>
    4f48:	00078593          	mv	a1,a5
    4f4c:	915fc0ef          	jal	ra,1860 <printf>
    4f50:	00500593          	li	a1,5
    4f54:	1a048513          	addi	a0,s1,416
    4f58:	909fc0ef          	jal	ra,1860 <printf>
    4f5c:	00412603          	lw	a2,4(sp)
    4f60:	00812683          	lw	a3,8(sp)
    4f64:	00006537          	lui	a0,0x6
    4f68:	40c90933          	sub	s2,s2,a2
    4f6c:	00391793          	slli	a5,s2,0x3
    4f70:	41278933          	sub	s2,a5,s2
    4f74:	40d905b3          	sub	a1,s2,a3
    4f78:	40450513          	addi	a0,a0,1028 # 6404 <heap_top+0x11e8>
    4f7c:	8e5fc0ef          	jal	ra,1860 <printf>
    4f80:	00d00593          	li	a1,13
    4f84:	1a048513          	addi	a0,s1,416
    4f88:	8d9fc0ef          	jal	ra,1860 <printf>
    4f8c:	01812583          	lw	a1,24(sp)
    4f90:	00006537          	lui	a0,0x6
    4f94:	42050513          	addi	a0,a0,1056 # 6420 <heap_top+0x1204>
    4f98:	8c9fc0ef          	jal	ra,1860 <printf>
    4f9c:	00700593          	li	a1,7
    4fa0:	1a048513          	addi	a0,s1,416
    4fa4:	8bdfc0ef          	jal	ra,1860 <printf>
    4fa8:	01c12583          	lw	a1,28(sp)
    4fac:	00006537          	lui	a0,0x6
    4fb0:	43c50513          	addi	a0,a0,1084 # 643c <heap_top+0x1220>
    4fb4:	8adfc0ef          	jal	ra,1860 <printf>
    4fb8:	00100593          	li	a1,1
    4fbc:	1a048513          	addi	a0,s1,416
    4fc0:	8a1fc0ef          	jal	ra,1860 <printf>
    4fc4:	00006537          	lui	a0,0x6
    4fc8:	02010593          	addi	a1,sp,32
    4fcc:	45850513          	addi	a0,a0,1112 # 6458 <heap_top+0x123c>
    4fd0:	891fc0ef          	jal	ra,1860 <printf>
    4fd4:	00006537          	lui	a0,0x6
    4fd8:	47450513          	addi	a0,a0,1140 # 6474 <heap_top+0x1258>
    4fdc:	885fc0ef          	jal	ra,1860 <printf>
    4fe0:	00006537          	lui	a0,0x6
    4fe4:	04010593          	addi	a1,sp,64
    4fe8:	4ac50513          	addi	a0,a0,1196 # 64ac <heap_top+0x1290>
    4fec:	875fc0ef          	jal	ra,1860 <printf>
    4ff0:	00006537          	lui	a0,0x6
    4ff4:	4c850513          	addi	a0,a0,1224 # 64c8 <heap_top+0x12ac>
    4ff8:	869fc0ef          	jal	ra,1860 <printf>
    4ffc:	6f8d8513          	addi	a0,s11,1784
    5000:	861fc0ef          	jal	ra,1860 <printf>
    5004:	000077b7          	lui	a5,0x7
    5008:	a0c7a783          	lw	a5,-1524(a5) # 6a0c <Begin_Time>
    500c:	120d2503          	lw	a0,288(s10)
    5010:	40f50533          	sub	a0,a0,a5
    5014:	a0a42423          	sw	a0,-1528(s0) # 6a08 <User_Time>
    5018:	eecff0ef          	jal	ra,4704 <__floatsisf>
    501c:	000057b7          	lui	a5,0x5
    5020:	1f07a583          	lw	a1,496(a5) # 51f0 <__heap_size+0x1f0>
    5024:	bbcff0ef          	jal	ra,43e0 <__divsf3>
    5028:	fe4ff0ef          	jal	ra,480c <__extendsfdf2>
    502c:	00050613          	mv	a2,a0
    5030:	00006537          	lui	a0,0x6
    5034:	00058693          	mv	a3,a1
    5038:	50050513          	addi	a0,a0,1280 # 6500 <heap_top+0x12e4>
    503c:	825fc0ef          	jal	ra,1860 <printf>
    5040:	a0842503          	lw	a0,-1528(s0)
    5044:	001e87b7          	lui	a5,0x1e8
    5048:	47f78793          	addi	a5,a5,1151 # 1e847f <__stack_top+0x1d848f>
    504c:	16a7d263          	ble	a0,a5,51b0 <__heap_size+0x1b0>
    5050:	eb4ff0ef          	jal	ra,4704 <__floatsisf>
    5054:	00050a13          	mv	s4,a0
    5058:	fb4ff0ef          	jal	ra,480c <__extendsfdf2>
    505c:	000057b7          	lui	a5,0x5
    5060:	2007a603          	lw	a2,512(a5) # 5200 <__heap_size+0x200>
    5064:	2047a683          	lw	a3,516(a5)
    5068:	000079b7          	lui	s3,0x7
    506c:	00007937          	lui	s2,0x7
    5070:	cc0fe0ef          	jal	ra,3530 <__muldf3>
    5074:	000057b7          	lui	a5,0x5
    5078:	2087a603          	lw	a2,520(a5) # 5208 <__heap_size+0x208>
    507c:	20c7a683          	lw	a3,524(a5)
    5080:	00009437          	lui	s0,0x9
    5084:	000064b7          	lui	s1,0x6
    5088:	cf1fd0ef          	jal	ra,2d78 <__divdf3>
    508c:	85dff0ef          	jal	ra,48e8 <__truncdfsf2>
    5090:	000057b7          	lui	a5,0x5
    5094:	a0a9a023          	sw	a0,-1536(s3) # 6a00 <Microseconds>
    5098:	1f47a503          	lw	a0,500(a5) # 51f4 <__heap_size+0x1f4>
    509c:	000a0593          	mv	a1,s4
    50a0:	b40ff0ef          	jal	ra,43e0 <__divsf3>
    50a4:	000057b7          	lui	a5,0x5
    50a8:	1f87a583          	lw	a1,504(a5) # 51f8 <__heap_size+0x1f8>
    50ac:	a0a92223          	sw	a0,-1532(s2) # 6a04 <Dhrystones_Per_Second>
    50b0:	b30ff0ef          	jal	ra,43e0 <__divsf3>
    50b4:	12a42a23          	sw	a0,308(s0) # 9134 <Vax_Mips>
    50b8:	00006537          	lui	a0,0x6
    50bc:	57450513          	addi	a0,a0,1396 # 6574 <heap_top+0x1358>
    50c0:	fa0fc0ef          	jal	ra,1860 <printf>
    50c4:	a009a503          	lw	a0,-1536(s3)
    50c8:	f44ff0ef          	jal	ra,480c <__extendsfdf2>
    50cc:	00050613          	mv	a2,a0
    50d0:	00006537          	lui	a0,0x6
    50d4:	00058693          	mv	a3,a1
    50d8:	5a450513          	addi	a0,a0,1444 # 65a4 <heap_top+0x1388>
    50dc:	f84fc0ef          	jal	ra,1860 <printf>
    50e0:	00006537          	lui	a0,0x6
    50e4:	5ac50513          	addi	a0,a0,1452 # 65ac <heap_top+0x1390>
    50e8:	f78fc0ef          	jal	ra,1860 <printf>
    50ec:	a0492503          	lw	a0,-1532(s2)
    50f0:	f1cff0ef          	jal	ra,480c <__extendsfdf2>
    50f4:	00050613          	mv	a2,a0
    50f8:	00058693          	mv	a3,a1
    50fc:	5dc48513          	addi	a0,s1,1500 # 65dc <heap_top+0x13c0>
    5100:	f60fc0ef          	jal	ra,1860 <printf>
    5104:	00006537          	lui	a0,0x6
    5108:	5e450513          	addi	a0,a0,1508 # 65e4 <heap_top+0x13c8>
    510c:	f54fc0ef          	jal	ra,1860 <printf>
    5110:	13442503          	lw	a0,308(s0)
    5114:	ef8ff0ef          	jal	ra,480c <__extendsfdf2>
    5118:	00050613          	mv	a2,a0
    511c:	00058693          	mv	a3,a1
    5120:	5dc48513          	addi	a0,s1,1500
    5124:	f3cfc0ef          	jal	ra,1860 <printf>
    5128:	00006537          	lui	a0,0x6
    512c:	61450513          	addi	a0,a0,1556 # 6614 <heap_top+0x13f8>
    5130:	f30fc0ef          	jal	ra,1860 <printf>
    5134:	000057b7          	lui	a5,0x5
    5138:	1fc7a583          	lw	a1,508(a5) # 51fc <__heap_size+0x1fc>
    513c:	13442503          	lw	a0,308(s0)
    5140:	aa0ff0ef          	jal	ra,43e0 <__divsf3>
    5144:	ec8ff0ef          	jal	ra,480c <__extendsfdf2>
    5148:	00050613          	mv	a2,a0
    514c:	00006537          	lui	a0,0x6
    5150:	00058693          	mv	a3,a1
    5154:	64450513          	addi	a0,a0,1604 # 6644 <heap_top+0x1428>
    5158:	f08fc0ef          	jal	ra,1860 <printf>
    515c:	000067b7          	lui	a5,0x6
    5160:	6f878513          	addi	a0,a5,1784 # 66f8 <heap_top+0x14dc>
    5164:	efcfc0ef          	jal	ra,1860 <printf>
    5168:	09c12083          	lw	ra,156(sp)
    516c:	09812403          	lw	s0,152(sp)
    5170:	09412483          	lw	s1,148(sp)
    5174:	09012903          	lw	s2,144(sp)
    5178:	08c12983          	lw	s3,140(sp)
    517c:	08812a03          	lw	s4,136(sp)
    5180:	08412a83          	lw	s5,132(sp)
    5184:	08012b03          	lw	s6,128(sp)
    5188:	07c12b83          	lw	s7,124(sp)
    518c:	07812c03          	lw	s8,120(sp)
    5190:	07412c83          	lw	s9,116(sp)
    5194:	07012d03          	lw	s10,112(sp)
    5198:	06c12d83          	lw	s11,108(sp)
    519c:	00000513          	li	a0,0
    51a0:	0a010113          	addi	sp,sp,160
    51a4:	00008067          	ret
    51a8:	00900913          	li	s2,9
    51ac:	b19ff06f          	j	4cc4 <main+0x210>
    51b0:	00006537          	lui	a0,0x6
    51b4:	51c50513          	addi	a0,a0,1308 # 651c <heap_top+0x1300>
    51b8:	ea8fc0ef          	jal	ra,1860 <printf>
    51bc:	00006537          	lui	a0,0x6
    51c0:	55450513          	addi	a0,a0,1364 # 6554 <heap_top+0x1338>
    51c4:	e9cfc0ef          	jal	ra,1860 <printf>
    51c8:	6f8d8513          	addi	a0,s11,1784
    51cc:	e94fc0ef          	jal	ra,1860 <printf>
    51d0:	f99ff06f          	j	5168 <__heap_size+0x168>
    51d4:	00006537          	lui	a0,0x6
    51d8:	09c50513          	addi	a0,a0,156 # 609c <heap_top+0xe80>
    51dc:	e84fc0ef          	jal	ra,1860 <printf>
    51e0:	000067b7          	lui	a5,0x6
    51e4:	6f878513          	addi	a0,a5,1784 # 66f8 <heap_top+0x14dc>
    51e8:	e78fc0ef          	jal	ra,1860 <printf>
    51ec:	9adff06f          	j	4b98 <main+0xe4>
